
STM32_Flight_Control.elf:     file format elf32-littlearm

Sections:
Idx Name          Size      VMA       LMA       File off  Algn
  0 .isr_vector   00000188  08000000  08000000  00001000  2**0
                  CONTENTS, ALLOC, LOAD, READONLY, DATA
  1 .text         000088e4  08000190  08000190  00001190  2**4
                  CONTENTS, ALLOC, LOAD, READONLY, CODE
  2 .rodata       000003f4  08008a78  08008a78  00009a78  2**3
                  CONTENTS, ALLOC, LOAD, READONLY, DATA
  3 .ARM.extab    00000000  08008e6c  08008e6c  0000a1d4  2**0
                  CONTENTS, READONLY
  4 .ARM          00000008  08008e6c  08008e6c  00009e6c  2**2
                  CONTENTS, ALLOC, LOAD, READONLY, DATA
  5 .preinit_array 00000000  08008e74  08008e74  0000a1d4  2**0
                  CONTENTS, ALLOC, LOAD, DATA
  6 .init_array   00000004  08008e74  08008e74  00009e74  2**2
                  CONTENTS, ALLOC, LOAD, READONLY, DATA
  7 .fini_array   00000004  08008e78  08008e78  00009e78  2**2
                  CONTENTS, ALLOC, LOAD, READONLY, DATA
  8 .data         000001d4  20000000  08008e7c  0000a000  2**2
                  CONTENTS, ALLOC, LOAD, DATA
  9 .ccmram       00000000  10000000  10000000  0000a1d4  2**0
                  CONTENTS
 10 .bss          000002e0  200001d4  200001d4  0000a1d4  2**2
                  ALLOC
 11 ._user_heap_stack 00000604  200004b4  200004b4  0000a1d4  2**0
                  ALLOC
 12 .ARM.attributes 00000030  00000000  00000000  0000a1d4  2**0
                  CONTENTS, READONLY
 13 .debug_info   00010275  00000000  00000000  0000a204  2**0
                  CONTENTS, READONLY, DEBUGGING, OCTETS
 14 .debug_abbrev 00002073  00000000  00000000  0001a479  2**0
                  CONTENTS, READONLY, DEBUGGING, OCTETS
 15 .debug_aranges 00000e20  00000000  00000000  0001c4f0  2**3
                  CONTENTS, READONLY, DEBUGGING, OCTETS
 16 .debug_rnglists 00000b18  00000000  00000000  0001d310  2**0
                  CONTENTS, READONLY, DEBUGGING, OCTETS
 17 .debug_macro  00021baa  00000000  00000000  0001de28  2**0
                  CONTENTS, READONLY, DEBUGGING, OCTETS
 18 .debug_line   000119a4  00000000  00000000  0003f9d2  2**0
                  CONTENTS, READONLY, DEBUGGING, OCTETS
 19 .debug_str    000cc3b4  00000000  00000000  00051376  2**0
                  CONTENTS, READONLY, DEBUGGING, OCTETS
 20 .comment      00000043  00000000  00000000  0011d72a  2**0
                  CONTENTS, READONLY
 21 .debug_frame  00004a68  00000000  00000000  0011d770  2**2
                  CONTENTS, READONLY, DEBUGGING, OCTETS
 22 .debug_line_str 0000007f  00000000  00000000  001221d8  2**0
                  CONTENTS, READONLY, DEBUGGING, OCTETS

Disassembly of section .text:

08000190 <__do_global_dtors_aux>:
 8000190:	b510      	push	{r4, lr}
 8000192:	4c05      	ldr	r4, [pc, #20]	@ (80001a8 <__do_global_dtors_aux+0x18>)
 8000194:	7823      	ldrb	r3, [r4, #0]
 8000196:	b933      	cbnz	r3, 80001a6 <__do_global_dtors_aux+0x16>
 8000198:	4b04      	ldr	r3, [pc, #16]	@ (80001ac <__do_global_dtors_aux+0x1c>)
 800019a:	b113      	cbz	r3, 80001a2 <__do_global_dtors_aux+0x12>
 800019c:	4804      	ldr	r0, [pc, #16]	@ (80001b0 <__do_global_dtors_aux+0x20>)
 800019e:	f3af 8000 	nop.w
 80001a2:	2301      	movs	r3, #1
 80001a4:	7023      	strb	r3, [r4, #0]
 80001a6:	bd10      	pop	{r4, pc}
 80001a8:	200001d4 	.word	0x200001d4
 80001ac:	00000000 	.word	0x00000000
 80001b0:	08008a5c 	.word	0x08008a5c

080001b4 <frame_dummy>:
 80001b4:	b508      	push	{r3, lr}
 80001b6:	4b03      	ldr	r3, [pc, #12]	@ (80001c4 <frame_dummy+0x10>)
 80001b8:	b11b      	cbz	r3, 80001c2 <frame_dummy+0xe>
 80001ba:	4903      	ldr	r1, [pc, #12]	@ (80001c8 <frame_dummy+0x14>)
 80001bc:	4803      	ldr	r0, [pc, #12]	@ (80001cc <frame_dummy+0x18>)
 80001be:	f3af 8000 	nop.w
 80001c2:	bd08      	pop	{r3, pc}
 80001c4:	00000000 	.word	0x00000000
 80001c8:	200001d8 	.word	0x200001d8
 80001cc:	08008a5c 	.word	0x08008a5c

080001d0 <memchr>:
 80001d0:	f001 01ff 	and.w	r1, r1, #255	@ 0xff
 80001d4:	2a10      	cmp	r2, #16
 80001d6:	db2b      	blt.n	8000230 <memchr+0x60>
 80001d8:	f010 0f07 	tst.w	r0, #7
 80001dc:	d008      	beq.n	80001f0 <memchr+0x20>
 80001de:	f810 3b01 	ldrb.w	r3, [r0], #1
 80001e2:	3a01      	subs	r2, #1
 80001e4:	428b      	cmp	r3, r1
 80001e6:	d02d      	beq.n	8000244 <memchr+0x74>
 80001e8:	f010 0f07 	tst.w	r0, #7
 80001ec:	b342      	cbz	r2, 8000240 <memchr+0x70>
 80001ee:	d1f6      	bne.n	80001de <memchr+0xe>
 80001f0:	b4f0      	push	{r4, r5, r6, r7}
 80001f2:	ea41 2101 	orr.w	r1, r1, r1, lsl #8
 80001f6:	ea41 4101 	orr.w	r1, r1, r1, lsl #16
 80001fa:	f022 0407 	bic.w	r4, r2, #7
 80001fe:	f07f 0700 	mvns.w	r7, #0
 8000202:	2300      	movs	r3, #0
 8000204:	e8f0 5602 	ldrd	r5, r6, [r0], #8
 8000208:	3c08      	subs	r4, #8
 800020a:	ea85 0501 	eor.w	r5, r5, r1
 800020e:	ea86 0601 	eor.w	r6, r6, r1
 8000212:	fa85 f547 	uadd8	r5, r5, r7
 8000216:	faa3 f587 	sel	r5, r3, r7
 800021a:	fa86 f647 	uadd8	r6, r6, r7
 800021e:	faa5 f687 	sel	r6, r5, r7
 8000222:	b98e      	cbnz	r6, 8000248 <memchr+0x78>
 8000224:	d1ee      	bne.n	8000204 <memchr+0x34>
 8000226:	bcf0      	pop	{r4, r5, r6, r7}
 8000228:	f001 01ff 	and.w	r1, r1, #255	@ 0xff
 800022c:	f002 0207 	and.w	r2, r2, #7
 8000230:	b132      	cbz	r2, 8000240 <memchr+0x70>
 8000232:	f810 3b01 	ldrb.w	r3, [r0], #1
 8000236:	3a01      	subs	r2, #1
 8000238:	ea83 0301 	eor.w	r3, r3, r1
 800023c:	b113      	cbz	r3, 8000244 <memchr+0x74>
 800023e:	d1f8      	bne.n	8000232 <memchr+0x62>
 8000240:	2000      	movs	r0, #0
 8000242:	4770      	bx	lr
 8000244:	3801      	subs	r0, #1
 8000246:	4770      	bx	lr
 8000248:	2d00      	cmp	r5, #0
 800024a:	bf06      	itte	eq
 800024c:	4635      	moveq	r5, r6
 800024e:	3803      	subeq	r0, #3
 8000250:	3807      	subne	r0, #7
 8000252:	f015 0f01 	tst.w	r5, #1
 8000256:	d107      	bne.n	8000268 <memchr+0x98>
 8000258:	3001      	adds	r0, #1
 800025a:	f415 7f80 	tst.w	r5, #256	@ 0x100
 800025e:	bf02      	ittt	eq
 8000260:	3001      	addeq	r0, #1
 8000262:	f415 3fc0 	tsteq.w	r5, #98304	@ 0x18000
 8000266:	3001      	addeq	r0, #1
 8000268:	bcf0      	pop	{r4, r5, r6, r7}
 800026a:	3801      	subs	r0, #1
 800026c:	4770      	bx	lr
 800026e:	bf00      	nop

08000270 <strlen>:
 8000270:	4603      	mov	r3, r0
 8000272:	f813 2b01 	ldrb.w	r2, [r3], #1
 8000276:	2a00      	cmp	r2, #0
 8000278:	d1fb      	bne.n	8000272 <strlen+0x2>
 800027a:	1a18      	subs	r0, r3, r0
 800027c:	3801      	subs	r0, #1
 800027e:	4770      	bx	lr

08000280 <__aeabi_drsub>:
 8000280:	f081 4100 	eor.w	r1, r1, #2147483648	@ 0x80000000
 8000284:	e002      	b.n	800028c <__adddf3>
 8000286:	bf00      	nop

08000288 <__aeabi_dsub>:
 8000288:	f083 4300 	eor.w	r3, r3, #2147483648	@ 0x80000000

0800028c <__adddf3>:
 800028c:	b530      	push	{r4, r5, lr}
 800028e:	ea4f 0441 	mov.w	r4, r1, lsl #1
 8000292:	ea4f 0543 	mov.w	r5, r3, lsl #1
 8000296:	ea94 0f05 	teq	r4, r5
 800029a:	bf08      	it	eq
 800029c:	ea90 0f02 	teqeq	r0, r2
 80002a0:	bf1f      	itttt	ne
 80002a2:	ea54 0c00 	orrsne.w	ip, r4, r0
 80002a6:	ea55 0c02 	orrsne.w	ip, r5, r2
 80002aa:	ea7f 5c64 	mvnsne.w	ip, r4, asr #21
 80002ae:	ea7f 5c65 	mvnsne.w	ip, r5, asr #21
 80002b2:	f000 80e2 	beq.w	800047a <__adddf3+0x1ee>
 80002b6:	ea4f 5454 	mov.w	r4, r4, lsr #21
 80002ba:	ebd4 5555 	rsbs	r5, r4, r5, lsr #21
 80002be:	bfb8      	it	lt
 80002c0:	426d      	neglt	r5, r5
 80002c2:	dd0c      	ble.n	80002de <__adddf3+0x52>
 80002c4:	442c      	add	r4, r5
 80002c6:	ea80 0202 	eor.w	r2, r0, r2
 80002ca:	ea81 0303 	eor.w	r3, r1, r3
 80002ce:	ea82 0000 	eor.w	r0, r2, r0
 80002d2:	ea83 0101 	eor.w	r1, r3, r1
 80002d6:	ea80 0202 	eor.w	r2, r0, r2
 80002da:	ea81 0303 	eor.w	r3, r1, r3
 80002de:	2d36      	cmp	r5, #54	@ 0x36
 80002e0:	bf88      	it	hi
 80002e2:	bd30      	pophi	{r4, r5, pc}
 80002e4:	f011 4f00 	tst.w	r1, #2147483648	@ 0x80000000
 80002e8:	ea4f 3101 	mov.w	r1, r1, lsl #12
 80002ec:	f44f 1c80 	mov.w	ip, #1048576	@ 0x100000
 80002f0:	ea4c 3111 	orr.w	r1, ip, r1, lsr #12
 80002f4:	d002      	beq.n	80002fc <__adddf3+0x70>
 80002f6:	4240      	negs	r0, r0
 80002f8:	eb61 0141 	sbc.w	r1, r1, r1, lsl #1
 80002fc:	f013 4f00 	tst.w	r3, #2147483648	@ 0x80000000
 8000300:	ea4f 3303 	mov.w	r3, r3, lsl #12
 8000304:	ea4c 3313 	orr.w	r3, ip, r3, lsr #12
 8000308:	d002      	beq.n	8000310 <__adddf3+0x84>
 800030a:	4252      	negs	r2, r2
 800030c:	eb63 0343 	sbc.w	r3, r3, r3, lsl #1
 8000310:	ea94 0f05 	teq	r4, r5
 8000314:	f000 80a7 	beq.w	8000466 <__adddf3+0x1da>
 8000318:	f1a4 0401 	sub.w	r4, r4, #1
 800031c:	f1d5 0e20 	rsbs	lr, r5, #32
 8000320:	db0d      	blt.n	800033e <__adddf3+0xb2>
 8000322:	fa02 fc0e 	lsl.w	ip, r2, lr
 8000326:	fa22 f205 	lsr.w	r2, r2, r5
 800032a:	1880      	adds	r0, r0, r2
 800032c:	f141 0100 	adc.w	r1, r1, #0
 8000330:	fa03 f20e 	lsl.w	r2, r3, lr
 8000334:	1880      	adds	r0, r0, r2
 8000336:	fa43 f305 	asr.w	r3, r3, r5
 800033a:	4159      	adcs	r1, r3
 800033c:	e00e      	b.n	800035c <__adddf3+0xd0>
 800033e:	f1a5 0520 	sub.w	r5, r5, #32
 8000342:	f10e 0e20 	add.w	lr, lr, #32
 8000346:	2a01      	cmp	r2, #1
 8000348:	fa03 fc0e 	lsl.w	ip, r3, lr
 800034c:	bf28      	it	cs
 800034e:	f04c 0c02 	orrcs.w	ip, ip, #2
 8000352:	fa43 f305 	asr.w	r3, r3, r5
 8000356:	18c0      	adds	r0, r0, r3
 8000358:	eb51 71e3 	adcs.w	r1, r1, r3, asr #31
 800035c:	f001 4500 	and.w	r5, r1, #2147483648	@ 0x80000000
 8000360:	d507      	bpl.n	8000372 <__adddf3+0xe6>
 8000362:	f04f 0e00 	mov.w	lr, #0
 8000366:	f1dc 0c00 	rsbs	ip, ip, #0
 800036a:	eb7e 0000 	sbcs.w	r0, lr, r0
 800036e:	eb6e 0101 	sbc.w	r1, lr, r1
 8000372:	f5b1 1f80 	cmp.w	r1, #1048576	@ 0x100000
 8000376:	d31b      	bcc.n	80003b0 <__adddf3+0x124>
 8000378:	f5b1 1f00 	cmp.w	r1, #2097152	@ 0x200000
 800037c:	d30c      	bcc.n	8000398 <__adddf3+0x10c>
 800037e:	0849      	lsrs	r1, r1, #1
 8000380:	ea5f 0030 	movs.w	r0, r0, rrx
 8000384:	ea4f 0c3c 	mov.w	ip, ip, rrx
 8000388:	f104 0401 	add.w	r4, r4, #1
 800038c:	ea4f 5244 	mov.w	r2, r4, lsl #21
 8000390:	f512 0f80 	cmn.w	r2, #4194304	@ 0x400000
 8000394:	f080 809a 	bcs.w	80004cc <__adddf3+0x240>
 8000398:	f1bc 4f00 	cmp.w	ip, #2147483648	@ 0x80000000
 800039c:	bf08      	it	eq
 800039e:	ea5f 0c50 	movseq.w	ip, r0, lsr #1
 80003a2:	f150 0000 	adcs.w	r0, r0, #0
 80003a6:	eb41 5104 	adc.w	r1, r1, r4, lsl #20
 80003aa:	ea41 0105 	orr.w	r1, r1, r5
 80003ae:	bd30      	pop	{r4, r5, pc}
 80003b0:	ea5f 0c4c 	movs.w	ip, ip, lsl #1
 80003b4:	4140      	adcs	r0, r0
 80003b6:	eb41 0101 	adc.w	r1, r1, r1
 80003ba:	3c01      	subs	r4, #1
 80003bc:	bf28      	it	cs
 80003be:	f5b1 1f80 	cmpcs.w	r1, #1048576	@ 0x100000
 80003c2:	d2e9      	bcs.n	8000398 <__adddf3+0x10c>
 80003c4:	f091 0f00 	teq	r1, #0
 80003c8:	bf04      	itt	eq
 80003ca:	4601      	moveq	r1, r0
 80003cc:	2000      	moveq	r0, #0
 80003ce:	fab1 f381 	clz	r3, r1
 80003d2:	bf08      	it	eq
 80003d4:	3320      	addeq	r3, #32
 80003d6:	f1a3 030b 	sub.w	r3, r3, #11
 80003da:	f1b3 0220 	subs.w	r2, r3, #32
 80003de:	da0c      	bge.n	80003fa <__adddf3+0x16e>
 80003e0:	320c      	adds	r2, #12
 80003e2:	dd08      	ble.n	80003f6 <__adddf3+0x16a>
 80003e4:	f102 0c14 	add.w	ip, r2, #20
 80003e8:	f1c2 020c 	rsb	r2, r2, #12
 80003ec:	fa01 f00c 	lsl.w	r0, r1, ip
 80003f0:	fa21 f102 	lsr.w	r1, r1, r2
 80003f4:	e00c      	b.n	8000410 <__adddf3+0x184>
 80003f6:	f102 0214 	add.w	r2, r2, #20
 80003fa:	bfd8      	it	le
 80003fc:	f1c2 0c20 	rsble	ip, r2, #32
 8000400:	fa01 f102 	lsl.w	r1, r1, r2
 8000404:	fa20 fc0c 	lsr.w	ip, r0, ip
 8000408:	bfdc      	itt	le
 800040a:	ea41 010c 	orrle.w	r1, r1, ip
 800040e:	4090      	lslle	r0, r2
 8000410:	1ae4      	subs	r4, r4, r3
 8000412:	bfa2      	ittt	ge
 8000414:	eb01 5104 	addge.w	r1, r1, r4, lsl #20
 8000418:	4329      	orrge	r1, r5
 800041a:	bd30      	popge	{r4, r5, pc}
 800041c:	ea6f 0404 	mvn.w	r4, r4
 8000420:	3c1f      	subs	r4, #31
 8000422:	da1c      	bge.n	800045e <__adddf3+0x1d2>
 8000424:	340c      	adds	r4, #12
 8000426:	dc0e      	bgt.n	8000446 <__adddf3+0x1ba>
 8000428:	f104 0414 	add.w	r4, r4, #20
 800042c:	f1c4 0220 	rsb	r2, r4, #32
 8000430:	fa20 f004 	lsr.w	r0, r0, r4
 8000434:	fa01 f302 	lsl.w	r3, r1, r2
 8000438:	ea40 0003 	orr.w	r0, r0, r3
 800043c:	fa21 f304 	lsr.w	r3, r1, r4
 8000440:	ea45 0103 	orr.w	r1, r5, r3
 8000444:	bd30      	pop	{r4, r5, pc}
 8000446:	f1c4 040c 	rsb	r4, r4, #12
 800044a:	f1c4 0220 	rsb	r2, r4, #32
 800044e:	fa20 f002 	lsr.w	r0, r0, r2
 8000452:	fa01 f304 	lsl.w	r3, r1, r4
 8000456:	ea40 0003 	orr.w	r0, r0, r3
 800045a:	4629      	mov	r1, r5
 800045c:	bd30      	pop	{r4, r5, pc}
 800045e:	fa21 f004 	lsr.w	r0, r1, r4
 8000462:	4629      	mov	r1, r5
 8000464:	bd30      	pop	{r4, r5, pc}
 8000466:	f094 0f00 	teq	r4, #0
 800046a:	f483 1380 	eor.w	r3, r3, #1048576	@ 0x100000
 800046e:	bf06      	itte	eq
 8000470:	f481 1180 	eoreq.w	r1, r1, #1048576	@ 0x100000
 8000474:	3401      	addeq	r4, #1
 8000476:	3d01      	subne	r5, #1
 8000478:	e74e      	b.n	8000318 <__adddf3+0x8c>
 800047a:	ea7f 5c64 	mvns.w	ip, r4, asr #21
 800047e:	bf18      	it	ne
 8000480:	ea7f 5c65 	mvnsne.w	ip, r5, asr #21
 8000484:	d029      	beq.n	80004da <__adddf3+0x24e>
 8000486:	ea94 0f05 	teq	r4, r5
 800048a:	bf08      	it	eq
 800048c:	ea90 0f02 	teqeq	r0, r2
 8000490:	d005      	beq.n	800049e <__adddf3+0x212>
 8000492:	ea54 0c00 	orrs.w	ip, r4, r0
 8000496:	bf04      	itt	eq
 8000498:	4619      	moveq	r1, r3
 800049a:	4610      	moveq	r0, r2
 800049c:	bd30      	pop	{r4, r5, pc}
 800049e:	ea91 0f03 	teq	r1, r3
 80004a2:	bf1e      	ittt	ne
 80004a4:	2100      	movne	r1, #0
 80004a6:	2000      	movne	r0, #0
 80004a8:	bd30      	popne	{r4, r5, pc}
 80004aa:	ea5f 5c54 	movs.w	ip, r4, lsr #21
 80004ae:	d105      	bne.n	80004bc <__adddf3+0x230>
 80004b0:	0040      	lsls	r0, r0, #1
 80004b2:	4149      	adcs	r1, r1
 80004b4:	bf28      	it	cs
 80004b6:	f041 4100 	orrcs.w	r1, r1, #2147483648	@ 0x80000000
 80004ba:	bd30      	pop	{r4, r5, pc}
 80004bc:	f514 0480 	adds.w	r4, r4, #4194304	@ 0x400000
 80004c0:	bf3c      	itt	cc
 80004c2:	f501 1180 	addcc.w	r1, r1, #1048576	@ 0x100000
 80004c6:	bd30      	popcc	{r4, r5, pc}
 80004c8:	f001 4500 	and.w	r5, r1, #2147483648	@ 0x80000000
 80004cc:	f045 41fe 	orr.w	r1, r5, #2130706432	@ 0x7f000000
 80004d0:	f441 0170 	orr.w	r1, r1, #15728640	@ 0xf00000
 80004d4:	f04f 0000 	mov.w	r0, #0
 80004d8:	bd30      	pop	{r4, r5, pc}
 80004da:	ea7f 5c64 	mvns.w	ip, r4, asr #21
 80004de:	bf1a      	itte	ne
 80004e0:	4619      	movne	r1, r3
 80004e2:	4610      	movne	r0, r2
 80004e4:	ea7f 5c65 	mvnseq.w	ip, r5, asr #21
 80004e8:	bf1c      	itt	ne
 80004ea:	460b      	movne	r3, r1
 80004ec:	4602      	movne	r2, r0
 80004ee:	ea50 3401 	orrs.w	r4, r0, r1, lsl #12
 80004f2:	bf06      	itte	eq
 80004f4:	ea52 3503 	orrseq.w	r5, r2, r3, lsl #12
 80004f8:	ea91 0f03 	teqeq	r1, r3
 80004fc:	f441 2100 	orrne.w	r1, r1, #524288	@ 0x80000
 8000500:	bd30      	pop	{r4, r5, pc}
 8000502:	bf00      	nop

08000504 <__aeabi_ui2d>:
 8000504:	f090 0f00 	teq	r0, #0
 8000508:	bf04      	itt	eq
 800050a:	2100      	moveq	r1, #0
 800050c:	4770      	bxeq	lr
 800050e:	b530      	push	{r4, r5, lr}
 8000510:	f44f 6480 	mov.w	r4, #1024	@ 0x400
 8000514:	f104 0432 	add.w	r4, r4, #50	@ 0x32
 8000518:	f04f 0500 	mov.w	r5, #0
 800051c:	f04f 0100 	mov.w	r1, #0
 8000520:	e750      	b.n	80003c4 <__adddf3+0x138>
 8000522:	bf00      	nop

08000524 <__aeabi_i2d>:
 8000524:	f090 0f00 	teq	r0, #0
 8000528:	bf04      	itt	eq
 800052a:	2100      	moveq	r1, #0
 800052c:	4770      	bxeq	lr
 800052e:	b530      	push	{r4, r5, lr}
 8000530:	f44f 6480 	mov.w	r4, #1024	@ 0x400
 8000534:	f104 0432 	add.w	r4, r4, #50	@ 0x32
 8000538:	f010 4500 	ands.w	r5, r0, #2147483648	@ 0x80000000
 800053c:	bf48      	it	mi
 800053e:	4240      	negmi	r0, r0
 8000540:	f04f 0100 	mov.w	r1, #0
 8000544:	e73e      	b.n	80003c4 <__adddf3+0x138>
 8000546:	bf00      	nop

08000548 <__aeabi_f2d>:
 8000548:	0042      	lsls	r2, r0, #1
 800054a:	ea4f 01e2 	mov.w	r1, r2, asr #3
 800054e:	ea4f 0131 	mov.w	r1, r1, rrx
 8000552:	ea4f 7002 	mov.w	r0, r2, lsl #28
 8000556:	bf1f      	itttt	ne
 8000558:	f012 437f 	andsne.w	r3, r2, #4278190080	@ 0xff000000
 800055c:	f093 4f7f 	teqne	r3, #4278190080	@ 0xff000000
 8000560:	f081 5160 	eorne.w	r1, r1, #939524096	@ 0x38000000
 8000564:	4770      	bxne	lr
 8000566:	f032 427f 	bics.w	r2, r2, #4278190080	@ 0xff000000
 800056a:	bf08      	it	eq
 800056c:	4770      	bxeq	lr
 800056e:	f093 4f7f 	teq	r3, #4278190080	@ 0xff000000
 8000572:	bf04      	itt	eq
 8000574:	f441 2100 	orreq.w	r1, r1, #524288	@ 0x80000
 8000578:	4770      	bxeq	lr
 800057a:	b530      	push	{r4, r5, lr}
 800057c:	f44f 7460 	mov.w	r4, #896	@ 0x380
 8000580:	f001 4500 	and.w	r5, r1, #2147483648	@ 0x80000000
 8000584:	f021 4100 	bic.w	r1, r1, #2147483648	@ 0x80000000
 8000588:	e71c      	b.n	80003c4 <__adddf3+0x138>
 800058a:	bf00      	nop

0800058c <__aeabi_ul2d>:
 800058c:	ea50 0201 	orrs.w	r2, r0, r1
 8000590:	bf08      	it	eq
 8000592:	4770      	bxeq	lr
 8000594:	b530      	push	{r4, r5, lr}
 8000596:	f04f 0500 	mov.w	r5, #0
 800059a:	e00a      	b.n	80005b2 <__aeabi_l2d+0x16>

0800059c <__aeabi_l2d>:
 800059c:	ea50 0201 	orrs.w	r2, r0, r1
 80005a0:	bf08      	it	eq
 80005a2:	4770      	bxeq	lr
 80005a4:	b530      	push	{r4, r5, lr}
 80005a6:	f011 4500 	ands.w	r5, r1, #2147483648	@ 0x80000000
 80005aa:	d502      	bpl.n	80005b2 <__aeabi_l2d+0x16>
 80005ac:	4240      	negs	r0, r0
 80005ae:	eb61 0141 	sbc.w	r1, r1, r1, lsl #1
 80005b2:	f44f 6480 	mov.w	r4, #1024	@ 0x400
 80005b6:	f104 0432 	add.w	r4, r4, #50	@ 0x32
 80005ba:	ea5f 5c91 	movs.w	ip, r1, lsr #22
 80005be:	f43f aed8 	beq.w	8000372 <__adddf3+0xe6>
 80005c2:	f04f 0203 	mov.w	r2, #3
 80005c6:	ea5f 0cdc 	movs.w	ip, ip, lsr #3
 80005ca:	bf18      	it	ne
 80005cc:	3203      	addne	r2, #3
 80005ce:	ea5f 0cdc 	movs.w	ip, ip, lsr #3
 80005d2:	bf18      	it	ne
 80005d4:	3203      	addne	r2, #3
 80005d6:	eb02 02dc 	add.w	r2, r2, ip, lsr #3
 80005da:	f1c2 0320 	rsb	r3, r2, #32
 80005de:	fa00 fc03 	lsl.w	ip, r0, r3
 80005e2:	fa20 f002 	lsr.w	r0, r0, r2
 80005e6:	fa01 fe03 	lsl.w	lr, r1, r3
 80005ea:	ea40 000e 	orr.w	r0, r0, lr
 80005ee:	fa21 f102 	lsr.w	r1, r1, r2
 80005f2:	4414      	add	r4, r2
 80005f4:	e6bd      	b.n	8000372 <__adddf3+0xe6>
 80005f6:	bf00      	nop

080005f8 <__aeabi_dmul>:
 80005f8:	b570      	push	{r4, r5, r6, lr}
 80005fa:	f04f 0cff 	mov.w	ip, #255	@ 0xff
 80005fe:	f44c 6ce0 	orr.w	ip, ip, #1792	@ 0x700
 8000602:	ea1c 5411 	ands.w	r4, ip, r1, lsr #20
 8000606:	bf1d      	ittte	ne
 8000608:	ea1c 5513 	andsne.w	r5, ip, r3, lsr #20
 800060c:	ea94 0f0c 	teqne	r4, ip
 8000610:	ea95 0f0c 	teqne	r5, ip
 8000614:	f000 f8de 	bleq	80007d4 <__aeabi_dmul+0x1dc>
 8000618:	442c      	add	r4, r5
 800061a:	ea81 0603 	eor.w	r6, r1, r3
 800061e:	ea21 514c 	bic.w	r1, r1, ip, lsl #21
 8000622:	ea23 534c 	bic.w	r3, r3, ip, lsl #21
 8000626:	ea50 3501 	orrs.w	r5, r0, r1, lsl #12
 800062a:	bf18      	it	ne
 800062c:	ea52 3503 	orrsne.w	r5, r2, r3, lsl #12
 8000630:	f441 1180 	orr.w	r1, r1, #1048576	@ 0x100000
 8000634:	f443 1380 	orr.w	r3, r3, #1048576	@ 0x100000
 8000638:	d038      	beq.n	80006ac <__aeabi_dmul+0xb4>
 800063a:	fba0 ce02 	umull	ip, lr, r0, r2
 800063e:	f04f 0500 	mov.w	r5, #0
 8000642:	fbe1 e502 	umlal	lr, r5, r1, r2
 8000646:	f006 4200 	and.w	r2, r6, #2147483648	@ 0x80000000
 800064a:	fbe0 e503 	umlal	lr, r5, r0, r3
 800064e:	f04f 0600 	mov.w	r6, #0
 8000652:	fbe1 5603 	umlal	r5, r6, r1, r3
 8000656:	f09c 0f00 	teq	ip, #0
 800065a:	bf18      	it	ne
 800065c:	f04e 0e01 	orrne.w	lr, lr, #1
 8000660:	f1a4 04ff 	sub.w	r4, r4, #255	@ 0xff
 8000664:	f5b6 7f00 	cmp.w	r6, #512	@ 0x200
 8000668:	f564 7440 	sbc.w	r4, r4, #768	@ 0x300
 800066c:	d204      	bcs.n	8000678 <__aeabi_dmul+0x80>
 800066e:	ea5f 0e4e 	movs.w	lr, lr, lsl #1
 8000672:	416d      	adcs	r5, r5
 8000674:	eb46 0606 	adc.w	r6, r6, r6
 8000678:	ea42 21c6 	orr.w	r1, r2, r6, lsl #11
 800067c:	ea41 5155 	orr.w	r1, r1, r5, lsr #21
 8000680:	ea4f 20c5 	mov.w	r0, r5, lsl #11
 8000684:	ea40 505e 	orr.w	r0, r0, lr, lsr #21
 8000688:	ea4f 2ece 	mov.w	lr, lr, lsl #11
 800068c:	f1b4 0cfd 	subs.w	ip, r4, #253	@ 0xfd
 8000690:	bf88      	it	hi
 8000692:	f5bc 6fe0 	cmphi.w	ip, #1792	@ 0x700
 8000696:	d81e      	bhi.n	80006d6 <__aeabi_dmul+0xde>
 8000698:	f1be 4f00 	cmp.w	lr, #2147483648	@ 0x80000000
 800069c:	bf08      	it	eq
 800069e:	ea5f 0e50 	movseq.w	lr, r0, lsr #1
 80006a2:	f150 0000 	adcs.w	r0, r0, #0
 80006a6:	eb41 5104 	adc.w	r1, r1, r4, lsl #20
 80006aa:	bd70      	pop	{r4, r5, r6, pc}
 80006ac:	f006 4600 	and.w	r6, r6, #2147483648	@ 0x80000000
 80006b0:	ea46 0101 	orr.w	r1, r6, r1
 80006b4:	ea40 0002 	orr.w	r0, r0, r2
 80006b8:	ea81 0103 	eor.w	r1, r1, r3
 80006bc:	ebb4 045c 	subs.w	r4, r4, ip, lsr #1
 80006c0:	bfc2      	ittt	gt
 80006c2:	ebd4 050c 	rsbsgt	r5, r4, ip
 80006c6:	ea41 5104 	orrgt.w	r1, r1, r4, lsl #20
 80006ca:	bd70      	popgt	{r4, r5, r6, pc}
 80006cc:	f441 1180 	orr.w	r1, r1, #1048576	@ 0x100000
 80006d0:	f04f 0e00 	mov.w	lr, #0
 80006d4:	3c01      	subs	r4, #1
 80006d6:	f300 80ab 	bgt.w	8000830 <__aeabi_dmul+0x238>
 80006da:	f114 0f36 	cmn.w	r4, #54	@ 0x36
 80006de:	bfde      	ittt	le
 80006e0:	2000      	movle	r0, #0
 80006e2:	f001 4100 	andle.w	r1, r1, #2147483648	@ 0x80000000
 80006e6:	bd70      	pople	{r4, r5, r6, pc}
 80006e8:	f1c4 0400 	rsb	r4, r4, #0
 80006ec:	3c20      	subs	r4, #32
 80006ee:	da35      	bge.n	800075c <__aeabi_dmul+0x164>
 80006f0:	340c      	adds	r4, #12
 80006f2:	dc1b      	bgt.n	800072c <__aeabi_dmul+0x134>
 80006f4:	f104 0414 	add.w	r4, r4, #20
 80006f8:	f1c4 0520 	rsb	r5, r4, #32
 80006fc:	fa00 f305 	lsl.w	r3, r0, r5
 8000700:	fa20 f004 	lsr.w	r0, r0, r4
 8000704:	fa01 f205 	lsl.w	r2, r1, r5
 8000708:	ea40 0002 	orr.w	r0, r0, r2
 800070c:	f001 4200 	and.w	r2, r1, #2147483648	@ 0x80000000
 8000710:	f021 4100 	bic.w	r1, r1, #2147483648	@ 0x80000000
 8000714:	eb10 70d3 	adds.w	r0, r0, r3, lsr #31
 8000718:	fa21 f604 	lsr.w	r6, r1, r4
 800071c:	eb42 0106 	adc.w	r1, r2, r6
 8000720:	ea5e 0e43 	orrs.w	lr, lr, r3, lsl #1
 8000724:	bf08      	it	eq
 8000726:	ea20 70d3 	biceq.w	r0, r0, r3, lsr #31
 800072a:	bd70      	pop	{r4, r5, r6, pc}
 800072c:	f1c4 040c 	rsb	r4, r4, #12
 8000730:	f1c4 0520 	rsb	r5, r4, #32
 8000734:	fa00 f304 	lsl.w	r3, r0, r4
 8000738:	fa20 f005 	lsr.w	r0, r0, r5
 800073c:	fa01 f204 	lsl.w	r2, r1, r4
 8000740:	ea40 0002 	orr.w	r0, r0, r2
 8000744:	f001 4100 	and.w	r1, r1, #2147483648	@ 0x80000000
 8000748:	eb10 70d3 	adds.w	r0, r0, r3, lsr #31
 800074c:	f141 0100 	adc.w	r1, r1, #0
 8000750:	ea5e 0e43 	orrs.w	lr, lr, r3, lsl #1
 8000754:	bf08      	it	eq
 8000756:	ea20 70d3 	biceq.w	r0, r0, r3, lsr #31
 800075a:	bd70      	pop	{r4, r5, r6, pc}
 800075c:	f1c4 0520 	rsb	r5, r4, #32
 8000760:	fa00 f205 	lsl.w	r2, r0, r5
 8000764:	ea4e 0e02 	orr.w	lr, lr, r2
 8000768:	fa20 f304 	lsr.w	r3, r0, r4
 800076c:	fa01 f205 	lsl.w	r2, r1, r5
 8000770:	ea43 0302 	orr.w	r3, r3, r2
 8000774:	fa21 f004 	lsr.w	r0, r1, r4
 8000778:	f001 4100 	and.w	r1, r1, #2147483648	@ 0x80000000
 800077c:	fa21 f204 	lsr.w	r2, r1, r4
 8000780:	ea20 0002 	bic.w	r0, r0, r2
 8000784:	eb00 70d3 	add.w	r0, r0, r3, lsr #31
 8000788:	ea5e 0e43 	orrs.w	lr, lr, r3, lsl #1
 800078c:	bf08      	it	eq
 800078e:	ea20 70d3 	biceq.w	r0, r0, r3, lsr #31
 8000792:	bd70      	pop	{r4, r5, r6, pc}
 8000794:	f094 0f00 	teq	r4, #0
 8000798:	d10f      	bne.n	80007ba <__aeabi_dmul+0x1c2>
 800079a:	f001 4600 	and.w	r6, r1, #2147483648	@ 0x80000000
 800079e:	0040      	lsls	r0, r0, #1
 80007a0:	eb41 0101 	adc.w	r1, r1, r1
 80007a4:	f411 1f80 	tst.w	r1, #1048576	@ 0x100000
 80007a8:	bf08      	it	eq
 80007aa:	3c01      	subeq	r4, #1
 80007ac:	d0f7      	beq.n	800079e <__aeabi_dmul+0x1a6>
 80007ae:	ea41 0106 	orr.w	r1, r1, r6
 80007b2:	f095 0f00 	teq	r5, #0
 80007b6:	bf18      	it	ne
 80007b8:	4770      	bxne	lr
 80007ba:	f003 4600 	and.w	r6, r3, #2147483648	@ 0x80000000
 80007be:	0052      	lsls	r2, r2, #1
 80007c0:	eb43 0303 	adc.w	r3, r3, r3
 80007c4:	f413 1f80 	tst.w	r3, #1048576	@ 0x100000
 80007c8:	bf08      	it	eq
 80007ca:	3d01      	subeq	r5, #1
 80007cc:	d0f7      	beq.n	80007be <__aeabi_dmul+0x1c6>
 80007ce:	ea43 0306 	orr.w	r3, r3, r6
 80007d2:	4770      	bx	lr
 80007d4:	ea94 0f0c 	teq	r4, ip
 80007d8:	ea0c 5513 	and.w	r5, ip, r3, lsr #20
 80007dc:	bf18      	it	ne
 80007de:	ea95 0f0c 	teqne	r5, ip
 80007e2:	d00c      	beq.n	80007fe <__aeabi_dmul+0x206>
 80007e4:	ea50 0641 	orrs.w	r6, r0, r1, lsl #1
 80007e8:	bf18      	it	ne
 80007ea:	ea52 0643 	orrsne.w	r6, r2, r3, lsl #1
 80007ee:	d1d1      	bne.n	8000794 <__aeabi_dmul+0x19c>
 80007f0:	ea81 0103 	eor.w	r1, r1, r3
 80007f4:	f001 4100 	and.w	r1, r1, #2147483648	@ 0x80000000
 80007f8:	f04f 0000 	mov.w	r0, #0
 80007fc:	bd70      	pop	{r4, r5, r6, pc}
 80007fe:	ea50 0641 	orrs.w	r6, r0, r1, lsl #1
 8000802:	bf06      	itte	eq
 8000804:	4610      	moveq	r0, r2
 8000806:	4619      	moveq	r1, r3
 8000808:	ea52 0643 	orrsne.w	r6, r2, r3, lsl #1
 800080c:	d019      	beq.n	8000842 <__aeabi_dmul+0x24a>
 800080e:	ea94 0f0c 	teq	r4, ip
 8000812:	d102      	bne.n	800081a <__aeabi_dmul+0x222>
 8000814:	ea50 3601 	orrs.w	r6, r0, r1, lsl #12
 8000818:	d113      	bne.n	8000842 <__aeabi_dmul+0x24a>
 800081a:	ea95 0f0c 	teq	r5, ip
 800081e:	d105      	bne.n	800082c <__aeabi_dmul+0x234>
 8000820:	ea52 3603 	orrs.w	r6, r2, r3, lsl #12
 8000824:	bf1c      	itt	ne
 8000826:	4610      	movne	r0, r2
 8000828:	4619      	movne	r1, r3
 800082a:	d10a      	bne.n	8000842 <__aeabi_dmul+0x24a>
 800082c:	ea81 0103 	eor.w	r1, r1, r3
 8000830:	f001 4100 	and.w	r1, r1, #2147483648	@ 0x80000000
 8000834:	f041 41fe 	orr.w	r1, r1, #2130706432	@ 0x7f000000
 8000838:	f441 0170 	orr.w	r1, r1, #15728640	@ 0xf00000
 800083c:	f04f 0000 	mov.w	r0, #0
 8000840:	bd70      	pop	{r4, r5, r6, pc}
 8000842:	f041 41fe 	orr.w	r1, r1, #2130706432	@ 0x7f000000
 8000846:	f441 0178 	orr.w	r1, r1, #16252928	@ 0xf80000
 800084a:	bd70      	pop	{r4, r5, r6, pc}

0800084c <__aeabi_ddiv>:
 800084c:	b570      	push	{r4, r5, r6, lr}
 800084e:	f04f 0cff 	mov.w	ip, #255	@ 0xff
 8000852:	f44c 6ce0 	orr.w	ip, ip, #1792	@ 0x700
 8000856:	ea1c 5411 	ands.w	r4, ip, r1, lsr #20
 800085a:	bf1d      	ittte	ne
 800085c:	ea1c 5513 	andsne.w	r5, ip, r3, lsr #20
 8000860:	ea94 0f0c 	teqne	r4, ip
 8000864:	ea95 0f0c 	teqne	r5, ip
 8000868:	f000 f8a7 	bleq	80009ba <__aeabi_ddiv+0x16e>
 800086c:	eba4 0405 	sub.w	r4, r4, r5
 8000870:	ea81 0e03 	eor.w	lr, r1, r3
 8000874:	ea52 3503 	orrs.w	r5, r2, r3, lsl #12
 8000878:	ea4f 3101 	mov.w	r1, r1, lsl #12
 800087c:	f000 8088 	beq.w	8000990 <__aeabi_ddiv+0x144>
 8000880:	ea4f 3303 	mov.w	r3, r3, lsl #12
 8000884:	f04f 5580 	mov.w	r5, #268435456	@ 0x10000000
 8000888:	ea45 1313 	orr.w	r3, r5, r3, lsr #4
 800088c:	ea43 6312 	orr.w	r3, r3, r2, lsr #24
 8000890:	ea4f 2202 	mov.w	r2, r2, lsl #8
 8000894:	ea45 1511 	orr.w	r5, r5, r1, lsr #4
 8000898:	ea45 6510 	orr.w	r5, r5, r0, lsr #24
 800089c:	ea4f 2600 	mov.w	r6, r0, lsl #8
 80008a0:	f00e 4100 	and.w	r1, lr, #2147483648	@ 0x80000000
 80008a4:	429d      	cmp	r5, r3
 80008a6:	bf08      	it	eq
 80008a8:	4296      	cmpeq	r6, r2
 80008aa:	f144 04fd 	adc.w	r4, r4, #253	@ 0xfd
 80008ae:	f504 7440 	add.w	r4, r4, #768	@ 0x300
 80008b2:	d202      	bcs.n	80008ba <__aeabi_ddiv+0x6e>
 80008b4:	085b      	lsrs	r3, r3, #1
 80008b6:	ea4f 0232 	mov.w	r2, r2, rrx
 80008ba:	1ab6      	subs	r6, r6, r2
 80008bc:	eb65 0503 	sbc.w	r5, r5, r3
 80008c0:	085b      	lsrs	r3, r3, #1
 80008c2:	ea4f 0232 	mov.w	r2, r2, rrx
 80008c6:	f44f 1080 	mov.w	r0, #1048576	@ 0x100000
 80008ca:	f44f 2c00 	mov.w	ip, #524288	@ 0x80000
 80008ce:	ebb6 0e02 	subs.w	lr, r6, r2
 80008d2:	eb75 0e03 	sbcs.w	lr, r5, r3
 80008d6:	bf22      	ittt	cs
 80008d8:	1ab6      	subcs	r6, r6, r2
 80008da:	4675      	movcs	r5, lr
 80008dc:	ea40 000c 	orrcs.w	r0, r0, ip
 80008e0:	085b      	lsrs	r3, r3, #1
 80008e2:	ea4f 0232 	mov.w	r2, r2, rrx
 80008e6:	ebb6 0e02 	subs.w	lr, r6, r2
 80008ea:	eb75 0e03 	sbcs.w	lr, r5, r3
 80008ee:	bf22      	ittt	cs
 80008f0:	1ab6      	subcs	r6, r6, r2
 80008f2:	4675      	movcs	r5, lr
 80008f4:	ea40 005c 	orrcs.w	r0, r0, ip, lsr #1
 80008f8:	085b      	lsrs	r3, r3, #1
 80008fa:	ea4f 0232 	mov.w	r2, r2, rrx
 80008fe:	ebb6 0e02 	subs.w	lr, r6, r2
 8000902:	eb75 0e03 	sbcs.w	lr, r5, r3
 8000906:	bf22      	ittt	cs
 8000908:	1ab6      	subcs	r6, r6, r2
 800090a:	4675      	movcs	r5, lr
 800090c:	ea40 009c 	orrcs.w	r0, r0, ip, lsr #2
 8000910:	085b      	lsrs	r3, r3, #1
 8000912:	ea4f 0232 	mov.w	r2, r2, rrx
 8000916:	ebb6 0e02 	subs.w	lr, r6, r2
 800091a:	eb75 0e03 	sbcs.w	lr, r5, r3
 800091e:	bf22      	ittt	cs
 8000920:	1ab6      	subcs	r6, r6, r2
 8000922:	4675      	movcs	r5, lr
 8000924:	ea40 00dc 	orrcs.w	r0, r0, ip, lsr #3
 8000928:	ea55 0e06 	orrs.w	lr, r5, r6
 800092c:	d018      	beq.n	8000960 <__aeabi_ddiv+0x114>
 800092e:	ea4f 1505 	mov.w	r5, r5, lsl #4
 8000932:	ea45 7516 	orr.w	r5, r5, r6, lsr #28
 8000936:	ea4f 1606 	mov.w	r6, r6, lsl #4
 800093a:	ea4f 03c3 	mov.w	r3, r3, lsl #3
 800093e:	ea43 7352 	orr.w	r3, r3, r2, lsr #29
 8000942:	ea4f 02c2 	mov.w	r2, r2, lsl #3
 8000946:	ea5f 1c1c 	movs.w	ip, ip, lsr #4
 800094a:	d1c0      	bne.n	80008ce <__aeabi_ddiv+0x82>
 800094c:	f411 1f80 	tst.w	r1, #1048576	@ 0x100000
 8000950:	d10b      	bne.n	800096a <__aeabi_ddiv+0x11e>
 8000952:	ea41 0100 	orr.w	r1, r1, r0
 8000956:	f04f 0000 	mov.w	r0, #0
 800095a:	f04f 4c00 	mov.w	ip, #2147483648	@ 0x80000000
 800095e:	e7b6      	b.n	80008ce <__aeabi_ddiv+0x82>
 8000960:	f411 1f80 	tst.w	r1, #1048576	@ 0x100000
 8000964:	bf04      	itt	eq
 8000966:	4301      	orreq	r1, r0
 8000968:	2000      	moveq	r0, #0
 800096a:	f1b4 0cfd 	subs.w	ip, r4, #253	@ 0xfd
 800096e:	bf88      	it	hi
 8000970:	f5bc 6fe0 	cmphi.w	ip, #1792	@ 0x700
 8000974:	f63f aeaf 	bhi.w	80006d6 <__aeabi_dmul+0xde>
 8000978:	ebb5 0c03 	subs.w	ip, r5, r3
 800097c:	bf04      	itt	eq
 800097e:	ebb6 0c02 	subseq.w	ip, r6, r2
 8000982:	ea5f 0c50 	movseq.w	ip, r0, lsr #1
 8000986:	f150 0000 	adcs.w	r0, r0, #0
 800098a:	eb41 5104 	adc.w	r1, r1, r4, lsl #20
 800098e:	bd70      	pop	{r4, r5, r6, pc}
 8000990:	f00e 4e00 	and.w	lr, lr, #2147483648	@ 0x80000000
 8000994:	ea4e 3111 	orr.w	r1, lr, r1, lsr #12
 8000998:	eb14 045c 	adds.w	r4, r4, ip, lsr #1
 800099c:	bfc2      	ittt	gt
 800099e:	ebd4 050c 	rsbsgt	r5, r4, ip
 80009a2:	ea41 5104 	orrgt.w	r1, r1, r4, lsl #20
 80009a6:	bd70      	popgt	{r4, r5, r6, pc}
 80009a8:	f441 1180 	orr.w	r1, r1, #1048576	@ 0x100000
 80009ac:	f04f 0e00 	mov.w	lr, #0
 80009b0:	3c01      	subs	r4, #1
 80009b2:	e690      	b.n	80006d6 <__aeabi_dmul+0xde>
 80009b4:	ea45 0e06 	orr.w	lr, r5, r6
 80009b8:	e68d      	b.n	80006d6 <__aeabi_dmul+0xde>
 80009ba:	ea0c 5513 	and.w	r5, ip, r3, lsr #20
 80009be:	ea94 0f0c 	teq	r4, ip
 80009c2:	bf08      	it	eq
 80009c4:	ea95 0f0c 	teqeq	r5, ip
 80009c8:	f43f af3b 	beq.w	8000842 <__aeabi_dmul+0x24a>
 80009cc:	ea94 0f0c 	teq	r4, ip
 80009d0:	d10a      	bne.n	80009e8 <__aeabi_ddiv+0x19c>
 80009d2:	ea50 3401 	orrs.w	r4, r0, r1, lsl #12
 80009d6:	f47f af34 	bne.w	8000842 <__aeabi_dmul+0x24a>
 80009da:	ea95 0f0c 	teq	r5, ip
 80009de:	f47f af25 	bne.w	800082c <__aeabi_dmul+0x234>
 80009e2:	4610      	mov	r0, r2
 80009e4:	4619      	mov	r1, r3
 80009e6:	e72c      	b.n	8000842 <__aeabi_dmul+0x24a>
 80009e8:	ea95 0f0c 	teq	r5, ip
 80009ec:	d106      	bne.n	80009fc <__aeabi_ddiv+0x1b0>
 80009ee:	ea52 3503 	orrs.w	r5, r2, r3, lsl #12
 80009f2:	f43f aefd 	beq.w	80007f0 <__aeabi_dmul+0x1f8>
 80009f6:	4610      	mov	r0, r2
 80009f8:	4619      	mov	r1, r3
 80009fa:	e722      	b.n	8000842 <__aeabi_dmul+0x24a>
 80009fc:	ea50 0641 	orrs.w	r6, r0, r1, lsl #1
 8000a00:	bf18      	it	ne
 8000a02:	ea52 0643 	orrsne.w	r6, r2, r3, lsl #1
 8000a06:	f47f aec5 	bne.w	8000794 <__aeabi_dmul+0x19c>
 8000a0a:	ea50 0441 	orrs.w	r4, r0, r1, lsl #1
 8000a0e:	f47f af0d 	bne.w	800082c <__aeabi_dmul+0x234>
 8000a12:	ea52 0543 	orrs.w	r5, r2, r3, lsl #1
 8000a16:	f47f aeeb 	bne.w	80007f0 <__aeabi_dmul+0x1f8>
 8000a1a:	e712      	b.n	8000842 <__aeabi_dmul+0x24a>

08000a1c <__gedf2>:
 8000a1c:	f04f 3cff 	mov.w	ip, #4294967295
 8000a20:	e006      	b.n	8000a30 <__cmpdf2+0x4>
 8000a22:	bf00      	nop

08000a24 <__ledf2>:
 8000a24:	f04f 0c01 	mov.w	ip, #1
 8000a28:	e002      	b.n	8000a30 <__cmpdf2+0x4>
 8000a2a:	bf00      	nop

08000a2c <__cmpdf2>:
 8000a2c:	f04f 0c01 	mov.w	ip, #1
 8000a30:	f84d cd04 	str.w	ip, [sp, #-4]!
 8000a34:	ea4f 0c41 	mov.w	ip, r1, lsl #1
 8000a38:	ea7f 5c6c 	mvns.w	ip, ip, asr #21
 8000a3c:	ea4f 0c43 	mov.w	ip, r3, lsl #1
 8000a40:	bf18      	it	ne
 8000a42:	ea7f 5c6c 	mvnsne.w	ip, ip, asr #21
 8000a46:	d01b      	beq.n	8000a80 <__cmpdf2+0x54>
 8000a48:	b001      	add	sp, #4
 8000a4a:	ea50 0c41 	orrs.w	ip, r0, r1, lsl #1
 8000a4e:	bf0c      	ite	eq
 8000a50:	ea52 0c43 	orrseq.w	ip, r2, r3, lsl #1
 8000a54:	ea91 0f03 	teqne	r1, r3
 8000a58:	bf02      	ittt	eq
 8000a5a:	ea90 0f02 	teqeq	r0, r2
 8000a5e:	2000      	moveq	r0, #0
 8000a60:	4770      	bxeq	lr
 8000a62:	f110 0f00 	cmn.w	r0, #0
 8000a66:	ea91 0f03 	teq	r1, r3
 8000a6a:	bf58      	it	pl
 8000a6c:	4299      	cmppl	r1, r3
 8000a6e:	bf08      	it	eq
 8000a70:	4290      	cmpeq	r0, r2
 8000a72:	bf2c      	ite	cs
 8000a74:	17d8      	asrcs	r0, r3, #31
 8000a76:	ea6f 70e3 	mvncc.w	r0, r3, asr #31
 8000a7a:	f040 0001 	orr.w	r0, r0, #1
 8000a7e:	4770      	bx	lr
 8000a80:	ea4f 0c41 	mov.w	ip, r1, lsl #1
 8000a84:	ea7f 5c6c 	mvns.w	ip, ip, asr #21
 8000a88:	d102      	bne.n	8000a90 <__cmpdf2+0x64>
 8000a8a:	ea50 3c01 	orrs.w	ip, r0, r1, lsl #12
 8000a8e:	d107      	bne.n	8000aa0 <__cmpdf2+0x74>
 8000a90:	ea4f 0c43 	mov.w	ip, r3, lsl #1
 8000a94:	ea7f 5c6c 	mvns.w	ip, ip, asr #21
 8000a98:	d1d6      	bne.n	8000a48 <__cmpdf2+0x1c>
 8000a9a:	ea52 3c03 	orrs.w	ip, r2, r3, lsl #12
 8000a9e:	d0d3      	beq.n	8000a48 <__cmpdf2+0x1c>
 8000aa0:	f85d 0b04 	ldr.w	r0, [sp], #4
 8000aa4:	4770      	bx	lr
 8000aa6:	bf00      	nop

08000aa8 <__aeabi_cdrcmple>:
 8000aa8:	4684      	mov	ip, r0
 8000aaa:	4610      	mov	r0, r2
 8000aac:	4662      	mov	r2, ip
 8000aae:	468c      	mov	ip, r1
 8000ab0:	4619      	mov	r1, r3
 8000ab2:	4663      	mov	r3, ip
 8000ab4:	e000      	b.n	8000ab8 <__aeabi_cdcmpeq>
 8000ab6:	bf00      	nop

08000ab8 <__aeabi_cdcmpeq>:
 8000ab8:	b501      	push	{r0, lr}
 8000aba:	f7ff ffb7 	bl	8000a2c <__cmpdf2>
 8000abe:	2800      	cmp	r0, #0
 8000ac0:	bf48      	it	mi
 8000ac2:	f110 0f00 	cmnmi.w	r0, #0
 8000ac6:	bd01      	pop	{r0, pc}

08000ac8 <__aeabi_dcmpeq>:
 8000ac8:	f84d ed08 	str.w	lr, [sp, #-8]!
 8000acc:	f7ff fff4 	bl	8000ab8 <__aeabi_cdcmpeq>
 8000ad0:	bf0c      	ite	eq
 8000ad2:	2001      	moveq	r0, #1
 8000ad4:	2000      	movne	r0, #0
 8000ad6:	f85d fb08 	ldr.w	pc, [sp], #8
 8000ada:	bf00      	nop

08000adc <__aeabi_dcmplt>:
 8000adc:	f84d ed08 	str.w	lr, [sp, #-8]!
 8000ae0:	f7ff ffea 	bl	8000ab8 <__aeabi_cdcmpeq>
 8000ae4:	bf34      	ite	cc
 8000ae6:	2001      	movcc	r0, #1
 8000ae8:	2000      	movcs	r0, #0
 8000aea:	f85d fb08 	ldr.w	pc, [sp], #8
 8000aee:	bf00      	nop

08000af0 <__aeabi_dcmple>:
 8000af0:	f84d ed08 	str.w	lr, [sp, #-8]!
 8000af4:	f7ff ffe0 	bl	8000ab8 <__aeabi_cdcmpeq>
 8000af8:	bf94      	ite	ls
 8000afa:	2001      	movls	r0, #1
 8000afc:	2000      	movhi	r0, #0
 8000afe:	f85d fb08 	ldr.w	pc, [sp], #8
 8000b02:	bf00      	nop

08000b04 <__aeabi_dcmpge>:
 8000b04:	f84d ed08 	str.w	lr, [sp, #-8]!
 8000b08:	f7ff ffce 	bl	8000aa8 <__aeabi_cdrcmple>
 8000b0c:	bf94      	ite	ls
 8000b0e:	2001      	movls	r0, #1
 8000b10:	2000      	movhi	r0, #0
 8000b12:	f85d fb08 	ldr.w	pc, [sp], #8
 8000b16:	bf00      	nop

08000b18 <__aeabi_dcmpgt>:
 8000b18:	f84d ed08 	str.w	lr, [sp, #-8]!
 8000b1c:	f7ff ffc4 	bl	8000aa8 <__aeabi_cdrcmple>
 8000b20:	bf34      	ite	cc
 8000b22:	2001      	movcc	r0, #1
 8000b24:	2000      	movcs	r0, #0
 8000b26:	f85d fb08 	ldr.w	pc, [sp], #8
 8000b2a:	bf00      	nop

08000b2c <__aeabi_dcmpun>:
 8000b2c:	ea4f 0c41 	mov.w	ip, r1, lsl #1
 8000b30:	ea7f 5c6c 	mvns.w	ip, ip, asr #21
 8000b34:	d102      	bne.n	8000b3c <__aeabi_dcmpun+0x10>
 8000b36:	ea50 3c01 	orrs.w	ip, r0, r1, lsl #12
 8000b3a:	d10a      	bne.n	8000b52 <__aeabi_dcmpun+0x26>
 8000b3c:	ea4f 0c43 	mov.w	ip, r3, lsl #1
 8000b40:	ea7f 5c6c 	mvns.w	ip, ip, asr #21
 8000b44:	d102      	bne.n	8000b4c <__aeabi_dcmpun+0x20>
 8000b46:	ea52 3c03 	orrs.w	ip, r2, r3, lsl #12
 8000b4a:	d102      	bne.n	8000b52 <__aeabi_dcmpun+0x26>
 8000b4c:	f04f 0000 	mov.w	r0, #0
 8000b50:	4770      	bx	lr
 8000b52:	f04f 0001 	mov.w	r0, #1
 8000b56:	4770      	bx	lr

08000b58 <__aeabi_d2iz>:
 8000b58:	ea4f 0241 	mov.w	r2, r1, lsl #1
 8000b5c:	f512 1200 	adds.w	r2, r2, #2097152	@ 0x200000
 8000b60:	d215      	bcs.n	8000b8e <__aeabi_d2iz+0x36>
 8000b62:	d511      	bpl.n	8000b88 <__aeabi_d2iz+0x30>
 8000b64:	f46f 7378 	mvn.w	r3, #992	@ 0x3e0
 8000b68:	ebb3 5262 	subs.w	r2, r3, r2, asr #21
 8000b6c:	d912      	bls.n	8000b94 <__aeabi_d2iz+0x3c>
 8000b6e:	ea4f 23c1 	mov.w	r3, r1, lsl #11
 8000b72:	f043 4300 	orr.w	r3, r3, #2147483648	@ 0x80000000
 8000b76:	ea43 5350 	orr.w	r3, r3, r0, lsr #21
 8000b7a:	f011 4f00 	tst.w	r1, #2147483648	@ 0x80000000
 8000b7e:	fa23 f002 	lsr.w	r0, r3, r2
 8000b82:	bf18      	it	ne
 8000b84:	4240      	negne	r0, r0
 8000b86:	4770      	bx	lr
 8000b88:	f04f 0000 	mov.w	r0, #0
 8000b8c:	4770      	bx	lr
 8000b8e:	ea50 3001 	orrs.w	r0, r0, r1, lsl #12
 8000b92:	d105      	bne.n	8000ba0 <__aeabi_d2iz+0x48>
 8000b94:	f011 4000 	ands.w	r0, r1, #2147483648	@ 0x80000000
 8000b98:	bf08      	it	eq
 8000b9a:	f06f 4000 	mvneq.w	r0, #2147483648	@ 0x80000000
 8000b9e:	4770      	bx	lr
 8000ba0:	f04f 0000 	mov.w	r0, #0
 8000ba4:	4770      	bx	lr
 8000ba6:	bf00      	nop

08000ba8 <main>:
/**
  * @brief  The application entry point.
  * @retval int
  */
int main(void)
{
 8000ba8:	b5b0      	push	{r4, r5, r7, lr}
 8000baa:	b088      	sub	sp, #32
 8000bac:	af02      	add	r7, sp, #8
  /* USER CODE END 1 */

  /* MCU Configuration--------------------------------------------------------*/

  /* Reset of all peripherals, Initializes the Flash interface and the Systick. */
  HAL_Init();
 8000bae:	f000 fcbf 	bl	8001530 <HAL_Init>
  /* USER CODE BEGIN Init */

  /* USER CODE END Init */

  /* Configure the system clock */
  SystemClock_Config();
 8000bb2:	f000 f873 	bl	8000c9c <SystemClock_Config>
  /* USER CODE BEGIN SysInit */

  /* USER CODE END SysInit */

  /* Initialize all configured peripherals */
  MX_GPIO_Init();
 8000bb6:	f000 f9e1 	bl	8000f7c <MX_GPIO_Init>
  MX_USART2_UART_Init();
 8000bba:	f000 f9af 	bl	8000f1c <MX_USART2_UART_Init>
  MX_TIM2_Init();
 8000bbe:	f000 f937 	bl	8000e30 <MX_TIM2_Init>
  MX_ADC1_Init();
 8000bc2:	f000 f8c5 	bl	8000d50 <MX_ADC1_Init>
  /* USER CODE BEGIN 2 */
  //HAL_TIM_Base_Start_IT(&htim2);
  const char message[] = "STM32 gestartet!\r\n";
 8000bc6:	4b2b      	ldr	r3, [pc, #172]	@ (8000c74 <main+0xcc>)
 8000bc8:	463c      	mov	r4, r7
 8000bca:	461d      	mov	r5, r3
 8000bcc:	cd0f      	ldmia	r5!, {r0, r1, r2, r3}
 8000bce:	c40f      	stmia	r4!, {r0, r1, r2, r3}
 8000bd0:	682b      	ldr	r3, [r5, #0]
 8000bd2:	461a      	mov	r2, r3
 8000bd4:	8022      	strh	r2, [r4, #0]
 8000bd6:	3402      	adds	r4, #2
 8000bd8:	0c1b      	lsrs	r3, r3, #16
 8000bda:	7023      	strb	r3, [r4, #0]
  HAL_UART_Transmit(&huart2,
 8000bdc:	4639      	mov	r1, r7
 8000bde:	f04f 33ff 	mov.w	r3, #4294967295
 8000be2:	2212      	movs	r2, #18
 8000be4:	4824      	ldr	r0, [pc, #144]	@ (8000c78 <main+0xd0>)
 8000be6:	f004 fceb 	bl	80055c0 <HAL_UART_Transmit>
                    (uint8_t*)message,
                    strlen(message),
                    HAL_MAX_DELAY);
  HAL_TIM_PWM_Start(&htim2, TIM_CHANNEL_1);
 8000bea:	2100      	movs	r1, #0
 8000bec:	4823      	ldr	r0, [pc, #140]	@ (8000c7c <main+0xd4>)
 8000bee:	f003 fc2f 	bl	8004450 <HAL_TIM_PWM_Start>

	  while (1)
	  {

    /* USER CODE END WHILE */
		  HAL_ADC_Start(&hadc1);
 8000bf2:	4823      	ldr	r0, [pc, #140]	@ (8000c80 <main+0xd8>)
 8000bf4:	f000 feb8 	bl	8001968 <HAL_ADC_Start>
		  voltage = (adcValue * 3.3f) / 4095.0f;
 8000bf8:	4b22      	ldr	r3, [pc, #136]	@ (8000c84 <main+0xdc>)
 8000bfa:	681b      	ldr	r3, [r3, #0]
 8000bfc:	ee07 3a90 	vmov	s15, r3
 8000c00:	eef8 7a67 	vcvt.f32.u32	s15, s15
 8000c04:	ed9f 7a20 	vldr	s14, [pc, #128]	@ 8000c88 <main+0xe0>
 8000c08:	ee27 7a87 	vmul.f32	s14, s15, s14
 8000c0c:	eddf 6a1f 	vldr	s13, [pc, #124]	@ 8000c8c <main+0xe4>
 8000c10:	eec7 7a26 	vdiv.f32	s15, s14, s13
 8000c14:	4b1e      	ldr	r3, [pc, #120]	@ (8000c90 <main+0xe8>)
 8000c16:	edc3 7a00 	vstr	s15, [r3]

		  if (HAL_ADC_PollForConversion(&hadc1, 100) == HAL_OK)
 8000c1a:	2164      	movs	r1, #100	@ 0x64
 8000c1c:	4818      	ldr	r0, [pc, #96]	@ (8000c80 <main+0xd8>)
 8000c1e:	f000 ff8f 	bl	8001b40 <HAL_ADC_PollForConversion>
 8000c22:	4603      	mov	r3, r0
 8000c24:	2b00      	cmp	r3, #0
 8000c26:	d11e      	bne.n	8000c66 <main+0xbe>
		  {
		      adcValue = HAL_ADC_GetValue(&hadc1);
 8000c28:	4815      	ldr	r0, [pc, #84]	@ (8000c80 <main+0xd8>)
 8000c2a:	f001 f857 	bl	8001cdc <HAL_ADC_GetValue>
 8000c2e:	4603      	mov	r3, r0
 8000c30:	4a14      	ldr	r2, [pc, #80]	@ (8000c84 <main+0xdc>)
 8000c32:	6013      	str	r3, [r2, #0]

		      int length = snprintf(
 8000c34:	4b13      	ldr	r3, [pc, #76]	@ (8000c84 <main+0xdc>)
 8000c36:	681c      	ldr	r4, [r3, #0]
 8000c38:	4b15      	ldr	r3, [pc, #84]	@ (8000c90 <main+0xe8>)
 8000c3a:	681b      	ldr	r3, [r3, #0]
 8000c3c:	4618      	mov	r0, r3
 8000c3e:	f7ff fc83 	bl	8000548 <__aeabi_f2d>
 8000c42:	4602      	mov	r2, r0
 8000c44:	460b      	mov	r3, r1
 8000c46:	e9cd 2300 	strd	r2, r3, [sp]
 8000c4a:	4623      	mov	r3, r4
 8000c4c:	4a11      	ldr	r2, [pc, #68]	@ (8000c94 <main+0xec>)
 8000c4e:	2140      	movs	r1, #64	@ 0x40
 8000c50:	4811      	ldr	r0, [pc, #68]	@ (8000c98 <main+0xf0>)
 8000c52:	f005 fdaf 	bl	80067b4 <sniprintf>
 8000c56:	6178      	str	r0, [r7, #20]
				  "ADC: %lu   Voltage: %.2f V\r\n",
		          adcValue,
				  voltage
		      );

		      HAL_UART_Transmit(
 8000c58:	697b      	ldr	r3, [r7, #20]
 8000c5a:	b29a      	uxth	r2, r3
 8000c5c:	2364      	movs	r3, #100	@ 0x64
 8000c5e:	490e      	ldr	r1, [pc, #56]	@ (8000c98 <main+0xf0>)
 8000c60:	4805      	ldr	r0, [pc, #20]	@ (8000c78 <main+0xd0>)
 8000c62:	f004 fcad 	bl	80055c0 <HAL_UART_Transmit>
		          length,
		          100
		      );
		  }

		  HAL_ADC_Stop(&hadc1);
 8000c66:	4806      	ldr	r0, [pc, #24]	@ (8000c80 <main+0xd8>)
 8000c68:	f000 ff34 	bl	8001ad4 <HAL_ADC_Stop>
		  HAL_Delay(200);
 8000c6c:	20c8      	movs	r0, #200	@ 0xc8
 8000c6e:	f000 fcc5 	bl	80015fc <HAL_Delay>
		  HAL_ADC_Start(&hadc1);
 8000c72:	e7be      	b.n	8000bf2 <main+0x4a>
 8000c74:	08008a98 	.word	0x08008a98
 8000c78:	2000028c 	.word	0x2000028c
 8000c7c:	20000240 	.word	0x20000240
 8000c80:	200001f0 	.word	0x200001f0
 8000c84:	20000318 	.word	0x20000318
 8000c88:	40533333 	.word	0x40533333
 8000c8c:	457ff000 	.word	0x457ff000
 8000c90:	2000035c 	.word	0x2000035c
 8000c94:	08008a78 	.word	0x08008a78
 8000c98:	2000031c 	.word	0x2000031c

08000c9c <SystemClock_Config>:
/**
  * @brief System Clock Configuration
  * @retval None
  */
void SystemClock_Config(void)
{
 8000c9c:	b580      	push	{r7, lr}
 8000c9e:	b096      	sub	sp, #88	@ 0x58
 8000ca0:	af00      	add	r7, sp, #0
  RCC_OscInitTypeDef RCC_OscInitStruct = {0};
 8000ca2:	f107 0330 	add.w	r3, r7, #48	@ 0x30
 8000ca6:	2228      	movs	r2, #40	@ 0x28
 8000ca8:	2100      	movs	r1, #0
 8000caa:	4618      	mov	r0, r3
 8000cac:	f005 fdfc 	bl	80068a8 <memset>
  RCC_ClkInitTypeDef RCC_ClkInitStruct = {0};
 8000cb0:	f107 031c 	add.w	r3, r7, #28
 8000cb4:	2200      	movs	r2, #0
 8000cb6:	601a      	str	r2, [r3, #0]
 8000cb8:	605a      	str	r2, [r3, #4]
 8000cba:	609a      	str	r2, [r3, #8]
 8000cbc:	60da      	str	r2, [r3, #12]
 8000cbe:	611a      	str	r2, [r3, #16]
  RCC_PeriphCLKInitTypeDef PeriphClkInit = {0};
 8000cc0:	463b      	mov	r3, r7
 8000cc2:	2200      	movs	r2, #0
 8000cc4:	601a      	str	r2, [r3, #0]
 8000cc6:	605a      	str	r2, [r3, #4]
 8000cc8:	609a      	str	r2, [r3, #8]
 8000cca:	60da      	str	r2, [r3, #12]
 8000ccc:	611a      	str	r2, [r3, #16]
 8000cce:	615a      	str	r2, [r3, #20]
 8000cd0:	619a      	str	r2, [r3, #24]

  /** Initializes the RCC Oscillators according to the specified parameters
  * in the RCC_OscInitTypeDef structure.
  */
  RCC_OscInitStruct.OscillatorType = RCC_OSCILLATORTYPE_HSI;
 8000cd2:	2302      	movs	r3, #2
 8000cd4:	633b      	str	r3, [r7, #48]	@ 0x30
  RCC_OscInitStruct.HSIState = RCC_HSI_ON;
 8000cd6:	2301      	movs	r3, #1
 8000cd8:	643b      	str	r3, [r7, #64]	@ 0x40
  RCC_OscInitStruct.HSICalibrationValue = RCC_HSICALIBRATION_DEFAULT;
 8000cda:	2310      	movs	r3, #16
 8000cdc:	647b      	str	r3, [r7, #68]	@ 0x44
  RCC_OscInitStruct.PLL.PLLState = RCC_PLL_ON;
 8000cde:	2302      	movs	r3, #2
 8000ce0:	64fb      	str	r3, [r7, #76]	@ 0x4c
  RCC_OscInitStruct.PLL.PLLSource = RCC_PLLSOURCE_HSI;
 8000ce2:	2300      	movs	r3, #0
 8000ce4:	653b      	str	r3, [r7, #80]	@ 0x50
  RCC_OscInitStruct.PLL.PLLMUL = RCC_PLL_MUL16;
 8000ce6:	f44f 1360 	mov.w	r3, #3670016	@ 0x380000
 8000cea:	657b      	str	r3, [r7, #84]	@ 0x54
  if (HAL_RCC_OscConfig(&RCC_OscInitStruct) != HAL_OK)
 8000cec:	f107 0330 	add.w	r3, r7, #48	@ 0x30
 8000cf0:	4618      	mov	r0, r3
 8000cf2:	f001 ffa1 	bl	8002c38 <HAL_RCC_OscConfig>
 8000cf6:	4603      	mov	r3, r0
 8000cf8:	2b00      	cmp	r3, #0
 8000cfa:	d001      	beq.n	8000d00 <SystemClock_Config+0x64>
  {
    Error_Handler();
 8000cfc:	f000 f9d4 	bl	80010a8 <Error_Handler>
  }

  /** Initializes the CPU, AHB and APB buses clocks
  */
  RCC_ClkInitStruct.ClockType = RCC_CLOCKTYPE_HCLK|RCC_CLOCKTYPE_SYSCLK
 8000d00:	230f      	movs	r3, #15
 8000d02:	61fb      	str	r3, [r7, #28]
                              |RCC_CLOCKTYPE_PCLK1|RCC_CLOCKTYPE_PCLK2;
  RCC_ClkInitStruct.SYSCLKSource = RCC_SYSCLKSOURCE_PLLCLK;
 8000d04:	2302      	movs	r3, #2
 8000d06:	623b      	str	r3, [r7, #32]
  RCC_ClkInitStruct.AHBCLKDivider = RCC_SYSCLK_DIV1;
 8000d08:	2300      	movs	r3, #0
 8000d0a:	627b      	str	r3, [r7, #36]	@ 0x24
  RCC_ClkInitStruct.APB1CLKDivider = RCC_HCLK_DIV2;
 8000d0c:	f44f 6380 	mov.w	r3, #1024	@ 0x400
 8000d10:	62bb      	str	r3, [r7, #40]	@ 0x28
  RCC_ClkInitStruct.APB2CLKDivider = RCC_HCLK_DIV1;
 8000d12:	2300      	movs	r3, #0
 8000d14:	62fb      	str	r3, [r7, #44]	@ 0x2c

  if (HAL_RCC_ClockConfig(&RCC_ClkInitStruct, FLASH_LATENCY_2) != HAL_OK)
 8000d16:	f107 031c 	add.w	r3, r7, #28
 8000d1a:	2102      	movs	r1, #2
 8000d1c:	4618      	mov	r0, r3
 8000d1e:	f002 ff99 	bl	8003c54 <HAL_RCC_ClockConfig>
 8000d22:	4603      	mov	r3, r0
 8000d24:	2b00      	cmp	r3, #0
 8000d26:	d001      	beq.n	8000d2c <SystemClock_Config+0x90>
  {
    Error_Handler();
 8000d28:	f000 f9be 	bl	80010a8 <Error_Handler>
  }
  PeriphClkInit.PeriphClockSelection = RCC_PERIPHCLK_ADC12;
 8000d2c:	2380      	movs	r3, #128	@ 0x80
 8000d2e:	603b      	str	r3, [r7, #0]
  PeriphClkInit.Adc12ClockSelection = RCC_ADC12PLLCLK_DIV1;
 8000d30:	f44f 7380 	mov.w	r3, #256	@ 0x100
 8000d34:	613b      	str	r3, [r7, #16]
  if (HAL_RCCEx_PeriphCLKConfig(&PeriphClkInit) != HAL_OK)
 8000d36:	463b      	mov	r3, r7
 8000d38:	4618      	mov	r0, r3
 8000d3a:	f003 f99d 	bl	8004078 <HAL_RCCEx_PeriphCLKConfig>
 8000d3e:	4603      	mov	r3, r0
 8000d40:	2b00      	cmp	r3, #0
 8000d42:	d001      	beq.n	8000d48 <SystemClock_Config+0xac>
  {
    Error_Handler();
 8000d44:	f000 f9b0 	bl	80010a8 <Error_Handler>
  }
}
 8000d48:	bf00      	nop
 8000d4a:	3758      	adds	r7, #88	@ 0x58
 8000d4c:	46bd      	mov	sp, r7
 8000d4e:	bd80      	pop	{r7, pc}

08000d50 <MX_ADC1_Init>:
  * @brief ADC1 Initialization Function
  * @param None
  * @retval None
  */
static void MX_ADC1_Init(void)
{
 8000d50:	b580      	push	{r7, lr}
 8000d52:	b08a      	sub	sp, #40	@ 0x28
 8000d54:	af00      	add	r7, sp, #0

  /* USER CODE BEGIN ADC1_Init 0 */

  /* USER CODE END ADC1_Init 0 */

  ADC_MultiModeTypeDef multimode = {0};
 8000d56:	f107 031c 	add.w	r3, r7, #28
 8000d5a:	2200      	movs	r2, #0
 8000d5c:	601a      	str	r2, [r3, #0]
 8000d5e:	605a      	str	r2, [r3, #4]
 8000d60:	609a      	str	r2, [r3, #8]
  ADC_ChannelConfTypeDef sConfig = {0};
 8000d62:	1d3b      	adds	r3, r7, #4
 8000d64:	2200      	movs	r2, #0
 8000d66:	601a      	str	r2, [r3, #0]
 8000d68:	605a      	str	r2, [r3, #4]
 8000d6a:	609a      	str	r2, [r3, #8]
 8000d6c:	60da      	str	r2, [r3, #12]
 8000d6e:	611a      	str	r2, [r3, #16]
 8000d70:	615a      	str	r2, [r3, #20]

  /* USER CODE END ADC1_Init 1 */

  /** Common config
  */
  hadc1.Instance = ADC1;
 8000d72:	4b2e      	ldr	r3, [pc, #184]	@ (8000e2c <MX_ADC1_Init+0xdc>)
 8000d74:	f04f 42a0 	mov.w	r2, #1342177280	@ 0x50000000
 8000d78:	601a      	str	r2, [r3, #0]
  hadc1.Init.ClockPrescaler = ADC_CLOCK_ASYNC_DIV1;
 8000d7a:	4b2c      	ldr	r3, [pc, #176]	@ (8000e2c <MX_ADC1_Init+0xdc>)
 8000d7c:	2200      	movs	r2, #0
 8000d7e:	605a      	str	r2, [r3, #4]
  hadc1.Init.Resolution = ADC_RESOLUTION_12B;
 8000d80:	4b2a      	ldr	r3, [pc, #168]	@ (8000e2c <MX_ADC1_Init+0xdc>)
 8000d82:	2200      	movs	r2, #0
 8000d84:	609a      	str	r2, [r3, #8]
  hadc1.Init.ScanConvMode = ADC_SCAN_DISABLE;
 8000d86:	4b29      	ldr	r3, [pc, #164]	@ (8000e2c <MX_ADC1_Init+0xdc>)
 8000d88:	2200      	movs	r2, #0
 8000d8a:	611a      	str	r2, [r3, #16]
  hadc1.Init.ContinuousConvMode = DISABLE;
 8000d8c:	4b27      	ldr	r3, [pc, #156]	@ (8000e2c <MX_ADC1_Init+0xdc>)
 8000d8e:	2200      	movs	r2, #0
 8000d90:	765a      	strb	r2, [r3, #25]
  hadc1.Init.DiscontinuousConvMode = DISABLE;
 8000d92:	4b26      	ldr	r3, [pc, #152]	@ (8000e2c <MX_ADC1_Init+0xdc>)
 8000d94:	2200      	movs	r2, #0
 8000d96:	f883 2020 	strb.w	r2, [r3, #32]
  hadc1.Init.ExternalTrigConvEdge = ADC_EXTERNALTRIGCONVEDGE_NONE;
 8000d9a:	4b24      	ldr	r3, [pc, #144]	@ (8000e2c <MX_ADC1_Init+0xdc>)
 8000d9c:	2200      	movs	r2, #0
 8000d9e:	62da      	str	r2, [r3, #44]	@ 0x2c
  hadc1.Init.ExternalTrigConv = ADC_SOFTWARE_START;
 8000da0:	4b22      	ldr	r3, [pc, #136]	@ (8000e2c <MX_ADC1_Init+0xdc>)
 8000da2:	2201      	movs	r2, #1
 8000da4:	629a      	str	r2, [r3, #40]	@ 0x28
  hadc1.Init.DataAlign = ADC_DATAALIGN_RIGHT;
 8000da6:	4b21      	ldr	r3, [pc, #132]	@ (8000e2c <MX_ADC1_Init+0xdc>)
 8000da8:	2200      	movs	r2, #0
 8000daa:	60da      	str	r2, [r3, #12]
  hadc1.Init.NbrOfConversion = 1;
 8000dac:	4b1f      	ldr	r3, [pc, #124]	@ (8000e2c <MX_ADC1_Init+0xdc>)
 8000dae:	2201      	movs	r2, #1
 8000db0:	61da      	str	r2, [r3, #28]
  hadc1.Init.DMAContinuousRequests = DISABLE;
 8000db2:	4b1e      	ldr	r3, [pc, #120]	@ (8000e2c <MX_ADC1_Init+0xdc>)
 8000db4:	2200      	movs	r2, #0
 8000db6:	f883 2030 	strb.w	r2, [r3, #48]	@ 0x30
  hadc1.Init.EOCSelection = ADC_EOC_SINGLE_CONV;
 8000dba:	4b1c      	ldr	r3, [pc, #112]	@ (8000e2c <MX_ADC1_Init+0xdc>)
 8000dbc:	2204      	movs	r2, #4
 8000dbe:	615a      	str	r2, [r3, #20]
  hadc1.Init.LowPowerAutoWait = DISABLE;
 8000dc0:	4b1a      	ldr	r3, [pc, #104]	@ (8000e2c <MX_ADC1_Init+0xdc>)
 8000dc2:	2200      	movs	r2, #0
 8000dc4:	761a      	strb	r2, [r3, #24]
  hadc1.Init.Overrun = ADC_OVR_DATA_OVERWRITTEN;
 8000dc6:	4b19      	ldr	r3, [pc, #100]	@ (8000e2c <MX_ADC1_Init+0xdc>)
 8000dc8:	2200      	movs	r2, #0
 8000dca:	635a      	str	r2, [r3, #52]	@ 0x34
  if (HAL_ADC_Init(&hadc1) != HAL_OK)
 8000dcc:	4817      	ldr	r0, [pc, #92]	@ (8000e2c <MX_ADC1_Init+0xdc>)
 8000dce:	f000 fc39 	bl	8001644 <HAL_ADC_Init>
 8000dd2:	4603      	mov	r3, r0
 8000dd4:	2b00      	cmp	r3, #0
 8000dd6:	d001      	beq.n	8000ddc <MX_ADC1_Init+0x8c>
  {
    Error_Handler();
 8000dd8:	f000 f966 	bl	80010a8 <Error_Handler>
  }

  /** Configure the ADC multi-mode
  */
  multimode.Mode = ADC_MODE_INDEPENDENT;
 8000ddc:	2300      	movs	r3, #0
 8000dde:	61fb      	str	r3, [r7, #28]
  if (HAL_ADCEx_MultiModeConfigChannel(&hadc1, &multimode) != HAL_OK)
 8000de0:	f107 031c 	add.w	r3, r7, #28
 8000de4:	4619      	mov	r1, r3
 8000de6:	4811      	ldr	r0, [pc, #68]	@ (8000e2c <MX_ADC1_Init+0xdc>)
 8000de8:	f001 fa44 	bl	8002274 <HAL_ADCEx_MultiModeConfigChannel>
 8000dec:	4603      	mov	r3, r0
 8000dee:	2b00      	cmp	r3, #0
 8000df0:	d001      	beq.n	8000df6 <MX_ADC1_Init+0xa6>
  {
    Error_Handler();
 8000df2:	f000 f959 	bl	80010a8 <Error_Handler>
  }

  /** Configure Regular Channel
  */
  sConfig.Channel = ADC_CHANNEL_1;
 8000df6:	2301      	movs	r3, #1
 8000df8:	607b      	str	r3, [r7, #4]
  sConfig.Rank = ADC_REGULAR_RANK_1;
 8000dfa:	2301      	movs	r3, #1
 8000dfc:	60bb      	str	r3, [r7, #8]
  sConfig.SingleDiff = ADC_SINGLE_ENDED;
 8000dfe:	2300      	movs	r3, #0
 8000e00:	613b      	str	r3, [r7, #16]
  sConfig.SamplingTime = ADC_SAMPLETIME_1CYCLE_5;
 8000e02:	2300      	movs	r3, #0
 8000e04:	60fb      	str	r3, [r7, #12]
  sConfig.OffsetNumber = ADC_OFFSET_NONE;
 8000e06:	2300      	movs	r3, #0
 8000e08:	617b      	str	r3, [r7, #20]
  sConfig.Offset = 0;
 8000e0a:	2300      	movs	r3, #0
 8000e0c:	61bb      	str	r3, [r7, #24]
  if (HAL_ADC_ConfigChannel(&hadc1, &sConfig) != HAL_OK)
 8000e0e:	1d3b      	adds	r3, r7, #4
 8000e10:	4619      	mov	r1, r3
 8000e12:	4806      	ldr	r0, [pc, #24]	@ (8000e2c <MX_ADC1_Init+0xdc>)
 8000e14:	f000 ff70 	bl	8001cf8 <HAL_ADC_ConfigChannel>
 8000e18:	4603      	mov	r3, r0
 8000e1a:	2b00      	cmp	r3, #0
 8000e1c:	d001      	beq.n	8000e22 <MX_ADC1_Init+0xd2>
  {
    Error_Handler();
 8000e1e:	f000 f943 	bl	80010a8 <Error_Handler>
  }
  /* USER CODE BEGIN ADC1_Init 2 */

  /* USER CODE END ADC1_Init 2 */

}
 8000e22:	bf00      	nop
 8000e24:	3728      	adds	r7, #40	@ 0x28
 8000e26:	46bd      	mov	sp, r7
 8000e28:	bd80      	pop	{r7, pc}
 8000e2a:	bf00      	nop
 8000e2c:	200001f0 	.word	0x200001f0

08000e30 <MX_TIM2_Init>:
  * @brief TIM2 Initialization Function
  * @param None
  * @retval None
  */
static void MX_TIM2_Init(void)
{
 8000e30:	b580      	push	{r7, lr}
 8000e32:	b08e      	sub	sp, #56	@ 0x38
 8000e34:	af00      	add	r7, sp, #0

  /* USER CODE BEGIN TIM2_Init 0 */

  /* USER CODE END TIM2_Init 0 */

  TIM_ClockConfigTypeDef sClockSourceConfig = {0};
 8000e36:	f107 0328 	add.w	r3, r7, #40	@ 0x28
 8000e3a:	2200      	movs	r2, #0
 8000e3c:	601a      	str	r2, [r3, #0]
 8000e3e:	605a      	str	r2, [r3, #4]
 8000e40:	609a      	str	r2, [r3, #8]
 8000e42:	60da      	str	r2, [r3, #12]
  TIM_MasterConfigTypeDef sMasterConfig = {0};
 8000e44:	f107 031c 	add.w	r3, r7, #28
 8000e48:	2200      	movs	r2, #0
 8000e4a:	601a      	str	r2, [r3, #0]
 8000e4c:	605a      	str	r2, [r3, #4]
 8000e4e:	609a      	str	r2, [r3, #8]
  TIM_OC_InitTypeDef sConfigOC = {0};
 8000e50:	463b      	mov	r3, r7
 8000e52:	2200      	movs	r2, #0
 8000e54:	601a      	str	r2, [r3, #0]
 8000e56:	605a      	str	r2, [r3, #4]
 8000e58:	609a      	str	r2, [r3, #8]
 8000e5a:	60da      	str	r2, [r3, #12]
 8000e5c:	611a      	str	r2, [r3, #16]
 8000e5e:	615a      	str	r2, [r3, #20]
 8000e60:	619a      	str	r2, [r3, #24]

  /* USER CODE BEGIN TIM2_Init 1 */

  /* USER CODE END TIM2_Init 1 */
  htim2.Instance = TIM2;
 8000e62:	4b2d      	ldr	r3, [pc, #180]	@ (8000f18 <MX_TIM2_Init+0xe8>)
 8000e64:	f04f 4280 	mov.w	r2, #1073741824	@ 0x40000000
 8000e68:	601a      	str	r2, [r3, #0]
  htim2.Init.Prescaler = 63;
 8000e6a:	4b2b      	ldr	r3, [pc, #172]	@ (8000f18 <MX_TIM2_Init+0xe8>)
 8000e6c:	223f      	movs	r2, #63	@ 0x3f
 8000e6e:	605a      	str	r2, [r3, #4]
  htim2.Init.CounterMode = TIM_COUNTERMODE_UP;
 8000e70:	4b29      	ldr	r3, [pc, #164]	@ (8000f18 <MX_TIM2_Init+0xe8>)
 8000e72:	2200      	movs	r2, #0
 8000e74:	609a      	str	r2, [r3, #8]
  htim2.Init.Period = 999;
 8000e76:	4b28      	ldr	r3, [pc, #160]	@ (8000f18 <MX_TIM2_Init+0xe8>)
 8000e78:	f240 32e7 	movw	r2, #999	@ 0x3e7
 8000e7c:	60da      	str	r2, [r3, #12]
  htim2.Init.ClockDivision = TIM_CLOCKDIVISION_DIV1;
 8000e7e:	4b26      	ldr	r3, [pc, #152]	@ (8000f18 <MX_TIM2_Init+0xe8>)
 8000e80:	2200      	movs	r2, #0
 8000e82:	611a      	str	r2, [r3, #16]
  htim2.Init.AutoReloadPreload = TIM_AUTORELOAD_PRELOAD_DISABLE;
 8000e84:	4b24      	ldr	r3, [pc, #144]	@ (8000f18 <MX_TIM2_Init+0xe8>)
 8000e86:	2200      	movs	r2, #0
 8000e88:	619a      	str	r2, [r3, #24]
  if (HAL_TIM_Base_Init(&htim2) != HAL_OK)
 8000e8a:	4823      	ldr	r0, [pc, #140]	@ (8000f18 <MX_TIM2_Init+0xe8>)
 8000e8c:	f003 fa28 	bl	80042e0 <HAL_TIM_Base_Init>
 8000e90:	4603      	mov	r3, r0
 8000e92:	2b00      	cmp	r3, #0
 8000e94:	d001      	beq.n	8000e9a <MX_TIM2_Init+0x6a>
  {
    Error_Handler();
 8000e96:	f000 f907 	bl	80010a8 <Error_Handler>
  }
  sClockSourceConfig.ClockSource = TIM_CLOCKSOURCE_INTERNAL;
 8000e9a:	f44f 5380 	mov.w	r3, #4096	@ 0x1000
 8000e9e:	62bb      	str	r3, [r7, #40]	@ 0x28
  if (HAL_TIM_ConfigClockSource(&htim2, &sClockSourceConfig) != HAL_OK)
 8000ea0:	f107 0328 	add.w	r3, r7, #40	@ 0x28
 8000ea4:	4619      	mov	r1, r3
 8000ea6:	481c      	ldr	r0, [pc, #112]	@ (8000f18 <MX_TIM2_Init+0xe8>)
 8000ea8:	f003 fdd4 	bl	8004a54 <HAL_TIM_ConfigClockSource>
 8000eac:	4603      	mov	r3, r0
 8000eae:	2b00      	cmp	r3, #0
 8000eb0:	d001      	beq.n	8000eb6 <MX_TIM2_Init+0x86>
  {
    Error_Handler();
 8000eb2:	f000 f8f9 	bl	80010a8 <Error_Handler>
  }
  if (HAL_TIM_PWM_Init(&htim2) != HAL_OK)
 8000eb6:	4818      	ldr	r0, [pc, #96]	@ (8000f18 <MX_TIM2_Init+0xe8>)
 8000eb8:	f003 fa69 	bl	800438e <HAL_TIM_PWM_Init>
 8000ebc:	4603      	mov	r3, r0
 8000ebe:	2b00      	cmp	r3, #0
 8000ec0:	d001      	beq.n	8000ec6 <MX_TIM2_Init+0x96>
  {
    Error_Handler();
 8000ec2:	f000 f8f1 	bl	80010a8 <Error_Handler>
  }
  sMasterConfig.MasterOutputTrigger = TIM_TRGO_RESET;
 8000ec6:	2300      	movs	r3, #0
 8000ec8:	61fb      	str	r3, [r7, #28]
  sMasterConfig.MasterSlaveMode = TIM_MASTERSLAVEMODE_DISABLE;
 8000eca:	2300      	movs	r3, #0
 8000ecc:	627b      	str	r3, [r7, #36]	@ 0x24
  if (HAL_TIMEx_MasterConfigSynchronization(&htim2, &sMasterConfig) != HAL_OK)
 8000ece:	f107 031c 	add.w	r3, r7, #28
 8000ed2:	4619      	mov	r1, r3
 8000ed4:	4810      	ldr	r0, [pc, #64]	@ (8000f18 <MX_TIM2_Init+0xe8>)
 8000ed6:	f004 fa99 	bl	800540c <HAL_TIMEx_MasterConfigSynchronization>
 8000eda:	4603      	mov	r3, r0
 8000edc:	2b00      	cmp	r3, #0
 8000ede:	d001      	beq.n	8000ee4 <MX_TIM2_Init+0xb4>
  {
    Error_Handler();
 8000ee0:	f000 f8e2 	bl	80010a8 <Error_Handler>
  }
  sConfigOC.OCMode = TIM_OCMODE_PWM1;
 8000ee4:	2360      	movs	r3, #96	@ 0x60
 8000ee6:	603b      	str	r3, [r7, #0]
  sConfigOC.Pulse = 0;
 8000ee8:	2300      	movs	r3, #0
 8000eea:	607b      	str	r3, [r7, #4]
  sConfigOC.OCPolarity = TIM_OCPOLARITY_HIGH;
 8000eec:	2300      	movs	r3, #0
 8000eee:	60bb      	str	r3, [r7, #8]
  sConfigOC.OCFastMode = TIM_OCFAST_DISABLE;
 8000ef0:	2300      	movs	r3, #0
 8000ef2:	613b      	str	r3, [r7, #16]
  if (HAL_TIM_PWM_ConfigChannel(&htim2, &sConfigOC, TIM_CHANNEL_1) != HAL_OK)
 8000ef4:	463b      	mov	r3, r7
 8000ef6:	2200      	movs	r2, #0
 8000ef8:	4619      	mov	r1, r3
 8000efa:	4807      	ldr	r0, [pc, #28]	@ (8000f18 <MX_TIM2_Init+0xe8>)
 8000efc:	f003 fc96 	bl	800482c <HAL_TIM_PWM_ConfigChannel>
 8000f00:	4603      	mov	r3, r0
 8000f02:	2b00      	cmp	r3, #0
 8000f04:	d001      	beq.n	8000f0a <MX_TIM2_Init+0xda>
  {
    Error_Handler();
 8000f06:	f000 f8cf 	bl	80010a8 <Error_Handler>
  }
  /* USER CODE BEGIN TIM2_Init 2 */

  /* USER CODE END TIM2_Init 2 */
  HAL_TIM_MspPostInit(&htim2);
 8000f0a:	4803      	ldr	r0, [pc, #12]	@ (8000f18 <MX_TIM2_Init+0xe8>)
 8000f0c:	f000 f956 	bl	80011bc <HAL_TIM_MspPostInit>

}
 8000f10:	bf00      	nop
 8000f12:	3738      	adds	r7, #56	@ 0x38
 8000f14:	46bd      	mov	sp, r7
 8000f16:	bd80      	pop	{r7, pc}
 8000f18:	20000240 	.word	0x20000240

08000f1c <MX_USART2_UART_Init>:
  * @brief USART2 Initialization Function
  * @param None
  * @retval None
  */
static void MX_USART2_UART_Init(void)
{
 8000f1c:	b580      	push	{r7, lr}
 8000f1e:	af00      	add	r7, sp, #0
  /* USER CODE END USART2_Init 0 */

  /* USER CODE BEGIN USART2_Init 1 */

  /* USER CODE END USART2_Init 1 */
  huart2.Instance = USART2;
 8000f20:	4b14      	ldr	r3, [pc, #80]	@ (8000f74 <MX_USART2_UART_Init+0x58>)
 8000f22:	4a15      	ldr	r2, [pc, #84]	@ (8000f78 <MX_USART2_UART_Init+0x5c>)
 8000f24:	601a      	str	r2, [r3, #0]
  huart2.Init.BaudRate = 38400;
 8000f26:	4b13      	ldr	r3, [pc, #76]	@ (8000f74 <MX_USART2_UART_Init+0x58>)
 8000f28:	f44f 4216 	mov.w	r2, #38400	@ 0x9600
 8000f2c:	605a      	str	r2, [r3, #4]
  huart2.Init.WordLength = UART_WORDLENGTH_8B;
 8000f2e:	4b11      	ldr	r3, [pc, #68]	@ (8000f74 <MX_USART2_UART_Init+0x58>)
 8000f30:	2200      	movs	r2, #0
 8000f32:	609a      	str	r2, [r3, #8]
  huart2.Init.StopBits = UART_STOPBITS_1;
 8000f34:	4b0f      	ldr	r3, [pc, #60]	@ (8000f74 <MX_USART2_UART_Init+0x58>)
 8000f36:	2200      	movs	r2, #0
 8000f38:	60da      	str	r2, [r3, #12]
  huart2.Init.Parity = UART_PARITY_NONE;
 8000f3a:	4b0e      	ldr	r3, [pc, #56]	@ (8000f74 <MX_USART2_UART_Init+0x58>)
 8000f3c:	2200      	movs	r2, #0
 8000f3e:	611a      	str	r2, [r3, #16]
  huart2.Init.Mode = UART_MODE_TX_RX;
 8000f40:	4b0c      	ldr	r3, [pc, #48]	@ (8000f74 <MX_USART2_UART_Init+0x58>)
 8000f42:	220c      	movs	r2, #12
 8000f44:	615a      	str	r2, [r3, #20]
  huart2.Init.HwFlowCtl = UART_HWCONTROL_NONE;
 8000f46:	4b0b      	ldr	r3, [pc, #44]	@ (8000f74 <MX_USART2_UART_Init+0x58>)
 8000f48:	2200      	movs	r2, #0
 8000f4a:	619a      	str	r2, [r3, #24]
  huart2.Init.OverSampling = UART_OVERSAMPLING_16;
 8000f4c:	4b09      	ldr	r3, [pc, #36]	@ (8000f74 <MX_USART2_UART_Init+0x58>)
 8000f4e:	2200      	movs	r2, #0
 8000f50:	61da      	str	r2, [r3, #28]
  huart2.Init.OneBitSampling = UART_ONE_BIT_SAMPLE_DISABLE;
 8000f52:	4b08      	ldr	r3, [pc, #32]	@ (8000f74 <MX_USART2_UART_Init+0x58>)
 8000f54:	2200      	movs	r2, #0
 8000f56:	621a      	str	r2, [r3, #32]
  huart2.AdvancedInit.AdvFeatureInit = UART_ADVFEATURE_NO_INIT;
 8000f58:	4b06      	ldr	r3, [pc, #24]	@ (8000f74 <MX_USART2_UART_Init+0x58>)
 8000f5a:	2200      	movs	r2, #0
 8000f5c:	625a      	str	r2, [r3, #36]	@ 0x24
  if (HAL_UART_Init(&huart2) != HAL_OK)
 8000f5e:	4805      	ldr	r0, [pc, #20]	@ (8000f74 <MX_USART2_UART_Init+0x58>)
 8000f60:	f004 fae0 	bl	8005524 <HAL_UART_Init>
 8000f64:	4603      	mov	r3, r0
 8000f66:	2b00      	cmp	r3, #0
 8000f68:	d001      	beq.n	8000f6e <MX_USART2_UART_Init+0x52>
  {
    Error_Handler();
 8000f6a:	f000 f89d 	bl	80010a8 <Error_Handler>
  }
  /* USER CODE BEGIN USART2_Init 2 */

  /* USER CODE END USART2_Init 2 */

}
 8000f6e:	bf00      	nop
 8000f70:	bd80      	pop	{r7, pc}
 8000f72:	bf00      	nop
 8000f74:	2000028c 	.word	0x2000028c
 8000f78:	40004400 	.word	0x40004400

08000f7c <MX_GPIO_Init>:
  * @brief GPIO Initialization Function
  * @param None
  * @retval None
  */
static void MX_GPIO_Init(void)
{
 8000f7c:	b580      	push	{r7, lr}
 8000f7e:	b08a      	sub	sp, #40	@ 0x28
 8000f80:	af00      	add	r7, sp, #0
  GPIO_InitTypeDef GPIO_InitStruct = {0};
 8000f82:	f107 0314 	add.w	r3, r7, #20
 8000f86:	2200      	movs	r2, #0
 8000f88:	601a      	str	r2, [r3, #0]
 8000f8a:	605a      	str	r2, [r3, #4]
 8000f8c:	609a      	str	r2, [r3, #8]
 8000f8e:	60da      	str	r2, [r3, #12]
 8000f90:	611a      	str	r2, [r3, #16]
  /* USER CODE BEGIN MX_GPIO_Init_1 */

  /* USER CODE END MX_GPIO_Init_1 */

  /* GPIO Ports Clock Enable */
  __HAL_RCC_GPIOC_CLK_ENABLE();
 8000f92:	4b25      	ldr	r3, [pc, #148]	@ (8001028 <MX_GPIO_Init+0xac>)
 8000f94:	695b      	ldr	r3, [r3, #20]
 8000f96:	4a24      	ldr	r2, [pc, #144]	@ (8001028 <MX_GPIO_Init+0xac>)
 8000f98:	f443 2300 	orr.w	r3, r3, #524288	@ 0x80000
 8000f9c:	6153      	str	r3, [r2, #20]
 8000f9e:	4b22      	ldr	r3, [pc, #136]	@ (8001028 <MX_GPIO_Init+0xac>)
 8000fa0:	695b      	ldr	r3, [r3, #20]
 8000fa2:	f403 2300 	and.w	r3, r3, #524288	@ 0x80000
 8000fa6:	613b      	str	r3, [r7, #16]
 8000fa8:	693b      	ldr	r3, [r7, #16]
  __HAL_RCC_GPIOF_CLK_ENABLE();
 8000faa:	4b1f      	ldr	r3, [pc, #124]	@ (8001028 <MX_GPIO_Init+0xac>)
 8000fac:	695b      	ldr	r3, [r3, #20]
 8000fae:	4a1e      	ldr	r2, [pc, #120]	@ (8001028 <MX_GPIO_Init+0xac>)
 8000fb0:	f443 0380 	orr.w	r3, r3, #4194304	@ 0x400000
 8000fb4:	6153      	str	r3, [r2, #20]
 8000fb6:	4b1c      	ldr	r3, [pc, #112]	@ (8001028 <MX_GPIO_Init+0xac>)
 8000fb8:	695b      	ldr	r3, [r3, #20]
 8000fba:	f403 0380 	and.w	r3, r3, #4194304	@ 0x400000
 8000fbe:	60fb      	str	r3, [r7, #12]
 8000fc0:	68fb      	ldr	r3, [r7, #12]
  __HAL_RCC_GPIOA_CLK_ENABLE();
 8000fc2:	4b19      	ldr	r3, [pc, #100]	@ (8001028 <MX_GPIO_Init+0xac>)
 8000fc4:	695b      	ldr	r3, [r3, #20]
 8000fc6:	4a18      	ldr	r2, [pc, #96]	@ (8001028 <MX_GPIO_Init+0xac>)
 8000fc8:	f443 3300 	orr.w	r3, r3, #131072	@ 0x20000
 8000fcc:	6153      	str	r3, [r2, #20]
 8000fce:	4b16      	ldr	r3, [pc, #88]	@ (8001028 <MX_GPIO_Init+0xac>)
 8000fd0:	695b      	ldr	r3, [r3, #20]
 8000fd2:	f403 3300 	and.w	r3, r3, #131072	@ 0x20000
 8000fd6:	60bb      	str	r3, [r7, #8]
 8000fd8:	68bb      	ldr	r3, [r7, #8]
  __HAL_RCC_GPIOB_CLK_ENABLE();
 8000fda:	4b13      	ldr	r3, [pc, #76]	@ (8001028 <MX_GPIO_Init+0xac>)
 8000fdc:	695b      	ldr	r3, [r3, #20]
 8000fde:	4a12      	ldr	r2, [pc, #72]	@ (8001028 <MX_GPIO_Init+0xac>)
 8000fe0:	f443 2380 	orr.w	r3, r3, #262144	@ 0x40000
 8000fe4:	6153      	str	r3, [r2, #20]
 8000fe6:	4b10      	ldr	r3, [pc, #64]	@ (8001028 <MX_GPIO_Init+0xac>)
 8000fe8:	695b      	ldr	r3, [r3, #20]
 8000fea:	f403 2380 	and.w	r3, r3, #262144	@ 0x40000
 8000fee:	607b      	str	r3, [r7, #4]
 8000ff0:	687b      	ldr	r3, [r7, #4]

  /*Configure GPIO pin : B1_Pin */
  GPIO_InitStruct.Pin = B1_Pin;
 8000ff2:	f44f 5300 	mov.w	r3, #8192	@ 0x2000
 8000ff6:	617b      	str	r3, [r7, #20]
  GPIO_InitStruct.Mode = GPIO_MODE_IT_FALLING;
 8000ff8:	f44f 1304 	mov.w	r3, #2162688	@ 0x210000
 8000ffc:	61bb      	str	r3, [r7, #24]
  GPIO_InitStruct.Pull = GPIO_NOPULL;
 8000ffe:	2300      	movs	r3, #0
 8001000:	61fb      	str	r3, [r7, #28]
  HAL_GPIO_Init(B1_GPIO_Port, &GPIO_InitStruct);
 8001002:	f107 0314 	add.w	r3, r7, #20
 8001006:	4619      	mov	r1, r3
 8001008:	4808      	ldr	r0, [pc, #32]	@ (800102c <MX_GPIO_Init+0xb0>)
 800100a:	f001 fc8b 	bl	8002924 <HAL_GPIO_Init>

  /* EXTI interrupt init*/
  HAL_NVIC_SetPriority(EXTI15_10_IRQn, 0, 0);
 800100e:	2200      	movs	r2, #0
 8001010:	2100      	movs	r1, #0
 8001012:	2028      	movs	r0, #40	@ 0x28
 8001014:	f001 fc4f 	bl	80028b6 <HAL_NVIC_SetPriority>
  HAL_NVIC_EnableIRQ(EXTI15_10_IRQn);
 8001018:	2028      	movs	r0, #40	@ 0x28
 800101a:	f001 fc68 	bl	80028ee <HAL_NVIC_EnableIRQ>

  /* USER CODE BEGIN MX_GPIO_Init_2 */

  /* USER CODE END MX_GPIO_Init_2 */
}
 800101e:	bf00      	nop
 8001020:	3728      	adds	r7, #40	@ 0x28
 8001022:	46bd      	mov	sp, r7
 8001024:	bd80      	pop	{r7, pc}
 8001026:	bf00      	nop
 8001028:	40021000 	.word	0x40021000
 800102c:	48000800 	.word	0x48000800

08001030 <HAL_GPIO_EXTI_Callback>:

/* USER CODE BEGIN 4 */
void HAL_GPIO_EXTI_Callback(uint16_t GPIO_Pin)
{
 8001030:	b580      	push	{r7, lr}
 8001032:	b084      	sub	sp, #16
 8001034:	af00      	add	r7, sp, #0
 8001036:	4603      	mov	r3, r0
 8001038:	80fb      	strh	r3, [r7, #6]
    if (GPIO_Pin == B1_Pin)
 800103a:	88fb      	ldrh	r3, [r7, #6]
 800103c:	f5b3 5f00 	cmp.w	r3, #8192	@ 0x2000
 8001040:	d10b      	bne.n	800105a <HAL_GPIO_EXTI_Callback+0x2a>
    {
        uint32_t currentTime = HAL_GetTick();
 8001042:	f000 facf 	bl	80015e4 <HAL_GetTick>
 8001046:	60f8      	str	r0, [r7, #12]

        if ((currentTime - lastButtonPress) > 200)
 8001048:	4b06      	ldr	r3, [pc, #24]	@ (8001064 <HAL_GPIO_EXTI_Callback+0x34>)
 800104a:	681b      	ldr	r3, [r3, #0]
 800104c:	68fa      	ldr	r2, [r7, #12]
 800104e:	1ad3      	subs	r3, r2, r3
 8001050:	2bc8      	cmp	r3, #200	@ 0xc8
 8001052:	d902      	bls.n	800105a <HAL_GPIO_EXTI_Callback+0x2a>
        {
            //HAL_GPIO_TogglePin(LD2_GPIO_Port, LD2_Pin);
            lastButtonPress = currentTime;
 8001054:	4a03      	ldr	r2, [pc, #12]	@ (8001064 <HAL_GPIO_EXTI_Callback+0x34>)
 8001056:	68fb      	ldr	r3, [r7, #12]
 8001058:	6013      	str	r3, [r2, #0]
        }
    }
}
 800105a:	bf00      	nop
 800105c:	3710      	adds	r7, #16
 800105e:	46bd      	mov	sp, r7
 8001060:	bd80      	pop	{r7, pc}
 8001062:	bf00      	nop
 8001064:	20000314 	.word	0x20000314

08001068 <HAL_TIM_PeriodElapsedCallback>:
void HAL_TIM_PeriodElapsedCallback(TIM_HandleTypeDef *htim)
{
 8001068:	b5b0      	push	{r4, r5, r7, lr}
 800106a:	b088      	sub	sp, #32
 800106c:	af00      	add	r7, sp, #0
 800106e:	6078      	str	r0, [r7, #4]
    if (htim->Instance == TIM2)
 8001070:	687b      	ldr	r3, [r7, #4]
 8001072:	681b      	ldr	r3, [r3, #0]
 8001074:	f1b3 4f80 	cmp.w	r3, #1073741824	@ 0x40000000
 8001078:	d10e      	bne.n	8001098 <HAL_TIM_PeriodElapsedCallback+0x30>
    {
        //HAL_GPIO_TogglePin(LD2_GPIO_Port, LD2_Pin);

        const char message[] = "Timer-Ereignis\r\n";
 800107a:	4b09      	ldr	r3, [pc, #36]	@ (80010a0 <HAL_TIM_PeriodElapsedCallback+0x38>)
 800107c:	f107 040c 	add.w	r4, r7, #12
 8001080:	461d      	mov	r5, r3
 8001082:	cd0f      	ldmia	r5!, {r0, r1, r2, r3}
 8001084:	c40f      	stmia	r4!, {r0, r1, r2, r3}
 8001086:	682b      	ldr	r3, [r5, #0]
 8001088:	7023      	strb	r3, [r4, #0]

        HAL_UART_Transmit(&huart2,
 800108a:	f107 010c 	add.w	r1, r7, #12
 800108e:	2364      	movs	r3, #100	@ 0x64
 8001090:	2210      	movs	r2, #16
 8001092:	4804      	ldr	r0, [pc, #16]	@ (80010a4 <HAL_TIM_PeriodElapsedCallback+0x3c>)
 8001094:	f004 fa94 	bl	80055c0 <HAL_UART_Transmit>
                          (uint8_t*)message,
                          strlen(message),
                          100);
    }
}
 8001098:	bf00      	nop
 800109a:	3720      	adds	r7, #32
 800109c:	46bd      	mov	sp, r7
 800109e:	bdb0      	pop	{r4, r5, r7, pc}
 80010a0:	08008aac 	.word	0x08008aac
 80010a4:	2000028c 	.word	0x2000028c

080010a8 <Error_Handler>:
/**
  * @brief  This function is executed in case of error occurrence.
  * @retval None
  */
void Error_Handler(void)
{
 80010a8:	b480      	push	{r7}
 80010aa:	af00      	add	r7, sp, #0
  \details Disables IRQ interrupts by setting the I-bit in the CPSR.
           Can only be executed in Privileged modes.
 */
__STATIC_FORCEINLINE void __disable_irq(void)
{
  __ASM volatile ("cpsid i" : : : "memory");
 80010ac:	b672      	cpsid	i
}
 80010ae:	bf00      	nop
  /* USER CODE BEGIN Error_Handler_Debug */
  /* User can add his own implementation to report the HAL error return state */
  __disable_irq();
  while (1)
 80010b0:	bf00      	nop
 80010b2:	e7fd      	b.n	80010b0 <Error_Handler+0x8>

080010b4 <HAL_MspInit>:
void HAL_TIM_MspPostInit(TIM_HandleTypeDef *htim);
                    /**
  * Initializes the Global MSP.
  */
void HAL_MspInit(void)
{
 80010b4:	b580      	push	{r7, lr}
 80010b6:	b082      	sub	sp, #8
 80010b8:	af00      	add	r7, sp, #0

  /* USER CODE BEGIN MspInit 0 */

  /* USER CODE END MspInit 0 */

  __HAL_RCC_SYSCFG_CLK_ENABLE();
 80010ba:	4b0f      	ldr	r3, [pc, #60]	@ (80010f8 <HAL_MspInit+0x44>)
 80010bc:	699b      	ldr	r3, [r3, #24]
 80010be:	4a0e      	ldr	r2, [pc, #56]	@ (80010f8 <HAL_MspInit+0x44>)
 80010c0:	f043 0301 	orr.w	r3, r3, #1
 80010c4:	6193      	str	r3, [r2, #24]
 80010c6:	4b0c      	ldr	r3, [pc, #48]	@ (80010f8 <HAL_MspInit+0x44>)
 80010c8:	699b      	ldr	r3, [r3, #24]
 80010ca:	f003 0301 	and.w	r3, r3, #1
 80010ce:	607b      	str	r3, [r7, #4]
 80010d0:	687b      	ldr	r3, [r7, #4]
  __HAL_RCC_PWR_CLK_ENABLE();
 80010d2:	4b09      	ldr	r3, [pc, #36]	@ (80010f8 <HAL_MspInit+0x44>)
 80010d4:	69db      	ldr	r3, [r3, #28]
 80010d6:	4a08      	ldr	r2, [pc, #32]	@ (80010f8 <HAL_MspInit+0x44>)
 80010d8:	f043 5380 	orr.w	r3, r3, #268435456	@ 0x10000000
 80010dc:	61d3      	str	r3, [r2, #28]
 80010de:	4b06      	ldr	r3, [pc, #24]	@ (80010f8 <HAL_MspInit+0x44>)
 80010e0:	69db      	ldr	r3, [r3, #28]
 80010e2:	f003 5380 	and.w	r3, r3, #268435456	@ 0x10000000
 80010e6:	603b      	str	r3, [r7, #0]
 80010e8:	683b      	ldr	r3, [r7, #0]

  HAL_NVIC_SetPriorityGrouping(NVIC_PRIORITYGROUP_0);
 80010ea:	2007      	movs	r0, #7
 80010ec:	f001 fbd8 	bl	80028a0 <HAL_NVIC_SetPriorityGrouping>
  /* System interrupt init*/

  /* USER CODE BEGIN MspInit 1 */

  /* USER CODE END MspInit 1 */
}
 80010f0:	bf00      	nop
 80010f2:	3708      	adds	r7, #8
 80010f4:	46bd      	mov	sp, r7
 80010f6:	bd80      	pop	{r7, pc}
 80010f8:	40021000 	.word	0x40021000

080010fc <HAL_ADC_MspInit>:
  * This function configures the hardware resources used in this example
  * @param hadc: ADC handle pointer
  * @retval None
  */
void HAL_ADC_MspInit(ADC_HandleTypeDef* hadc)
{
 80010fc:	b580      	push	{r7, lr}
 80010fe:	b08a      	sub	sp, #40	@ 0x28
 8001100:	af00      	add	r7, sp, #0
 8001102:	6078      	str	r0, [r7, #4]
  GPIO_InitTypeDef GPIO_InitStruct = {0};
 8001104:	f107 0314 	add.w	r3, r7, #20
 8001108:	2200      	movs	r2, #0
 800110a:	601a      	str	r2, [r3, #0]
 800110c:	605a      	str	r2, [r3, #4]
 800110e:	609a      	str	r2, [r3, #8]
 8001110:	60da      	str	r2, [r3, #12]
 8001112:	611a      	str	r2, [r3, #16]
  if(hadc->Instance==ADC1)
 8001114:	687b      	ldr	r3, [r7, #4]
 8001116:	681b      	ldr	r3, [r3, #0]
 8001118:	f1b3 4fa0 	cmp.w	r3, #1342177280	@ 0x50000000
 800111c:	d124      	bne.n	8001168 <HAL_ADC_MspInit+0x6c>
  {
    /* USER CODE BEGIN ADC1_MspInit 0 */

    /* USER CODE END ADC1_MspInit 0 */
    /* Peripheral clock enable */
    __HAL_RCC_ADC12_CLK_ENABLE();
 800111e:	4b14      	ldr	r3, [pc, #80]	@ (8001170 <HAL_ADC_MspInit+0x74>)
 8001120:	695b      	ldr	r3, [r3, #20]
 8001122:	4a13      	ldr	r2, [pc, #76]	@ (8001170 <HAL_ADC_MspInit+0x74>)
 8001124:	f043 5380 	orr.w	r3, r3, #268435456	@ 0x10000000
 8001128:	6153      	str	r3, [r2, #20]
 800112a:	4b11      	ldr	r3, [pc, #68]	@ (8001170 <HAL_ADC_MspInit+0x74>)
 800112c:	695b      	ldr	r3, [r3, #20]
 800112e:	f003 5380 	and.w	r3, r3, #268435456	@ 0x10000000
 8001132:	613b      	str	r3, [r7, #16]
 8001134:	693b      	ldr	r3, [r7, #16]

    __HAL_RCC_GPIOA_CLK_ENABLE();
 8001136:	4b0e      	ldr	r3, [pc, #56]	@ (8001170 <HAL_ADC_MspInit+0x74>)
 8001138:	695b      	ldr	r3, [r3, #20]
 800113a:	4a0d      	ldr	r2, [pc, #52]	@ (8001170 <HAL_ADC_MspInit+0x74>)
 800113c:	f443 3300 	orr.w	r3, r3, #131072	@ 0x20000
 8001140:	6153      	str	r3, [r2, #20]
 8001142:	4b0b      	ldr	r3, [pc, #44]	@ (8001170 <HAL_ADC_MspInit+0x74>)
 8001144:	695b      	ldr	r3, [r3, #20]
 8001146:	f403 3300 	and.w	r3, r3, #131072	@ 0x20000
 800114a:	60fb      	str	r3, [r7, #12]
 800114c:	68fb      	ldr	r3, [r7, #12]
    /**ADC1 GPIO Configuration
    PA0     ------> ADC1_IN1
    */
    GPIO_InitStruct.Pin = GPIO_PIN_0;
 800114e:	2301      	movs	r3, #1
 8001150:	617b      	str	r3, [r7, #20]
    GPIO_InitStruct.Mode = GPIO_MODE_ANALOG;
 8001152:	2303      	movs	r3, #3
 8001154:	61bb      	str	r3, [r7, #24]
    GPIO_InitStruct.Pull = GPIO_NOPULL;
 8001156:	2300      	movs	r3, #0
 8001158:	61fb      	str	r3, [r7, #28]
    HAL_GPIO_Init(GPIOA, &GPIO_InitStruct);
 800115a:	f107 0314 	add.w	r3, r7, #20
 800115e:	4619      	mov	r1, r3
 8001160:	f04f 4090 	mov.w	r0, #1207959552	@ 0x48000000
 8001164:	f001 fbde 	bl	8002924 <HAL_GPIO_Init>

    /* USER CODE END ADC1_MspInit 1 */

  }

}
 8001168:	bf00      	nop
 800116a:	3728      	adds	r7, #40	@ 0x28
 800116c:	46bd      	mov	sp, r7
 800116e:	bd80      	pop	{r7, pc}
 8001170:	40021000 	.word	0x40021000

08001174 <HAL_TIM_Base_MspInit>:
  * This function configures the hardware resources used in this example
  * @param htim_base: TIM_Base handle pointer
  * @retval None
  */
void HAL_TIM_Base_MspInit(TIM_HandleTypeDef* htim_base)
{
 8001174:	b580      	push	{r7, lr}
 8001176:	b084      	sub	sp, #16
 8001178:	af00      	add	r7, sp, #0
 800117a:	6078      	str	r0, [r7, #4]
  if(htim_base->Instance==TIM2)
 800117c:	687b      	ldr	r3, [r7, #4]
 800117e:	681b      	ldr	r3, [r3, #0]
 8001180:	f1b3 4f80 	cmp.w	r3, #1073741824	@ 0x40000000
 8001184:	d113      	bne.n	80011ae <HAL_TIM_Base_MspInit+0x3a>
  {
    /* USER CODE BEGIN TIM2_MspInit 0 */

    /* USER CODE END TIM2_MspInit 0 */
    /* Peripheral clock enable */
    __HAL_RCC_TIM2_CLK_ENABLE();
 8001186:	4b0c      	ldr	r3, [pc, #48]	@ (80011b8 <HAL_TIM_Base_MspInit+0x44>)
 8001188:	69db      	ldr	r3, [r3, #28]
 800118a:	4a0b      	ldr	r2, [pc, #44]	@ (80011b8 <HAL_TIM_Base_MspInit+0x44>)
 800118c:	f043 0301 	orr.w	r3, r3, #1
 8001190:	61d3      	str	r3, [r2, #28]
 8001192:	4b09      	ldr	r3, [pc, #36]	@ (80011b8 <HAL_TIM_Base_MspInit+0x44>)
 8001194:	69db      	ldr	r3, [r3, #28]
 8001196:	f003 0301 	and.w	r3, r3, #1
 800119a:	60fb      	str	r3, [r7, #12]
 800119c:	68fb      	ldr	r3, [r7, #12]
    /* TIM2 interrupt Init */
    HAL_NVIC_SetPriority(TIM2_IRQn, 0, 0);
 800119e:	2200      	movs	r2, #0
 80011a0:	2100      	movs	r1, #0
 80011a2:	201c      	movs	r0, #28
 80011a4:	f001 fb87 	bl	80028b6 <HAL_NVIC_SetPriority>
    HAL_NVIC_EnableIRQ(TIM2_IRQn);
 80011a8:	201c      	movs	r0, #28
 80011aa:	f001 fba0 	bl	80028ee <HAL_NVIC_EnableIRQ>

    /* USER CODE END TIM2_MspInit 1 */

  }

}
 80011ae:	bf00      	nop
 80011b0:	3710      	adds	r7, #16
 80011b2:	46bd      	mov	sp, r7
 80011b4:	bd80      	pop	{r7, pc}
 80011b6:	bf00      	nop
 80011b8:	40021000 	.word	0x40021000

080011bc <HAL_TIM_MspPostInit>:

void HAL_TIM_MspPostInit(TIM_HandleTypeDef* htim)
{
 80011bc:	b580      	push	{r7, lr}
 80011be:	b088      	sub	sp, #32
 80011c0:	af00      	add	r7, sp, #0
 80011c2:	6078      	str	r0, [r7, #4]
  GPIO_InitTypeDef GPIO_InitStruct = {0};
 80011c4:	f107 030c 	add.w	r3, r7, #12
 80011c8:	2200      	movs	r2, #0
 80011ca:	601a      	str	r2, [r3, #0]
 80011cc:	605a      	str	r2, [r3, #4]
 80011ce:	609a      	str	r2, [r3, #8]
 80011d0:	60da      	str	r2, [r3, #12]
 80011d2:	611a      	str	r2, [r3, #16]
  if(htim->Instance==TIM2)
 80011d4:	687b      	ldr	r3, [r7, #4]
 80011d6:	681b      	ldr	r3, [r3, #0]
 80011d8:	f1b3 4f80 	cmp.w	r3, #1073741824	@ 0x40000000
 80011dc:	d11c      	bne.n	8001218 <HAL_TIM_MspPostInit+0x5c>
  {
    /* USER CODE BEGIN TIM2_MspPostInit 0 */

    /* USER CODE END TIM2_MspPostInit 0 */

    __HAL_RCC_GPIOA_CLK_ENABLE();
 80011de:	4b10      	ldr	r3, [pc, #64]	@ (8001220 <HAL_TIM_MspPostInit+0x64>)
 80011e0:	695b      	ldr	r3, [r3, #20]
 80011e2:	4a0f      	ldr	r2, [pc, #60]	@ (8001220 <HAL_TIM_MspPostInit+0x64>)
 80011e4:	f443 3300 	orr.w	r3, r3, #131072	@ 0x20000
 80011e8:	6153      	str	r3, [r2, #20]
 80011ea:	4b0d      	ldr	r3, [pc, #52]	@ (8001220 <HAL_TIM_MspPostInit+0x64>)
 80011ec:	695b      	ldr	r3, [r3, #20]
 80011ee:	f403 3300 	and.w	r3, r3, #131072	@ 0x20000
 80011f2:	60bb      	str	r3, [r7, #8]
 80011f4:	68bb      	ldr	r3, [r7, #8]
    /**TIM2 GPIO Configuration
    PA5     ------> TIM2_CH1
    */
    GPIO_InitStruct.Pin = GPIO_PIN_5;
 80011f6:	2320      	movs	r3, #32
 80011f8:	60fb      	str	r3, [r7, #12]
    GPIO_InitStruct.Mode = GPIO_MODE_AF_PP;
 80011fa:	2302      	movs	r3, #2
 80011fc:	613b      	str	r3, [r7, #16]
    GPIO_InitStruct.Pull = GPIO_NOPULL;
 80011fe:	2300      	movs	r3, #0
 8001200:	617b      	str	r3, [r7, #20]
    GPIO_InitStruct.Speed = GPIO_SPEED_FREQ_LOW;
 8001202:	2300      	movs	r3, #0
 8001204:	61bb      	str	r3, [r7, #24]
    GPIO_InitStruct.Alternate = GPIO_AF1_TIM2;
 8001206:	2301      	movs	r3, #1
 8001208:	61fb      	str	r3, [r7, #28]
    HAL_GPIO_Init(GPIOA, &GPIO_InitStruct);
 800120a:	f107 030c 	add.w	r3, r7, #12
 800120e:	4619      	mov	r1, r3
 8001210:	f04f 4090 	mov.w	r0, #1207959552	@ 0x48000000
 8001214:	f001 fb86 	bl	8002924 <HAL_GPIO_Init>
    /* USER CODE BEGIN TIM2_MspPostInit 1 */

    /* USER CODE END TIM2_MspPostInit 1 */
  }

}
 8001218:	bf00      	nop
 800121a:	3720      	adds	r7, #32
 800121c:	46bd      	mov	sp, r7
 800121e:	bd80      	pop	{r7, pc}
 8001220:	40021000 	.word	0x40021000

08001224 <HAL_UART_MspInit>:
  * This function configures the hardware resources used in this example
  * @param huart: UART handle pointer
  * @retval None
  */
void HAL_UART_MspInit(UART_HandleTypeDef* huart)
{
 8001224:	b580      	push	{r7, lr}
 8001226:	b08a      	sub	sp, #40	@ 0x28
 8001228:	af00      	add	r7, sp, #0
 800122a:	6078      	str	r0, [r7, #4]
  GPIO_InitTypeDef GPIO_InitStruct = {0};
 800122c:	f107 0314 	add.w	r3, r7, #20
 8001230:	2200      	movs	r2, #0
 8001232:	601a      	str	r2, [r3, #0]
 8001234:	605a      	str	r2, [r3, #4]
 8001236:	609a      	str	r2, [r3, #8]
 8001238:	60da      	str	r2, [r3, #12]
 800123a:	611a      	str	r2, [r3, #16]
  if(huart->Instance==USART2)
 800123c:	687b      	ldr	r3, [r7, #4]
 800123e:	681b      	ldr	r3, [r3, #0]
 8001240:	4a17      	ldr	r2, [pc, #92]	@ (80012a0 <HAL_UART_MspInit+0x7c>)
 8001242:	4293      	cmp	r3, r2
 8001244:	d128      	bne.n	8001298 <HAL_UART_MspInit+0x74>
  {
    /* USER CODE BEGIN USART2_MspInit 0 */

    /* USER CODE END USART2_MspInit 0 */
    /* Peripheral clock enable */
    __HAL_RCC_USART2_CLK_ENABLE();
 8001246:	4b17      	ldr	r3, [pc, #92]	@ (80012a4 <HAL_UART_MspInit+0x80>)
 8001248:	69db      	ldr	r3, [r3, #28]
 800124a:	4a16      	ldr	r2, [pc, #88]	@ (80012a4 <HAL_UART_MspInit+0x80>)
 800124c:	f443 3300 	orr.w	r3, r3, #131072	@ 0x20000
 8001250:	61d3      	str	r3, [r2, #28]
 8001252:	4b14      	ldr	r3, [pc, #80]	@ (80012a4 <HAL_UART_MspInit+0x80>)
 8001254:	69db      	ldr	r3, [r3, #28]
 8001256:	f403 3300 	and.w	r3, r3, #131072	@ 0x20000
 800125a:	613b      	str	r3, [r7, #16]
 800125c:	693b      	ldr	r3, [r7, #16]

    __HAL_RCC_GPIOA_CLK_ENABLE();
 800125e:	4b11      	ldr	r3, [pc, #68]	@ (80012a4 <HAL_UART_MspInit+0x80>)
 8001260:	695b      	ldr	r3, [r3, #20]
 8001262:	4a10      	ldr	r2, [pc, #64]	@ (80012a4 <HAL_UART_MspInit+0x80>)
 8001264:	f443 3300 	orr.w	r3, r3, #131072	@ 0x20000
 8001268:	6153      	str	r3, [r2, #20]
 800126a:	4b0e      	ldr	r3, [pc, #56]	@ (80012a4 <HAL_UART_MspInit+0x80>)
 800126c:	695b      	ldr	r3, [r3, #20]
 800126e:	f403 3300 	and.w	r3, r3, #131072	@ 0x20000
 8001272:	60fb      	str	r3, [r7, #12]
 8001274:	68fb      	ldr	r3, [r7, #12]
    /**USART2 GPIO Configuration
    PA2     ------> USART2_TX
    PA3     ------> USART2_RX
    */
    GPIO_InitStruct.Pin = USART_TX_Pin|USART_RX_Pin;
 8001276:	230c      	movs	r3, #12
 8001278:	617b      	str	r3, [r7, #20]
    GPIO_InitStruct.Mode = GPIO_MODE_AF_PP;
 800127a:	2302      	movs	r3, #2
 800127c:	61bb      	str	r3, [r7, #24]
    GPIO_InitStruct.Pull = GPIO_NOPULL;
 800127e:	2300      	movs	r3, #0
 8001280:	61fb      	str	r3, [r7, #28]
    GPIO_InitStruct.Speed = GPIO_SPEED_FREQ_HIGH;
 8001282:	2303      	movs	r3, #3
 8001284:	623b      	str	r3, [r7, #32]
    GPIO_InitStruct.Alternate = GPIO_AF7_USART2;
 8001286:	2307      	movs	r3, #7
 8001288:	627b      	str	r3, [r7, #36]	@ 0x24
    HAL_GPIO_Init(GPIOA, &GPIO_InitStruct);
 800128a:	f107 0314 	add.w	r3, r7, #20
 800128e:	4619      	mov	r1, r3
 8001290:	f04f 4090 	mov.w	r0, #1207959552	@ 0x48000000
 8001294:	f001 fb46 	bl	8002924 <HAL_GPIO_Init>

    /* USER CODE END USART2_MspInit 1 */

  }

}
 8001298:	bf00      	nop
 800129a:	3728      	adds	r7, #40	@ 0x28
 800129c:	46bd      	mov	sp, r7
 800129e:	bd80      	pop	{r7, pc}
 80012a0:	40004400 	.word	0x40004400
 80012a4:	40021000 	.word	0x40021000

080012a8 <NMI_Handler>:
/******************************************************************************/
/**
  * @brief This function handles Non maskable interrupt.
  */
void NMI_Handler(void)
{
 80012a8:	b480      	push	{r7}
 80012aa:	af00      	add	r7, sp, #0
  /* USER CODE BEGIN NonMaskableInt_IRQn 0 */

  /* USER CODE END NonMaskableInt_IRQn 0 */
  /* USER CODE BEGIN NonMaskableInt_IRQn 1 */
   while (1)
 80012ac:	bf00      	nop
 80012ae:	e7fd      	b.n	80012ac <NMI_Handler+0x4>

080012b0 <HardFault_Handler>:

/**
  * @brief This function handles Hard fault interrupt.
  */
void HardFault_Handler(void)
{
 80012b0:	b480      	push	{r7}
 80012b2:	af00      	add	r7, sp, #0
  /* USER CODE BEGIN HardFault_IRQn 0 */

  /* USER CODE END HardFault_IRQn 0 */
  while (1)
 80012b4:	bf00      	nop
 80012b6:	e7fd      	b.n	80012b4 <HardFault_Handler+0x4>

080012b8 <MemManage_Handler>:

/**
  * @brief This function handles Memory management fault.
  */
void MemManage_Handler(void)
{
 80012b8:	b480      	push	{r7}
 80012ba:	af00      	add	r7, sp, #0
  /* USER CODE BEGIN MemoryManagement_IRQn 0 */

  /* USER CODE END MemoryManagement_IRQn 0 */
  while (1)
 80012bc:	bf00      	nop
 80012be:	e7fd      	b.n	80012bc <MemManage_Handler+0x4>

080012c0 <BusFault_Handler>:

/**
  * @brief This function handles Pre-fetch fault, memory access fault.
  */
void BusFault_Handler(void)
{
 80012c0:	b480      	push	{r7}
 80012c2:	af00      	add	r7, sp, #0
  /* USER CODE BEGIN BusFault_IRQn 0 */

  /* USER CODE END BusFault_IRQn 0 */
  while (1)
 80012c4:	bf00      	nop
 80012c6:	e7fd      	b.n	80012c4 <BusFault_Handler+0x4>

080012c8 <UsageFault_Handler>:

/**
  * @brief This function handles Undefined instruction or illegal state.
  */
void UsageFault_Handler(void)
{
 80012c8:	b480      	push	{r7}
 80012ca:	af00      	add	r7, sp, #0
  /* USER CODE BEGIN UsageFault_IRQn 0 */

  /* USER CODE END UsageFault_IRQn 0 */
  while (1)
 80012cc:	bf00      	nop
 80012ce:	e7fd      	b.n	80012cc <UsageFault_Handler+0x4>

080012d0 <SVC_Handler>:

/**
  * @brief This function handles System service call via SWI instruction.
  */
void SVC_Handler(void)
{
 80012d0:	b480      	push	{r7}
 80012d2:	af00      	add	r7, sp, #0

  /* USER CODE END SVCall_IRQn 0 */
  /* USER CODE BEGIN SVCall_IRQn 1 */

  /* USER CODE END SVCall_IRQn 1 */
}
 80012d4:	bf00      	nop
 80012d6:	46bd      	mov	sp, r7
 80012d8:	f85d 7b04 	ldr.w	r7, [sp], #4
 80012dc:	4770      	bx	lr

080012de <DebugMon_Handler>:

/**
  * @brief This function handles Debug monitor.
  */
void DebugMon_Handler(void)
{
 80012de:	b480      	push	{r7}
 80012e0:	af00      	add	r7, sp, #0

  /* USER CODE END DebugMonitor_IRQn 0 */
  /* USER CODE BEGIN DebugMonitor_IRQn 1 */

  /* USER CODE END DebugMonitor_IRQn 1 */
}
 80012e2:	bf00      	nop
 80012e4:	46bd      	mov	sp, r7
 80012e6:	f85d 7b04 	ldr.w	r7, [sp], #4
 80012ea:	4770      	bx	lr

080012ec <PendSV_Handler>:

/**
  * @brief This function handles Pendable request for system service.
  */
void PendSV_Handler(void)
{
 80012ec:	b480      	push	{r7}
 80012ee:	af00      	add	r7, sp, #0

  /* USER CODE END PendSV_IRQn 0 */
  /* USER CODE BEGIN PendSV_IRQn 1 */

  /* USER CODE END PendSV_IRQn 1 */
}
 80012f0:	bf00      	nop
 80012f2:	46bd      	mov	sp, r7
 80012f4:	f85d 7b04 	ldr.w	r7, [sp], #4
 80012f8:	4770      	bx	lr

080012fa <SysTick_Handler>:

/**
  * @brief This function handles System tick timer.
  */
void SysTick_Handler(void)
{
 80012fa:	b580      	push	{r7, lr}
 80012fc:	af00      	add	r7, sp, #0
  /* USER CODE BEGIN SysTick_IRQn 0 */

  /* USER CODE END SysTick_IRQn 0 */
  HAL_IncTick();
 80012fe:	f000 f95d 	bl	80015bc <HAL_IncTick>
  /* USER CODE BEGIN SysTick_IRQn 1 */

  /* USER CODE END SysTick_IRQn 1 */
}
 8001302:	bf00      	nop
 8001304:	bd80      	pop	{r7, pc}
	...

08001308 <TIM2_IRQHandler>:

/**
  * @brief This function handles TIM2 global interrupt.
  */
void TIM2_IRQHandler(void)
{
 8001308:	b580      	push	{r7, lr}
 800130a:	af00      	add	r7, sp, #0
  /* USER CODE BEGIN TIM2_IRQn 0 */

  /* USER CODE END TIM2_IRQn 0 */
  HAL_TIM_IRQHandler(&htim2);
 800130c:	4802      	ldr	r0, [pc, #8]	@ (8001318 <TIM2_IRQHandler+0x10>)
 800130e:	f003 f98b 	bl	8004628 <HAL_TIM_IRQHandler>
  /* USER CODE BEGIN TIM2_IRQn 1 */

  /* USER CODE END TIM2_IRQn 1 */
}
 8001312:	bf00      	nop
 8001314:	bd80      	pop	{r7, pc}
 8001316:	bf00      	nop
 8001318:	20000240 	.word	0x20000240

0800131c <EXTI15_10_IRQHandler>:

/**
  * @brief This function handles EXTI line[15:10] interrupts.
  */
void EXTI15_10_IRQHandler(void)
{
 800131c:	b580      	push	{r7, lr}
 800131e:	af00      	add	r7, sp, #0
  /* USER CODE BEGIN EXTI15_10_IRQn 0 */

  /* USER CODE END EXTI15_10_IRQn 0 */
  HAL_GPIO_EXTI_IRQHandler(B1_Pin);
 8001320:	f44f 5000 	mov.w	r0, #8192	@ 0x2000
 8001324:	f001 fc70 	bl	8002c08 <HAL_GPIO_EXTI_IRQHandler>
  /* USER CODE BEGIN EXTI15_10_IRQn 1 */

  /* USER CODE END EXTI15_10_IRQn 1 */
}
 8001328:	bf00      	nop
 800132a:	bd80      	pop	{r7, pc}

0800132c <_getpid>:
void initialise_monitor_handles()
{
}

int _getpid(void)
{
 800132c:	b480      	push	{r7}
 800132e:	af00      	add	r7, sp, #0
  return 1;
 8001330:	2301      	movs	r3, #1
}
 8001332:	4618      	mov	r0, r3
 8001334:	46bd      	mov	sp, r7
 8001336:	f85d 7b04 	ldr.w	r7, [sp], #4
 800133a:	4770      	bx	lr

0800133c <_kill>:

int _kill(int pid, int sig)
{
 800133c:	b580      	push	{r7, lr}
 800133e:	b082      	sub	sp, #8
 8001340:	af00      	add	r7, sp, #0
 8001342:	6078      	str	r0, [r7, #4]
 8001344:	6039      	str	r1, [r7, #0]
  (void)pid;
  (void)sig;
  errno = EINVAL;
 8001346:	f005 fb01 	bl	800694c <__errno>
 800134a:	4603      	mov	r3, r0
 800134c:	2216      	movs	r2, #22
 800134e:	601a      	str	r2, [r3, #0]
  return -1;
 8001350:	f04f 33ff 	mov.w	r3, #4294967295
}
 8001354:	4618      	mov	r0, r3
 8001356:	3708      	adds	r7, #8
 8001358:	46bd      	mov	sp, r7
 800135a:	bd80      	pop	{r7, pc}

0800135c <_exit>:

void _exit (int status)
{
 800135c:	b580      	push	{r7, lr}
 800135e:	b082      	sub	sp, #8
 8001360:	af00      	add	r7, sp, #0
 8001362:	6078      	str	r0, [r7, #4]
  _kill(status, -1);
 8001364:	f04f 31ff 	mov.w	r1, #4294967295
 8001368:	6878      	ldr	r0, [r7, #4]
 800136a:	f7ff ffe7 	bl	800133c <_kill>
  while (1) {}    /* Make sure we hang here */
 800136e:	bf00      	nop
 8001370:	e7fd      	b.n	800136e <_exit+0x12>

08001372 <_read>:
}

__attribute__((weak)) int _read(int file, char *ptr, int len)
{
 8001372:	b580      	push	{r7, lr}
 8001374:	b086      	sub	sp, #24
 8001376:	af00      	add	r7, sp, #0
 8001378:	60f8      	str	r0, [r7, #12]
 800137a:	60b9      	str	r1, [r7, #8]
 800137c:	607a      	str	r2, [r7, #4]
  (void)file;
  int DataIdx;

  for (DataIdx = 0; DataIdx < len; DataIdx++)
 800137e:	2300      	movs	r3, #0
 8001380:	617b      	str	r3, [r7, #20]
 8001382:	e00a      	b.n	800139a <_read+0x28>
  {
    *ptr++ = __io_getchar();
 8001384:	f3af 8000 	nop.w
 8001388:	4601      	mov	r1, r0
 800138a:	68bb      	ldr	r3, [r7, #8]
 800138c:	1c5a      	adds	r2, r3, #1
 800138e:	60ba      	str	r2, [r7, #8]
 8001390:	b2ca      	uxtb	r2, r1
 8001392:	701a      	strb	r2, [r3, #0]
  for (DataIdx = 0; DataIdx < len; DataIdx++)
 8001394:	697b      	ldr	r3, [r7, #20]
 8001396:	3301      	adds	r3, #1
 8001398:	617b      	str	r3, [r7, #20]
 800139a:	697a      	ldr	r2, [r7, #20]
 800139c:	687b      	ldr	r3, [r7, #4]
 800139e:	429a      	cmp	r2, r3
 80013a0:	dbf0      	blt.n	8001384 <_read+0x12>
  }

  return len;
 80013a2:	687b      	ldr	r3, [r7, #4]
}
 80013a4:	4618      	mov	r0, r3
 80013a6:	3718      	adds	r7, #24
 80013a8:	46bd      	mov	sp, r7
 80013aa:	bd80      	pop	{r7, pc}

080013ac <_write>:

__attribute__((weak)) int _write(int file, char *ptr, int len)
{
 80013ac:	b580      	push	{r7, lr}
 80013ae:	b086      	sub	sp, #24
 80013b0:	af00      	add	r7, sp, #0
 80013b2:	60f8      	str	r0, [r7, #12]
 80013b4:	60b9      	str	r1, [r7, #8]
 80013b6:	607a      	str	r2, [r7, #4]
  (void)file;
  int DataIdx;

  for (DataIdx = 0; DataIdx < len; DataIdx++)
 80013b8:	2300      	movs	r3, #0
 80013ba:	617b      	str	r3, [r7, #20]
 80013bc:	e009      	b.n	80013d2 <_write+0x26>
  {
    __io_putchar(*ptr++);
 80013be:	68bb      	ldr	r3, [r7, #8]
 80013c0:	1c5a      	adds	r2, r3, #1
 80013c2:	60ba      	str	r2, [r7, #8]
 80013c4:	781b      	ldrb	r3, [r3, #0]
 80013c6:	4618      	mov	r0, r3
 80013c8:	f3af 8000 	nop.w
  for (DataIdx = 0; DataIdx < len; DataIdx++)
 80013cc:	697b      	ldr	r3, [r7, #20]
 80013ce:	3301      	adds	r3, #1
 80013d0:	617b      	str	r3, [r7, #20]
 80013d2:	697a      	ldr	r2, [r7, #20]
 80013d4:	687b      	ldr	r3, [r7, #4]
 80013d6:	429a      	cmp	r2, r3
 80013d8:	dbf1      	blt.n	80013be <_write+0x12>
  }
  return len;
 80013da:	687b      	ldr	r3, [r7, #4]
}
 80013dc:	4618      	mov	r0, r3
 80013de:	3718      	adds	r7, #24
 80013e0:	46bd      	mov	sp, r7
 80013e2:	bd80      	pop	{r7, pc}

080013e4 <_close>:

int _close(int file)
{
 80013e4:	b480      	push	{r7}
 80013e6:	b083      	sub	sp, #12
 80013e8:	af00      	add	r7, sp, #0
 80013ea:	6078      	str	r0, [r7, #4]
  (void)file;
  return -1;
 80013ec:	f04f 33ff 	mov.w	r3, #4294967295
}
 80013f0:	4618      	mov	r0, r3
 80013f2:	370c      	adds	r7, #12
 80013f4:	46bd      	mov	sp, r7
 80013f6:	f85d 7b04 	ldr.w	r7, [sp], #4
 80013fa:	4770      	bx	lr

080013fc <_fstat>:


int _fstat(int file, struct stat *st)
{
 80013fc:	b480      	push	{r7}
 80013fe:	b083      	sub	sp, #12
 8001400:	af00      	add	r7, sp, #0
 8001402:	6078      	str	r0, [r7, #4]
 8001404:	6039      	str	r1, [r7, #0]
  (void)file;
  st->st_mode = S_IFCHR;
 8001406:	683b      	ldr	r3, [r7, #0]
 8001408:	f44f 5200 	mov.w	r2, #8192	@ 0x2000
 800140c:	605a      	str	r2, [r3, #4]
  return 0;
 800140e:	2300      	movs	r3, #0
}
 8001410:	4618      	mov	r0, r3
 8001412:	370c      	adds	r7, #12
 8001414:	46bd      	mov	sp, r7
 8001416:	f85d 7b04 	ldr.w	r7, [sp], #4
 800141a:	4770      	bx	lr

0800141c <_isatty>:

int _isatty(int file)
{
 800141c:	b480      	push	{r7}
 800141e:	b083      	sub	sp, #12
 8001420:	af00      	add	r7, sp, #0
 8001422:	6078      	str	r0, [r7, #4]
  (void)file;
  return 1;
 8001424:	2301      	movs	r3, #1
}
 8001426:	4618      	mov	r0, r3
 8001428:	370c      	adds	r7, #12
 800142a:	46bd      	mov	sp, r7
 800142c:	f85d 7b04 	ldr.w	r7, [sp], #4
 8001430:	4770      	bx	lr

08001432 <_lseek>:

int _lseek(int file, int ptr, int dir)
{
 8001432:	b480      	push	{r7}
 8001434:	b085      	sub	sp, #20
 8001436:	af00      	add	r7, sp, #0
 8001438:	60f8      	str	r0, [r7, #12]
 800143a:	60b9      	str	r1, [r7, #8]
 800143c:	607a      	str	r2, [r7, #4]
  (void)file;
  (void)ptr;
  (void)dir;
  return 0;
 800143e:	2300      	movs	r3, #0
}
 8001440:	4618      	mov	r0, r3
 8001442:	3714      	adds	r7, #20
 8001444:	46bd      	mov	sp, r7
 8001446:	f85d 7b04 	ldr.w	r7, [sp], #4
 800144a:	4770      	bx	lr

0800144c <_sbrk>:
 *
 * @param incr Memory size
 * @return Pointer to allocated memory
 */
void *_sbrk(ptrdiff_t incr)
{
 800144c:	b580      	push	{r7, lr}
 800144e:	b086      	sub	sp, #24
 8001450:	af00      	add	r7, sp, #0
 8001452:	6078      	str	r0, [r7, #4]
  extern uint8_t _end; /* Symbol defined in the linker script */
  extern uint8_t _estack; /* Symbol defined in the linker script */
  extern uint32_t _Min_Stack_Size; /* Symbol defined in the linker script */
  const uint32_t stack_limit = (uint32_t)&_estack - (uint32_t)&_Min_Stack_Size;
 8001454:	4a14      	ldr	r2, [pc, #80]	@ (80014a8 <_sbrk+0x5c>)
 8001456:	4b15      	ldr	r3, [pc, #84]	@ (80014ac <_sbrk+0x60>)
 8001458:	1ad3      	subs	r3, r2, r3
 800145a:	617b      	str	r3, [r7, #20]
  const uint8_t *max_heap = (uint8_t *)stack_limit;
 800145c:	697b      	ldr	r3, [r7, #20]
 800145e:	613b      	str	r3, [r7, #16]
  uint8_t *prev_heap_end;

  /* Initialize heap end at first call */
  if (NULL == __sbrk_heap_end)
 8001460:	4b13      	ldr	r3, [pc, #76]	@ (80014b0 <_sbrk+0x64>)
 8001462:	681b      	ldr	r3, [r3, #0]
 8001464:	2b00      	cmp	r3, #0
 8001466:	d102      	bne.n	800146e <_sbrk+0x22>
  {
    __sbrk_heap_end = &_end;
 8001468:	4b11      	ldr	r3, [pc, #68]	@ (80014b0 <_sbrk+0x64>)
 800146a:	4a12      	ldr	r2, [pc, #72]	@ (80014b4 <_sbrk+0x68>)
 800146c:	601a      	str	r2, [r3, #0]
  }

  /* Protect heap from growing into the reserved MSP stack */
  if (__sbrk_heap_end + incr > max_heap)
 800146e:	4b10      	ldr	r3, [pc, #64]	@ (80014b0 <_sbrk+0x64>)
 8001470:	681a      	ldr	r2, [r3, #0]
 8001472:	687b      	ldr	r3, [r7, #4]
 8001474:	4413      	add	r3, r2
 8001476:	693a      	ldr	r2, [r7, #16]
 8001478:	429a      	cmp	r2, r3
 800147a:	d207      	bcs.n	800148c <_sbrk+0x40>
  {
    errno = ENOMEM;
 800147c:	f005 fa66 	bl	800694c <__errno>
 8001480:	4603      	mov	r3, r0
 8001482:	220c      	movs	r2, #12
 8001484:	601a      	str	r2, [r3, #0]
    return (void *)-1;
 8001486:	f04f 33ff 	mov.w	r3, #4294967295
 800148a:	e009      	b.n	80014a0 <_sbrk+0x54>
  }

  prev_heap_end = __sbrk_heap_end;
 800148c:	4b08      	ldr	r3, [pc, #32]	@ (80014b0 <_sbrk+0x64>)
 800148e:	681b      	ldr	r3, [r3, #0]
 8001490:	60fb      	str	r3, [r7, #12]
  __sbrk_heap_end += incr;
 8001492:	4b07      	ldr	r3, [pc, #28]	@ (80014b0 <_sbrk+0x64>)
 8001494:	681a      	ldr	r2, [r3, #0]
 8001496:	687b      	ldr	r3, [r7, #4]
 8001498:	4413      	add	r3, r2
 800149a:	4a05      	ldr	r2, [pc, #20]	@ (80014b0 <_sbrk+0x64>)
 800149c:	6013      	str	r3, [r2, #0]

  return (void *)prev_heap_end;
 800149e:	68fb      	ldr	r3, [r7, #12]
}
 80014a0:	4618      	mov	r0, r3
 80014a2:	3718      	adds	r7, #24
 80014a4:	46bd      	mov	sp, r7
 80014a6:	bd80      	pop	{r7, pc}
 80014a8:	20003000 	.word	0x20003000
 80014ac:	00000400 	.word	0x00000400
 80014b0:	20000360 	.word	0x20000360
 80014b4:	200004b8 	.word	0x200004b8

080014b8 <SystemInit>:
  * @brief  Setup the microcontroller system
  * @param  None
  * @retval None
  */
void SystemInit(void)
{
 80014b8:	b480      	push	{r7}
 80014ba:	af00      	add	r7, sp, #0
/* FPU settings --------------------------------------------------------------*/
#if (__FPU_PRESENT == 1) && (__FPU_USED == 1)
  SCB->CPACR |= ((3UL << 10*2)|(3UL << 11*2));  /* set CP10 and CP11 Full Access */
 80014bc:	4b06      	ldr	r3, [pc, #24]	@ (80014d8 <SystemInit+0x20>)
 80014be:	f8d3 3088 	ldr.w	r3, [r3, #136]	@ 0x88
 80014c2:	4a05      	ldr	r2, [pc, #20]	@ (80014d8 <SystemInit+0x20>)
 80014c4:	f443 0370 	orr.w	r3, r3, #15728640	@ 0xf00000
 80014c8:	f8c2 3088 	str.w	r3, [r2, #136]	@ 0x88

  /* Configure the Vector Table location -------------------------------------*/
#if defined(USER_VECT_TAB_ADDRESS)
  SCB->VTOR = VECT_TAB_BASE_ADDRESS | VECT_TAB_OFFSET; /* Vector Table Relocation in Internal SRAM */
#endif /* USER_VECT_TAB_ADDRESS */
}
 80014cc:	bf00      	nop
 80014ce:	46bd      	mov	sp, r7
 80014d0:	f85d 7b04 	ldr.w	r7, [sp], #4
 80014d4:	4770      	bx	lr
 80014d6:	bf00      	nop
 80014d8:	e000ed00 	.word	0xe000ed00

080014dc <Reset_Handler>:

    .section	.text.Reset_Handler
	.weak	Reset_Handler
	.type	Reset_Handler, %function
Reset_Handler:
  ldr   sp, =_estack    /* Atollic update: set stack pointer */
 80014dc:	f8df d034 	ldr.w	sp, [pc, #52]	@ 8001514 <LoopForever+0x2>
  
/* Call the clock system initialization function.*/
    bl  SystemInit
 80014e0:	f7ff ffea 	bl	80014b8 <SystemInit>

/* Copy the data segment initializers from flash to SRAM */
  ldr r0, =_sdata
 80014e4:	480c      	ldr	r0, [pc, #48]	@ (8001518 <LoopForever+0x6>)
  ldr r1, =_edata
 80014e6:	490d      	ldr	r1, [pc, #52]	@ (800151c <LoopForever+0xa>)
  ldr r2, =_sidata
 80014e8:	4a0d      	ldr	r2, [pc, #52]	@ (8001520 <LoopForever+0xe>)
  movs r3, #0
 80014ea:	2300      	movs	r3, #0
  b LoopCopyDataInit
 80014ec:	e002      	b.n	80014f4 <LoopCopyDataInit>

080014ee <CopyDataInit>:

CopyDataInit:
  ldr r4, [r2, r3]
 80014ee:	58d4      	ldr	r4, [r2, r3]
  str r4, [r0, r3]
 80014f0:	50c4      	str	r4, [r0, r3]
  adds r3, r3, #4
 80014f2:	3304      	adds	r3, #4

080014f4 <LoopCopyDataInit>:

LoopCopyDataInit:
  adds r4, r0, r3
 80014f4:	18c4      	adds	r4, r0, r3
  cmp r4, r1
 80014f6:	428c      	cmp	r4, r1
  bcc CopyDataInit
 80014f8:	d3f9      	bcc.n	80014ee <CopyDataInit>
  
/* Zero fill the bss segment. */
  ldr r2, =_sbss
 80014fa:	4a0a      	ldr	r2, [pc, #40]	@ (8001524 <LoopForever+0x12>)
  ldr r4, =_ebss
 80014fc:	4c0a      	ldr	r4, [pc, #40]	@ (8001528 <LoopForever+0x16>)
  movs r3, #0
 80014fe:	2300      	movs	r3, #0
  b LoopFillZerobss
 8001500:	e001      	b.n	8001506 <LoopFillZerobss>

08001502 <FillZerobss>:

FillZerobss:
  str  r3, [r2]
 8001502:	6013      	str	r3, [r2, #0]
  adds r2, r2, #4
 8001504:	3204      	adds	r2, #4

08001506 <LoopFillZerobss>:

LoopFillZerobss:
  cmp r2, r4
 8001506:	42a2      	cmp	r2, r4
  bcc FillZerobss
 8001508:	d3fb      	bcc.n	8001502 <FillZerobss>

/* Call static constructors */
    bl __libc_init_array
 800150a:	f005 fa25 	bl	8006958 <__libc_init_array>
/* Call the application's entry point.*/
	bl	main
 800150e:	f7ff fb4b 	bl	8000ba8 <main>

08001512 <LoopForever>:

LoopForever:
    b LoopForever
 8001512:	e7fe      	b.n	8001512 <LoopForever>
  ldr   sp, =_estack    /* Atollic update: set stack pointer */
 8001514:	20003000 	.word	0x20003000
  ldr r0, =_sdata
 8001518:	20000000 	.word	0x20000000
  ldr r1, =_edata
 800151c:	200001d4 	.word	0x200001d4
  ldr r2, =_sidata
 8001520:	08008e7c 	.word	0x08008e7c
  ldr r2, =_sbss
 8001524:	200001d4 	.word	0x200001d4
  ldr r4, =_ebss
 8001528:	200004b4 	.word	0x200004b4

0800152c <ADC1_2_IRQHandler>:
 * @retval : None
*/
    .section	.text.Default_Handler,"ax",%progbits
Default_Handler:
Infinite_Loop:
	b	Infinite_Loop
 800152c:	e7fe      	b.n	800152c <ADC1_2_IRQHandler>
	...

08001530 <HAL_Init>:
  *         In the default implementation,Systick is used as source of time base.
  *       The tick variable is incremented each 1ms in its ISR.
  * @retval HAL status
  */
HAL_StatusTypeDef HAL_Init(void)
{
 8001530:	b580      	push	{r7, lr}
 8001532:	af00      	add	r7, sp, #0
  /* Configure Flash prefetch */
#if (PREFETCH_ENABLE != 0U)
  __HAL_FLASH_PREFETCH_BUFFER_ENABLE();
 8001534:	4b08      	ldr	r3, [pc, #32]	@ (8001558 <HAL_Init+0x28>)
 8001536:	681b      	ldr	r3, [r3, #0]
 8001538:	4a07      	ldr	r2, [pc, #28]	@ (8001558 <HAL_Init+0x28>)
 800153a:	f043 0310 	orr.w	r3, r3, #16
 800153e:	6013      	str	r3, [r2, #0]
#endif /* PREFETCH_ENABLE */

  /* Set Interrupt Group Priority */
  HAL_NVIC_SetPriorityGrouping(NVIC_PRIORITYGROUP_4);
 8001540:	2003      	movs	r0, #3
 8001542:	f001 f9ad 	bl	80028a0 <HAL_NVIC_SetPriorityGrouping>

  /* Enable systick and configure 1ms tick (default clock after Reset is HSI) */
  HAL_InitTick(TICK_INT_PRIORITY);
 8001546:	2000      	movs	r0, #0
 8001548:	f000 f808 	bl	800155c <HAL_InitTick>

  /* Init the low level hardware */
  HAL_MspInit();
 800154c:	f7ff fdb2 	bl	80010b4 <HAL_MspInit>

  /* Return function status */
  return HAL_OK;
 8001550:	2300      	movs	r3, #0
}
 8001552:	4618      	mov	r0, r3
 8001554:	bd80      	pop	{r7, pc}
 8001556:	bf00      	nop
 8001558:	40022000 	.word	0x40022000

0800155c <HAL_InitTick>:
  *         implementation  in user file.
  * @param TickPriority Tick interrupt priority.
  * @retval HAL status
  */
__weak HAL_StatusTypeDef HAL_InitTick(uint32_t TickPriority)
{
 800155c:	b580      	push	{r7, lr}
 800155e:	b082      	sub	sp, #8
 8001560:	af00      	add	r7, sp, #0
 8001562:	6078      	str	r0, [r7, #4]
  /* Configure the SysTick to have interrupt in 1ms time basis*/
  if (HAL_SYSTICK_Config(SystemCoreClock / (1000U / uwTickFreq)) > 0U)
 8001564:	4b12      	ldr	r3, [pc, #72]	@ (80015b0 <HAL_InitTick+0x54>)
 8001566:	681a      	ldr	r2, [r3, #0]
 8001568:	4b12      	ldr	r3, [pc, #72]	@ (80015b4 <HAL_InitTick+0x58>)
 800156a:	781b      	ldrb	r3, [r3, #0]
 800156c:	4619      	mov	r1, r3
 800156e:	f44f 737a 	mov.w	r3, #1000	@ 0x3e8
 8001572:	fbb3 f3f1 	udiv	r3, r3, r1
 8001576:	fbb2 f3f3 	udiv	r3, r2, r3
 800157a:	4618      	mov	r0, r3
 800157c:	f001 f9c5 	bl	800290a <HAL_SYSTICK_Config>
 8001580:	4603      	mov	r3, r0
 8001582:	2b00      	cmp	r3, #0
 8001584:	d001      	beq.n	800158a <HAL_InitTick+0x2e>
  {
    return HAL_ERROR;
 8001586:	2301      	movs	r3, #1
 8001588:	e00e      	b.n	80015a8 <HAL_InitTick+0x4c>
  }

  /* Configure the SysTick IRQ priority */
  if (TickPriority < (1UL << __NVIC_PRIO_BITS))
 800158a:	687b      	ldr	r3, [r7, #4]
 800158c:	2b0f      	cmp	r3, #15
 800158e:	d80a      	bhi.n	80015a6 <HAL_InitTick+0x4a>
  {
    HAL_NVIC_SetPriority(SysTick_IRQn, TickPriority, 0U);
 8001590:	2200      	movs	r2, #0
 8001592:	6879      	ldr	r1, [r7, #4]
 8001594:	f04f 30ff 	mov.w	r0, #4294967295
 8001598:	f001 f98d 	bl	80028b6 <HAL_NVIC_SetPriority>
    uwTickPrio = TickPriority;
 800159c:	4a06      	ldr	r2, [pc, #24]	@ (80015b8 <HAL_InitTick+0x5c>)
 800159e:	687b      	ldr	r3, [r7, #4]
 80015a0:	6013      	str	r3, [r2, #0]
  else
  {
    return HAL_ERROR;
  }
   /* Return function status */
  return HAL_OK;
 80015a2:	2300      	movs	r3, #0
 80015a4:	e000      	b.n	80015a8 <HAL_InitTick+0x4c>
    return HAL_ERROR;
 80015a6:	2301      	movs	r3, #1
}
 80015a8:	4618      	mov	r0, r3
 80015aa:	3708      	adds	r7, #8
 80015ac:	46bd      	mov	sp, r7
 80015ae:	bd80      	pop	{r7, pc}
 80015b0:	20000000 	.word	0x20000000
 80015b4:	20000008 	.word	0x20000008
 80015b8:	20000004 	.word	0x20000004

080015bc <HAL_IncTick>:
  * @note This function is declared as __weak to be overwritten in case of other 
  *         implementations  in user file.
  * @retval None
  */
__weak void HAL_IncTick(void)
{
 80015bc:	b480      	push	{r7}
 80015be:	af00      	add	r7, sp, #0
  uwTick += uwTickFreq;
 80015c0:	4b06      	ldr	r3, [pc, #24]	@ (80015dc <HAL_IncTick+0x20>)
 80015c2:	781b      	ldrb	r3, [r3, #0]
 80015c4:	461a      	mov	r2, r3
 80015c6:	4b06      	ldr	r3, [pc, #24]	@ (80015e0 <HAL_IncTick+0x24>)
 80015c8:	681b      	ldr	r3, [r3, #0]
 80015ca:	4413      	add	r3, r2
 80015cc:	4a04      	ldr	r2, [pc, #16]	@ (80015e0 <HAL_IncTick+0x24>)
 80015ce:	6013      	str	r3, [r2, #0]
}
 80015d0:	bf00      	nop
 80015d2:	46bd      	mov	sp, r7
 80015d4:	f85d 7b04 	ldr.w	r7, [sp], #4
 80015d8:	4770      	bx	lr
 80015da:	bf00      	nop
 80015dc:	20000008 	.word	0x20000008
 80015e0:	20000364 	.word	0x20000364

080015e4 <HAL_GetTick>:
  * @note   The function is declared as __Weak  to be overwritten  in case of other 
  *         implementations  in user file.
  * @retval tick value
  */
__weak uint32_t HAL_GetTick(void)
{
 80015e4:	b480      	push	{r7}
 80015e6:	af00      	add	r7, sp, #0
  return uwTick;  
 80015e8:	4b03      	ldr	r3, [pc, #12]	@ (80015f8 <HAL_GetTick+0x14>)
 80015ea:	681b      	ldr	r3, [r3, #0]
}
 80015ec:	4618      	mov	r0, r3
 80015ee:	46bd      	mov	sp, r7
 80015f0:	f85d 7b04 	ldr.w	r7, [sp], #4
 80015f4:	4770      	bx	lr
 80015f6:	bf00      	nop
 80015f8:	20000364 	.word	0x20000364

080015fc <HAL_Delay>:
  *         implementations  in user file.
  * @param  Delay specifies the delay time length, in milliseconds.
  * @retval None
  */
__weak void HAL_Delay(uint32_t Delay)
{
 80015fc:	b580      	push	{r7, lr}
 80015fe:	b084      	sub	sp, #16
 8001600:	af00      	add	r7, sp, #0
 8001602:	6078      	str	r0, [r7, #4]
  uint32_t tickstart = HAL_GetTick();
 8001604:	f7ff ffee 	bl	80015e4 <HAL_GetTick>
 8001608:	60b8      	str	r0, [r7, #8]
  uint32_t wait = Delay;
 800160a:	687b      	ldr	r3, [r7, #4]
 800160c:	60fb      	str	r3, [r7, #12]
  
  /* Add freq to guarantee minimum wait */
  if (wait < HAL_MAX_DELAY)
 800160e:	68fb      	ldr	r3, [r7, #12]
 8001610:	f1b3 3fff 	cmp.w	r3, #4294967295
 8001614:	d005      	beq.n	8001622 <HAL_Delay+0x26>
  {
    wait += (uint32_t)(uwTickFreq);
 8001616:	4b0a      	ldr	r3, [pc, #40]	@ (8001640 <HAL_Delay+0x44>)
 8001618:	781b      	ldrb	r3, [r3, #0]
 800161a:	461a      	mov	r2, r3
 800161c:	68fb      	ldr	r3, [r7, #12]
 800161e:	4413      	add	r3, r2
 8001620:	60fb      	str	r3, [r7, #12]
  }
  
  while((HAL_GetTick() - tickstart) < wait)
 8001622:	bf00      	nop
 8001624:	f7ff ffde 	bl	80015e4 <HAL_GetTick>
 8001628:	4602      	mov	r2, r0
 800162a:	68bb      	ldr	r3, [r7, #8]
 800162c:	1ad3      	subs	r3, r2, r3
 800162e:	68fa      	ldr	r2, [r7, #12]
 8001630:	429a      	cmp	r2, r3
 8001632:	d8f7      	bhi.n	8001624 <HAL_Delay+0x28>
  {
  }
}
 8001634:	bf00      	nop
 8001636:	bf00      	nop
 8001638:	3710      	adds	r7, #16
 800163a:	46bd      	mov	sp, r7
 800163c:	bd80      	pop	{r7, pc}
 800163e:	bf00      	nop
 8001640:	20000008 	.word	0x20000008

08001644 <HAL_ADC_Init>:
  *         without  disabling the other ADCs sharing the same common group.
  * @param  hadc ADC handle
  * @retval HAL status
  */
HAL_StatusTypeDef HAL_ADC_Init(ADC_HandleTypeDef* hadc)
{
 8001644:	b580      	push	{r7, lr}
 8001646:	b09a      	sub	sp, #104	@ 0x68
 8001648:	af00      	add	r7, sp, #0
 800164a:	6078      	str	r0, [r7, #4]
  HAL_StatusTypeDef tmp_hal_status = HAL_OK;
 800164c:	2300      	movs	r3, #0
 800164e:	f887 3067 	strb.w	r3, [r7, #103]	@ 0x67
  ADC_Common_TypeDef *tmpADC_Common;
  ADC_HandleTypeDef tmphadcSharingSameCommonRegister;
  uint32_t tmpCFGR = 0U;
 8001652:	2300      	movs	r3, #0
 8001654:	663b      	str	r3, [r7, #96]	@ 0x60
  __IO uint32_t wait_loop_index = 0U;
 8001656:	2300      	movs	r3, #0
 8001658:	60bb      	str	r3, [r7, #8]
  
  /* Check ADC handle */
  if(hadc == NULL)
 800165a:	687b      	ldr	r3, [r7, #4]
 800165c:	2b00      	cmp	r3, #0
 800165e:	d101      	bne.n	8001664 <HAL_ADC_Init+0x20>
  {
    return HAL_ERROR;
 8001660:	2301      	movs	r3, #1
 8001662:	e172      	b.n	800194a <HAL_ADC_Init+0x306>
  assert_param(IS_FUNCTIONAL_STATE(hadc->Init.DMAContinuousRequests));
  assert_param(IS_ADC_EOC_SELECTION(hadc->Init.EOCSelection));
  assert_param(IS_ADC_OVERRUN(hadc->Init.Overrun));
  assert_param(IS_FUNCTIONAL_STATE(hadc->Init.LowPowerAutoWait));
  
  if(hadc->Init.ScanConvMode != ADC_SCAN_DISABLE)
 8001664:	687b      	ldr	r3, [r7, #4]
 8001666:	691b      	ldr	r3, [r3, #16]
 8001668:	2b00      	cmp	r3, #0
      assert_param(IS_ADC_REGULAR_DISCONT_NUMBER(hadc->Init.NbrOfDiscConversion));
    }
  }
    
  /* Configuration of ADC core parameters and ADC MSP related parameters */
  if (HAL_IS_BIT_CLR(hadc->State, HAL_ADC_STATE_ERROR_INTERNAL))
 800166a:	687b      	ldr	r3, [r7, #4]
 800166c:	6c1b      	ldr	r3, [r3, #64]	@ 0x40
 800166e:	f003 0310 	and.w	r3, r3, #16
 8001672:	2b00      	cmp	r3, #0
 8001674:	d176      	bne.n	8001764 <HAL_ADC_Init+0x120>
    /* procedure.                                                             */
    
    /* Actions performed only if ADC is coming from state reset:              */
    /* - Initialization of ADC MSP                                            */
    /* - ADC voltage regulator enable                                         */
    if (hadc->State == HAL_ADC_STATE_RESET)
 8001676:	687b      	ldr	r3, [r7, #4]
 8001678:	6c1b      	ldr	r3, [r3, #64]	@ 0x40
 800167a:	2b00      	cmp	r3, #0
 800167c:	d152      	bne.n	8001724 <HAL_ADC_Init+0xe0>
    {
      /* Initialize ADC error code */
      ADC_CLEAR_ERRORCODE(hadc);
 800167e:	687b      	ldr	r3, [r7, #4]
 8001680:	2200      	movs	r2, #0
 8001682:	645a      	str	r2, [r3, #68]	@ 0x44
      
      /* Initialize HAL ADC API internal variables */
      hadc->InjectionConfig.ChannelCount = 0U;
 8001684:	687b      	ldr	r3, [r7, #4]
 8001686:	2200      	movs	r2, #0
 8001688:	64da      	str	r2, [r3, #76]	@ 0x4c
      hadc->InjectionConfig.ContextQueue = 0U;
 800168a:	687b      	ldr	r3, [r7, #4]
 800168c:	2200      	movs	r2, #0
 800168e:	649a      	str	r2, [r3, #72]	@ 0x48
      
      /* Allocate lock resource and initialize it */
      hadc->Lock = HAL_UNLOCKED;
 8001690:	687b      	ldr	r3, [r7, #4]
 8001692:	2200      	movs	r2, #0
 8001694:	f883 203c 	strb.w	r2, [r3, #60]	@ 0x3c
    
    /* Init the low level hardware */
    hadc->MspInitCallback(hadc);
#else
    /* Init the low level hardware */
    HAL_ADC_MspInit(hadc);
 8001698:	6878      	ldr	r0, [r7, #4]
 800169a:	f7ff fd2f 	bl	80010fc <HAL_ADC_MspInit>
#endif /* USE_HAL_ADC_REGISTER_CALLBACKS */
      
      /* Enable voltage regulator (if disabled at this step) */
      if (HAL_IS_BIT_CLR(hadc->Instance->CR, ADC_CR_ADVREGEN_0))
 800169e:	687b      	ldr	r3, [r7, #4]
 80016a0:	681b      	ldr	r3, [r3, #0]
 80016a2:	689b      	ldr	r3, [r3, #8]
 80016a4:	f003 5380 	and.w	r3, r3, #268435456	@ 0x10000000
 80016a8:	2b00      	cmp	r3, #0
 80016aa:	d13b      	bne.n	8001724 <HAL_ADC_Init+0xe0>
        /*       enabling the ADC. This temporization must be implemented by  */ 
        /*       software and is equal to 10 us in the worst case             */
        /*       process/temperature/power supply.                            */
        
        /* Disable the ADC (if not already disabled) */
        tmp_hal_status = ADC_Disable(hadc);
 80016ac:	6878      	ldr	r0, [r7, #4]
 80016ae:	f000 ff0b 	bl	80024c8 <ADC_Disable>
 80016b2:	4603      	mov	r3, r0
 80016b4:	f887 3067 	strb.w	r3, [r7, #103]	@ 0x67
        
        /* Check if ADC is effectively disabled */
        /* Configuration of ADC parameters if previous preliminary actions    */ 
        /* are correctly completed.                                           */
        if (HAL_IS_BIT_CLR(hadc->State, HAL_ADC_STATE_ERROR_INTERNAL) &&
 80016b8:	687b      	ldr	r3, [r7, #4]
 80016ba:	6c1b      	ldr	r3, [r3, #64]	@ 0x40
 80016bc:	f003 0310 	and.w	r3, r3, #16
 80016c0:	2b00      	cmp	r3, #0
 80016c2:	d12f      	bne.n	8001724 <HAL_ADC_Init+0xe0>
 80016c4:	f897 3067 	ldrb.w	r3, [r7, #103]	@ 0x67
 80016c8:	2b00      	cmp	r3, #0
 80016ca:	d12b      	bne.n	8001724 <HAL_ADC_Init+0xe0>
            (tmp_hal_status == HAL_OK)                                  )
        {
          /* Set ADC state */
          ADC_STATE_CLR_SET(hadc->State,
 80016cc:	687b      	ldr	r3, [r7, #4]
 80016ce:	6c1b      	ldr	r3, [r3, #64]	@ 0x40
 80016d0:	f423 5388 	bic.w	r3, r3, #4352	@ 0x1100
 80016d4:	f023 0302 	bic.w	r3, r3, #2
 80016d8:	f043 0202 	orr.w	r2, r3, #2
 80016dc:	687b      	ldr	r3, [r7, #4]
 80016de:	641a      	str	r2, [r3, #64]	@ 0x40
                            HAL_ADC_STATE_REG_BUSY | HAL_ADC_STATE_INJ_BUSY,
                            HAL_ADC_STATE_BUSY_INTERNAL);
          
          /* Set the intermediate state before moving the ADC voltage         */
          /* regulator to state enable.                                       */
          CLEAR_BIT(hadc->Instance->CR, (ADC_CR_ADVREGEN_1 | ADC_CR_ADVREGEN_0));
 80016e0:	687b      	ldr	r3, [r7, #4]
 80016e2:	681b      	ldr	r3, [r3, #0]
 80016e4:	689a      	ldr	r2, [r3, #8]
 80016e6:	687b      	ldr	r3, [r7, #4]
 80016e8:	681b      	ldr	r3, [r3, #0]
 80016ea:	f022 5240 	bic.w	r2, r2, #805306368	@ 0x30000000
 80016ee:	609a      	str	r2, [r3, #8]
          /* Set ADVREGEN bits to 0x01U */
          SET_BIT(hadc->Instance->CR, ADC_CR_ADVREGEN_0);
 80016f0:	687b      	ldr	r3, [r7, #4]
 80016f2:	681b      	ldr	r3, [r3, #0]
 80016f4:	689a      	ldr	r2, [r3, #8]
 80016f6:	687b      	ldr	r3, [r7, #4]
 80016f8:	681b      	ldr	r3, [r3, #0]
 80016fa:	f042 5280 	orr.w	r2, r2, #268435456	@ 0x10000000
 80016fe:	609a      	str	r2, [r3, #8]
          
          /* Delay for ADC stabilization time.                                */
          /* Compute number of CPU cycles to wait for */
          wait_loop_index = (ADC_STAB_DELAY_US * (SystemCoreClock / 1000000U));
 8001700:	4b94      	ldr	r3, [pc, #592]	@ (8001954 <HAL_ADC_Init+0x310>)
 8001702:	681b      	ldr	r3, [r3, #0]
 8001704:	4a94      	ldr	r2, [pc, #592]	@ (8001958 <HAL_ADC_Init+0x314>)
 8001706:	fba2 2303 	umull	r2, r3, r2, r3
 800170a:	0c9a      	lsrs	r2, r3, #18
 800170c:	4613      	mov	r3, r2
 800170e:	009b      	lsls	r3, r3, #2
 8001710:	4413      	add	r3, r2
 8001712:	005b      	lsls	r3, r3, #1
 8001714:	60bb      	str	r3, [r7, #8]
          while(wait_loop_index != 0U)
 8001716:	e002      	b.n	800171e <HAL_ADC_Init+0xda>
          {
            wait_loop_index--;
 8001718:	68bb      	ldr	r3, [r7, #8]
 800171a:	3b01      	subs	r3, #1
 800171c:	60bb      	str	r3, [r7, #8]
          while(wait_loop_index != 0U)
 800171e:	68bb      	ldr	r3, [r7, #8]
 8001720:	2b00      	cmp	r3, #0
 8001722:	d1f9      	bne.n	8001718 <HAL_ADC_Init+0xd4>
    }
    
    /* Verification that ADC voltage regulator is correctly enabled, whether  */
    /* or not ADC is coming from state reset (if any potential problem of     */
    /* clocking, voltage regulator would not be enabled).                     */
    if (HAL_IS_BIT_CLR(hadc->Instance->CR, ADC_CR_ADVREGEN_0) ||
 8001724:	687b      	ldr	r3, [r7, #4]
 8001726:	681b      	ldr	r3, [r3, #0]
 8001728:	689b      	ldr	r3, [r3, #8]
 800172a:	f003 5380 	and.w	r3, r3, #268435456	@ 0x10000000
 800172e:	2b00      	cmp	r3, #0
 8001730:	d007      	beq.n	8001742 <HAL_ADC_Init+0xfe>
        HAL_IS_BIT_SET(hadc->Instance->CR, ADC_CR_ADVREGEN_1)   )
 8001732:	687b      	ldr	r3, [r7, #4]
 8001734:	681b      	ldr	r3, [r3, #0]
 8001736:	689b      	ldr	r3, [r3, #8]
 8001738:	f003 5300 	and.w	r3, r3, #536870912	@ 0x20000000
    if (HAL_IS_BIT_CLR(hadc->Instance->CR, ADC_CR_ADVREGEN_0) ||
 800173c:	f1b3 5f00 	cmp.w	r3, #536870912	@ 0x20000000
 8001740:	d110      	bne.n	8001764 <HAL_ADC_Init+0x120>
    {
      /* Update ADC state machine to error */
      ADC_STATE_CLR_SET(hadc->State,
 8001742:	687b      	ldr	r3, [r7, #4]
 8001744:	6c1b      	ldr	r3, [r3, #64]	@ 0x40
 8001746:	f023 0312 	bic.w	r3, r3, #18
 800174a:	f043 0210 	orr.w	r2, r3, #16
 800174e:	687b      	ldr	r3, [r7, #4]
 8001750:	641a      	str	r2, [r3, #64]	@ 0x40
                        HAL_ADC_STATE_BUSY_INTERNAL,
                        HAL_ADC_STATE_ERROR_INTERNAL);
      
      /* Set ADC error code to ADC IP internal error */
      SET_BIT(hadc->ErrorCode, HAL_ADC_ERROR_INTERNAL);
 8001752:	687b      	ldr	r3, [r7, #4]
 8001754:	6c5b      	ldr	r3, [r3, #68]	@ 0x44
 8001756:	f043 0201 	orr.w	r2, r3, #1
 800175a:	687b      	ldr	r3, [r7, #4]
 800175c:	645a      	str	r2, [r3, #68]	@ 0x44
      
      tmp_hal_status = HAL_ERROR;
 800175e:	2301      	movs	r3, #1
 8001760:	f887 3067 	strb.w	r3, [r7, #103]	@ 0x67
  
  /* Configuration of ADC parameters if previous preliminary actions are      */ 
  /* correctly completed and if there is no conversion on going on regular    */
  /* group (ADC may already be enabled at this point if HAL_ADC_Init() is     */
  /* called to update a parameter on the fly).                                */
  if (HAL_IS_BIT_CLR(hadc->State, HAL_ADC_STATE_ERROR_INTERNAL) &&
 8001764:	687b      	ldr	r3, [r7, #4]
 8001766:	6c1b      	ldr	r3, [r3, #64]	@ 0x40
 8001768:	f003 0310 	and.w	r3, r3, #16
 800176c:	2b00      	cmp	r3, #0
 800176e:	f040 80df 	bne.w	8001930 <HAL_ADC_Init+0x2ec>
 8001772:	f897 3067 	ldrb.w	r3, [r7, #103]	@ 0x67
 8001776:	2b00      	cmp	r3, #0
 8001778:	f040 80da 	bne.w	8001930 <HAL_ADC_Init+0x2ec>
      (tmp_hal_status == HAL_OK)                                &&
      (ADC_IS_CONVERSION_ONGOING_REGULAR(hadc) == RESET)          )
 800177c:	687b      	ldr	r3, [r7, #4]
 800177e:	681b      	ldr	r3, [r3, #0]
 8001780:	689b      	ldr	r3, [r3, #8]
 8001782:	f003 0304 	and.w	r3, r3, #4
      (tmp_hal_status == HAL_OK)                                &&
 8001786:	2b00      	cmp	r3, #0
 8001788:	f040 80d2 	bne.w	8001930 <HAL_ADC_Init+0x2ec>
  {
    /* Set ADC state */
    ADC_STATE_CLR_SET(hadc->State,
 800178c:	687b      	ldr	r3, [r7, #4]
 800178e:	6c1b      	ldr	r3, [r3, #64]	@ 0x40
 8001790:	f423 7381 	bic.w	r3, r3, #258	@ 0x102
 8001794:	f043 0202 	orr.w	r2, r3, #2
 8001798:	687b      	ldr	r3, [r7, #4]
 800179a:	641a      	str	r2, [r3, #64]	@ 0x40
    /* Configuration of common ADC parameters                                 */
    
    /* Pointer to the common control register to which is belonging hadc      */
    /* (Depending on STM32F3 product, there may be up to 4 ADC and 2 common   */
    /* control registers)                                                     */
    tmpADC_Common = ADC_COMMON_REGISTER(hadc);
 800179c:	4b6f      	ldr	r3, [pc, #444]	@ (800195c <HAL_ADC_Init+0x318>)
 800179e:	65fb      	str	r3, [r7, #92]	@ 0x5c
    
    /* Set handle of the other ADC sharing the same common register           */
    ADC_COMMON_ADC_OTHER(hadc, &tmphadcSharingSameCommonRegister);
 80017a0:	687b      	ldr	r3, [r7, #4]
 80017a2:	681b      	ldr	r3, [r3, #0]
 80017a4:	f1b3 4fa0 	cmp.w	r3, #1342177280	@ 0x50000000
 80017a8:	d102      	bne.n	80017b0 <HAL_ADC_Init+0x16c>
 80017aa:	4b6d      	ldr	r3, [pc, #436]	@ (8001960 <HAL_ADC_Init+0x31c>)
 80017ac:	60fb      	str	r3, [r7, #12]
 80017ae:	e002      	b.n	80017b6 <HAL_ADC_Init+0x172>
 80017b0:	f04f 43a0 	mov.w	r3, #1342177280	@ 0x50000000
 80017b4:	60fb      	str	r3, [r7, #12]
    
    
    /* Parameters update conditioned to ADC state:                            */
    /* Parameters that can be updated only when ADC is disabled:              */
    /*  - Multimode clock configuration                                       */
    if ((ADC_IS_ENABLE(hadc) == RESET)                                   &&
 80017b6:	687b      	ldr	r3, [r7, #4]
 80017b8:	681b      	ldr	r3, [r3, #0]
 80017ba:	689b      	ldr	r3, [r3, #8]
 80017bc:	f003 0303 	and.w	r3, r3, #3
 80017c0:	2b01      	cmp	r3, #1
 80017c2:	d108      	bne.n	80017d6 <HAL_ADC_Init+0x192>
 80017c4:	687b      	ldr	r3, [r7, #4]
 80017c6:	681b      	ldr	r3, [r3, #0]
 80017c8:	681b      	ldr	r3, [r3, #0]
 80017ca:	f003 0301 	and.w	r3, r3, #1
 80017ce:	2b01      	cmp	r3, #1
 80017d0:	d101      	bne.n	80017d6 <HAL_ADC_Init+0x192>
 80017d2:	2301      	movs	r3, #1
 80017d4:	e000      	b.n	80017d8 <HAL_ADC_Init+0x194>
 80017d6:	2300      	movs	r3, #0
 80017d8:	2b00      	cmp	r3, #0
 80017da:	d11c      	bne.n	8001816 <HAL_ADC_Init+0x1d2>
        ((tmphadcSharingSameCommonRegister.Instance == NULL)         ||
 80017dc:	68fb      	ldr	r3, [r7, #12]
    if ((ADC_IS_ENABLE(hadc) == RESET)                                   &&
 80017de:	2b00      	cmp	r3, #0
 80017e0:	d010      	beq.n	8001804 <HAL_ADC_Init+0x1c0>
         (ADC_IS_ENABLE(&tmphadcSharingSameCommonRegister) == RESET)   )   )
 80017e2:	68fb      	ldr	r3, [r7, #12]
 80017e4:	689b      	ldr	r3, [r3, #8]
 80017e6:	f003 0303 	and.w	r3, r3, #3
 80017ea:	2b01      	cmp	r3, #1
 80017ec:	d107      	bne.n	80017fe <HAL_ADC_Init+0x1ba>
 80017ee:	68fb      	ldr	r3, [r7, #12]
 80017f0:	681b      	ldr	r3, [r3, #0]
 80017f2:	f003 0301 	and.w	r3, r3, #1
 80017f6:	2b01      	cmp	r3, #1
 80017f8:	d101      	bne.n	80017fe <HAL_ADC_Init+0x1ba>
 80017fa:	2301      	movs	r3, #1
 80017fc:	e000      	b.n	8001800 <HAL_ADC_Init+0x1bc>
 80017fe:	2300      	movs	r3, #0
        ((tmphadcSharingSameCommonRegister.Instance == NULL)         ||
 8001800:	2b00      	cmp	r3, #0
 8001802:	d108      	bne.n	8001816 <HAL_ADC_Init+0x1d2>
      /*     into HAL_ADCEx_MultiModeConfigChannel() )                        */
      /*   - internal measurement paths: Vbat, temperature sensor, Vref       */
      /*     (set into HAL_ADC_ConfigChannel() or                             */
      /*     HAL_ADCEx_InjectedConfigChannel() )                              */
     
      MODIFY_REG(tmpADC_Common->CCR       ,
 8001804:	6dfb      	ldr	r3, [r7, #92]	@ 0x5c
 8001806:	689b      	ldr	r3, [r3, #8]
 8001808:	f423 3240 	bic.w	r2, r3, #196608	@ 0x30000
 800180c:	687b      	ldr	r3, [r7, #4]
 800180e:	685b      	ldr	r3, [r3, #4]
 8001810:	431a      	orrs	r2, r3
 8001812:	6dfb      	ldr	r3, [r7, #92]	@ 0x5c
 8001814:	609a      	str	r2, [r3, #8]
    /*  - external trigger to start conversion                                */
    /*  - external trigger polarity                                           */
    /*  - continuous conversion mode                                          */
    /*  - overrun                                                             */
    /*  - discontinuous mode                                                  */
    SET_BIT(tmpCFGR, ADC_CFGR_CONTINUOUS((uint32_t)hadc->Init.ContinuousConvMode) |
 8001816:	687b      	ldr	r3, [r7, #4]
 8001818:	7e5b      	ldrb	r3, [r3, #25]
 800181a:	035b      	lsls	r3, r3, #13
 800181c:	687a      	ldr	r2, [r7, #4]
 800181e:	6b52      	ldr	r2, [r2, #52]	@ 0x34
 8001820:	2a01      	cmp	r2, #1
 8001822:	d002      	beq.n	800182a <HAL_ADC_Init+0x1e6>
 8001824:	f44f 5280 	mov.w	r2, #4096	@ 0x1000
 8001828:	e000      	b.n	800182c <HAL_ADC_Init+0x1e8>
 800182a:	2200      	movs	r2, #0
 800182c:	431a      	orrs	r2, r3
 800182e:	687b      	ldr	r3, [r7, #4]
 8001830:	68db      	ldr	r3, [r3, #12]
 8001832:	431a      	orrs	r2, r3
 8001834:	687b      	ldr	r3, [r7, #4]
 8001836:	689b      	ldr	r3, [r3, #8]
 8001838:	4313      	orrs	r3, r2
 800183a:	6e3a      	ldr	r2, [r7, #96]	@ 0x60
 800183c:	4313      	orrs	r3, r2
 800183e:	663b      	str	r3, [r7, #96]	@ 0x60
                     ADC_CFGR_OVERRUN(hadc->Init.Overrun)               |
                     hadc->Init.DataAlign                               |
                     hadc->Init.Resolution                               );
    
    /* Enable discontinuous mode only if continuous mode is disabled */
    if (hadc->Init.DiscontinuousConvMode == ENABLE)
 8001840:	687b      	ldr	r3, [r7, #4]
 8001842:	f893 3020 	ldrb.w	r3, [r3, #32]
 8001846:	2b01      	cmp	r3, #1
 8001848:	d11b      	bne.n	8001882 <HAL_ADC_Init+0x23e>
    {
      if (hadc->Init.ContinuousConvMode == DISABLE)
 800184a:	687b      	ldr	r3, [r7, #4]
 800184c:	7e5b      	ldrb	r3, [r3, #25]
 800184e:	2b00      	cmp	r3, #0
 8001850:	d109      	bne.n	8001866 <HAL_ADC_Init+0x222>
      {
        /* Enable the selected ADC regular discontinuous mode */
        /* Set the number of channels to be converted in discontinuous mode */
        SET_BIT(tmpCFGR, ADC_CFGR_DISCEN                                            |
 8001852:	687b      	ldr	r3, [r7, #4]
 8001854:	6a5b      	ldr	r3, [r3, #36]	@ 0x24
 8001856:	3b01      	subs	r3, #1
 8001858:	045a      	lsls	r2, r3, #17
 800185a:	6e3b      	ldr	r3, [r7, #96]	@ 0x60
 800185c:	4313      	orrs	r3, r2
 800185e:	f443 3380 	orr.w	r3, r3, #65536	@ 0x10000
 8001862:	663b      	str	r3, [r7, #96]	@ 0x60
 8001864:	e00d      	b.n	8001882 <HAL_ADC_Init+0x23e>
        /* ADC regular group discontinuous was intended to be enabled,        */
        /* but ADC regular group modes continuous and sequencer discontinuous */
        /* cannot be enabled simultaneously.                                  */
        
        /* Update ADC state machine to error */
        ADC_STATE_CLR_SET(hadc->State,
 8001866:	687b      	ldr	r3, [r7, #4]
 8001868:	6c1b      	ldr	r3, [r3, #64]	@ 0x40
 800186a:	f023 0322 	bic.w	r3, r3, #34	@ 0x22
 800186e:	f043 0220 	orr.w	r2, r3, #32
 8001872:	687b      	ldr	r3, [r7, #4]
 8001874:	641a      	str	r2, [r3, #64]	@ 0x40
                          HAL_ADC_STATE_BUSY_INTERNAL,
                          HAL_ADC_STATE_ERROR_CONFIG);
        
        /* Set ADC error code to ADC IP internal error */
        SET_BIT(hadc->ErrorCode, HAL_ADC_ERROR_INTERNAL);
 8001876:	687b      	ldr	r3, [r7, #4]
 8001878:	6c5b      	ldr	r3, [r3, #68]	@ 0x44
 800187a:	f043 0201 	orr.w	r2, r3, #1
 800187e:	687b      	ldr	r3, [r7, #4]
 8001880:	645a      	str	r2, [r3, #68]	@ 0x44
    /* Enable external trigger if trigger selection is different of software  */
    /* start.                                                                 */
    /* Note: This configuration keeps the hardware feature of parameter       */
    /*       ExternalTrigConvEdge "trigger edge none" equivalent to           */
    /*       software start.                                                  */
    if (hadc->Init.ExternalTrigConv != ADC_SOFTWARE_START)
 8001882:	687b      	ldr	r3, [r7, #4]
 8001884:	6a9b      	ldr	r3, [r3, #40]	@ 0x28
 8001886:	2b01      	cmp	r3, #1
 8001888:	d007      	beq.n	800189a <HAL_ADC_Init+0x256>
    {
      SET_BIT(tmpCFGR, ADC_CFGR_EXTSEL_SET(hadc, hadc->Init.ExternalTrigConv) |
 800188a:	687b      	ldr	r3, [r7, #4]
 800188c:	6a9a      	ldr	r2, [r3, #40]	@ 0x28
 800188e:	687b      	ldr	r3, [r7, #4]
 8001890:	6adb      	ldr	r3, [r3, #44]	@ 0x2c
 8001892:	4313      	orrs	r3, r2
 8001894:	6e3a      	ldr	r2, [r7, #96]	@ 0x60
 8001896:	4313      	orrs	r3, r2
 8001898:	663b      	str	r3, [r7, #96]	@ 0x60
    /* Parameters update conditioned to ADC state:                            */
    /* Parameters that can be updated when ADC is disabled or enabled without */
    /* conversion on going on regular and injected groups:                    */
    /*  - DMA continuous request                                              */
    /*  - LowPowerAutoWait feature                                            */
    if (ADC_IS_CONVERSION_ONGOING_REGULAR_INJECTED(hadc) == RESET)
 800189a:	687b      	ldr	r3, [r7, #4]
 800189c:	681b      	ldr	r3, [r3, #0]
 800189e:	689b      	ldr	r3, [r3, #8]
 80018a0:	f003 030c 	and.w	r3, r3, #12
 80018a4:	2b00      	cmp	r3, #0
 80018a6:	d114      	bne.n	80018d2 <HAL_ADC_Init+0x28e>
    {
      CLEAR_BIT(hadc->Instance->CFGR, ADC_CFGR_AUTDLY |
 80018a8:	687b      	ldr	r3, [r7, #4]
 80018aa:	681b      	ldr	r3, [r3, #0]
 80018ac:	68db      	ldr	r3, [r3, #12]
 80018ae:	687a      	ldr	r2, [r7, #4]
 80018b0:	6812      	ldr	r2, [r2, #0]
 80018b2:	f423 4380 	bic.w	r3, r3, #16384	@ 0x4000
 80018b6:	f023 0302 	bic.w	r3, r3, #2
 80018ba:	60d3      	str	r3, [r2, #12]
                                      ADC_CFGR_DMACFG  );
      
      SET_BIT(tmpCFGR, ADC_CFGR_AUTOWAIT((uint32_t)hadc->Init.LowPowerAutoWait) |
 80018bc:	687b      	ldr	r3, [r7, #4]
 80018be:	7e1b      	ldrb	r3, [r3, #24]
 80018c0:	039a      	lsls	r2, r3, #14
 80018c2:	687b      	ldr	r3, [r7, #4]
 80018c4:	f893 3030 	ldrb.w	r3, [r3, #48]	@ 0x30
 80018c8:	005b      	lsls	r3, r3, #1
 80018ca:	4313      	orrs	r3, r2
 80018cc:	6e3a      	ldr	r2, [r7, #96]	@ 0x60
 80018ce:	4313      	orrs	r3, r2
 80018d0:	663b      	str	r3, [r7, #96]	@ 0x60
                       ADC_CFGR_DMACONTREQ((uint32_t)hadc->Init.DMAContinuousRequests) );
    }
    
    /* Update ADC configuration register with previous settings */
    MODIFY_REG(hadc->Instance->CFGR,
 80018d2:	687b      	ldr	r3, [r7, #4]
 80018d4:	681b      	ldr	r3, [r3, #0]
 80018d6:	68da      	ldr	r2, [r3, #12]
 80018d8:	4b22      	ldr	r3, [pc, #136]	@ (8001964 <HAL_ADC_Init+0x320>)
 80018da:	4013      	ands	r3, r2
 80018dc:	687a      	ldr	r2, [r7, #4]
 80018de:	6812      	ldr	r2, [r2, #0]
 80018e0:	6e39      	ldr	r1, [r7, #96]	@ 0x60
 80018e2:	430b      	orrs	r3, r1
 80018e4:	60d3      	str	r3, [r2, #12]
    /*   Parameter "NbrOfConversion" is discarded.                            */
    /*   Note: Scan mode is not present by hardware on this device, but       */
    /*   emulated by software for alignment over all STM32 devices.           */
    /* - if scan mode is enabled, regular channels sequence length is set to  */
    /*   parameter "NbrOfConversion"                                          */   
    if (hadc->Init.ScanConvMode == ADC_SCAN_ENABLE)
 80018e6:	687b      	ldr	r3, [r7, #4]
 80018e8:	691b      	ldr	r3, [r3, #16]
 80018ea:	2b01      	cmp	r3, #1
 80018ec:	d10c      	bne.n	8001908 <HAL_ADC_Init+0x2c4>
    {
      /* Set number of ranks in regular group sequencer */     
      MODIFY_REG(hadc->Instance->SQR1                     ,
 80018ee:	687b      	ldr	r3, [r7, #4]
 80018f0:	681b      	ldr	r3, [r3, #0]
 80018f2:	6b1b      	ldr	r3, [r3, #48]	@ 0x30
 80018f4:	f023 010f 	bic.w	r1, r3, #15
 80018f8:	687b      	ldr	r3, [r7, #4]
 80018fa:	69db      	ldr	r3, [r3, #28]
 80018fc:	1e5a      	subs	r2, r3, #1
 80018fe:	687b      	ldr	r3, [r7, #4]
 8001900:	681b      	ldr	r3, [r3, #0]
 8001902:	430a      	orrs	r2, r1
 8001904:	631a      	str	r2, [r3, #48]	@ 0x30
 8001906:	e007      	b.n	8001918 <HAL_ADC_Init+0x2d4>
                 ADC_SQR1_L                               ,
                 (hadc->Init.NbrOfConversion - (uint8_t)1U) );  
    }
    else
    {
      CLEAR_BIT(hadc->Instance->SQR1, ADC_SQR1_L);
 8001908:	687b      	ldr	r3, [r7, #4]
 800190a:	681b      	ldr	r3, [r3, #0]
 800190c:	6b1a      	ldr	r2, [r3, #48]	@ 0x30
 800190e:	687b      	ldr	r3, [r7, #4]
 8001910:	681b      	ldr	r3, [r3, #0]
 8001912:	f022 020f 	bic.w	r2, r2, #15
 8001916:	631a      	str	r2, [r3, #48]	@ 0x30
    }
    
    /* Set ADC error code to none */
    ADC_CLEAR_ERRORCODE(hadc);
 8001918:	687b      	ldr	r3, [r7, #4]
 800191a:	2200      	movs	r2, #0
 800191c:	645a      	str	r2, [r3, #68]	@ 0x44
    
    /* Set the ADC state */
    ADC_STATE_CLR_SET(hadc->State,
 800191e:	687b      	ldr	r3, [r7, #4]
 8001920:	6c1b      	ldr	r3, [r3, #64]	@ 0x40
 8001922:	f023 0303 	bic.w	r3, r3, #3
 8001926:	f043 0201 	orr.w	r2, r3, #1
 800192a:	687b      	ldr	r3, [r7, #4]
 800192c:	641a      	str	r2, [r3, #64]	@ 0x40
 800192e:	e00a      	b.n	8001946 <HAL_ADC_Init+0x302>
                      HAL_ADC_STATE_READY);
  }
  else
  {
    /* Update ADC state machine to error */
    ADC_STATE_CLR_SET(hadc->State,
 8001930:	687b      	ldr	r3, [r7, #4]
 8001932:	6c1b      	ldr	r3, [r3, #64]	@ 0x40
 8001934:	f023 0312 	bic.w	r3, r3, #18
 8001938:	f043 0210 	orr.w	r2, r3, #16
 800193c:	687b      	ldr	r3, [r7, #4]
 800193e:	641a      	str	r2, [r3, #64]	@ 0x40
                      HAL_ADC_STATE_BUSY_INTERNAL,
                      HAL_ADC_STATE_ERROR_INTERNAL);
    
    tmp_hal_status = HAL_ERROR; 
 8001940:	2301      	movs	r3, #1
 8001942:	f887 3067 	strb.w	r3, [r7, #103]	@ 0x67
  }
  
  
  /* Return function status */
  return tmp_hal_status;
 8001946:	f897 3067 	ldrb.w	r3, [r7, #103]	@ 0x67
}
 800194a:	4618      	mov	r0, r3
 800194c:	3768      	adds	r7, #104	@ 0x68
 800194e:	46bd      	mov	sp, r7
 8001950:	bd80      	pop	{r7, pc}
 8001952:	bf00      	nop
 8001954:	20000000 	.word	0x20000000
 8001958:	431bde83 	.word	0x431bde83
 800195c:	50000300 	.word	0x50000300
 8001960:	50000100 	.word	0x50000100
 8001964:	fff0c007 	.word	0xfff0c007

08001968 <HAL_ADC_Start>:
  *         if ADC is master, ADC is enabled and multimode conversion is started.
  * @param  hadc ADC handle
  * @retval HAL status
  */
HAL_StatusTypeDef HAL_ADC_Start(ADC_HandleTypeDef* hadc)
{
 8001968:	b580      	push	{r7, lr}
 800196a:	b084      	sub	sp, #16
 800196c:	af00      	add	r7, sp, #0
 800196e:	6078      	str	r0, [r7, #4]
  HAL_StatusTypeDef tmp_hal_status = HAL_OK;
 8001970:	2300      	movs	r3, #0
 8001972:	73fb      	strb	r3, [r7, #15]
  
  /* Check the parameters */
  assert_param(IS_ADC_ALL_INSTANCE(hadc->Instance));
  
  /* Perform ADC enable and conversion start if no conversion is on going */
  if (ADC_IS_CONVERSION_ONGOING_REGULAR(hadc) == RESET)
 8001974:	687b      	ldr	r3, [r7, #4]
 8001976:	681b      	ldr	r3, [r3, #0]
 8001978:	689b      	ldr	r3, [r3, #8]
 800197a:	f003 0304 	and.w	r3, r3, #4
 800197e:	2b00      	cmp	r3, #0
 8001980:	f040 809c 	bne.w	8001abc <HAL_ADC_Start+0x154>
  {
    /* Process locked */
    __HAL_LOCK(hadc);
 8001984:	687b      	ldr	r3, [r7, #4]
 8001986:	f893 303c 	ldrb.w	r3, [r3, #60]	@ 0x3c
 800198a:	2b01      	cmp	r3, #1
 800198c:	d101      	bne.n	8001992 <HAL_ADC_Start+0x2a>
 800198e:	2302      	movs	r3, #2
 8001990:	e097      	b.n	8001ac2 <HAL_ADC_Start+0x15a>
 8001992:	687b      	ldr	r3, [r7, #4]
 8001994:	2201      	movs	r2, #1
 8001996:	f883 203c 	strb.w	r2, [r3, #60]	@ 0x3c
    
    /* Enable the ADC peripheral */
    tmp_hal_status = ADC_Enable(hadc);
 800199a:	6878      	ldr	r0, [r7, #4]
 800199c:	f000 fd30 	bl	8002400 <ADC_Enable>
 80019a0:	4603      	mov	r3, r0
 80019a2:	73fb      	strb	r3, [r7, #15]
    
    /* Start conversion if ADC is effectively enabled */
    if (tmp_hal_status == HAL_OK)
 80019a4:	7bfb      	ldrb	r3, [r7, #15]
 80019a6:	2b00      	cmp	r3, #0
 80019a8:	f040 8083 	bne.w	8001ab2 <HAL_ADC_Start+0x14a>
    {
      /* Set ADC state                                                        */
      /* - Clear state bitfield related to regular group conversion results   */
      /* - Set state bitfield related to regular operation                    */
      ADC_STATE_CLR_SET(hadc->State,
 80019ac:	687b      	ldr	r3, [r7, #4]
 80019ae:	6c1b      	ldr	r3, [r3, #64]	@ 0x40
 80019b0:	f423 6370 	bic.w	r3, r3, #3840	@ 0xf00
 80019b4:	f023 0301 	bic.w	r3, r3, #1
 80019b8:	f443 7280 	orr.w	r2, r3, #256	@ 0x100
 80019bc:	687b      	ldr	r3, [r7, #4]
 80019be:	641a      	str	r2, [r3, #64]	@ 0x40
                        HAL_ADC_STATE_REG_BUSY);
      
      /* Set group injected state (from auto-injection) and multimode state   */
      /* for all cases of multimode: independent mode, multimode ADC master   */
      /* or multimode ADC slave (for devices with several ADCs):              */
      if (ADC_NONMULTIMODE_OR_MULTIMODEMASTER(hadc))
 80019c0:	4b42      	ldr	r3, [pc, #264]	@ (8001acc <HAL_ADC_Start+0x164>)
 80019c2:	689b      	ldr	r3, [r3, #8]
 80019c4:	f003 031f 	and.w	r3, r3, #31
 80019c8:	2b00      	cmp	r3, #0
 80019ca:	d004      	beq.n	80019d6 <HAL_ADC_Start+0x6e>
 80019cc:	687b      	ldr	r3, [r7, #4]
 80019ce:	681b      	ldr	r3, [r3, #0]
 80019d0:	f1b3 4fa0 	cmp.w	r3, #1342177280	@ 0x50000000
 80019d4:	d115      	bne.n	8001a02 <HAL_ADC_Start+0x9a>
      {
        /* Set ADC state (ADC independent or master) */
        CLEAR_BIT(hadc->State, HAL_ADC_STATE_MULTIMODE_SLAVE);
 80019d6:	687b      	ldr	r3, [r7, #4]
 80019d8:	6c1b      	ldr	r3, [r3, #64]	@ 0x40
 80019da:	f423 1280 	bic.w	r2, r3, #1048576	@ 0x100000
 80019de:	687b      	ldr	r3, [r7, #4]
 80019e0:	641a      	str	r2, [r3, #64]	@ 0x40
        
        /* If conversions on group regular are also triggering group injected,*/
        /* update ADC state.                                                  */
        if (READ_BIT(hadc->Instance->CFGR, ADC_CFGR_JAUTO) != RESET)
 80019e2:	687b      	ldr	r3, [r7, #4]
 80019e4:	681b      	ldr	r3, [r3, #0]
 80019e6:	68db      	ldr	r3, [r3, #12]
 80019e8:	f003 7300 	and.w	r3, r3, #33554432	@ 0x2000000
 80019ec:	2b00      	cmp	r3, #0
 80019ee:	d027      	beq.n	8001a40 <HAL_ADC_Start+0xd8>
        {
          ADC_STATE_CLR_SET(hadc->State, HAL_ADC_STATE_INJ_EOC, HAL_ADC_STATE_INJ_BUSY);  
 80019f0:	687b      	ldr	r3, [r7, #4]
 80019f2:	6c1b      	ldr	r3, [r3, #64]	@ 0x40
 80019f4:	f423 5340 	bic.w	r3, r3, #12288	@ 0x3000
 80019f8:	f443 5280 	orr.w	r2, r3, #4096	@ 0x1000
 80019fc:	687b      	ldr	r3, [r7, #4]
 80019fe:	641a      	str	r2, [r3, #64]	@ 0x40
        if (READ_BIT(hadc->Instance->CFGR, ADC_CFGR_JAUTO) != RESET)
 8001a00:	e01e      	b.n	8001a40 <HAL_ADC_Start+0xd8>
        }
      }
      else
      {
        /* Set ADC state (ADC slave) */
        SET_BIT(hadc->State, HAL_ADC_STATE_MULTIMODE_SLAVE);
 8001a02:	687b      	ldr	r3, [r7, #4]
 8001a04:	6c1b      	ldr	r3, [r3, #64]	@ 0x40
 8001a06:	f443 1280 	orr.w	r2, r3, #1048576	@ 0x100000
 8001a0a:	687b      	ldr	r3, [r7, #4]
 8001a0c:	641a      	str	r2, [r3, #64]	@ 0x40
        
        /* If conversions on group regular are also triggering group injected,*/
        /* update ADC state.                                                  */
        if (ADC_MULTIMODE_AUTO_INJECTED(hadc))
 8001a0e:	687b      	ldr	r3, [r7, #4]
 8001a10:	681b      	ldr	r3, [r3, #0]
 8001a12:	f1b3 4fa0 	cmp.w	r3, #1342177280	@ 0x50000000
 8001a16:	d004      	beq.n	8001a22 <HAL_ADC_Start+0xba>
 8001a18:	687b      	ldr	r3, [r7, #4]
 8001a1a:	681b      	ldr	r3, [r3, #0]
 8001a1c:	4a2c      	ldr	r2, [pc, #176]	@ (8001ad0 <HAL_ADC_Start+0x168>)
 8001a1e:	4293      	cmp	r3, r2
 8001a20:	d10e      	bne.n	8001a40 <HAL_ADC_Start+0xd8>
 8001a22:	f04f 43a0 	mov.w	r3, #1342177280	@ 0x50000000
 8001a26:	68db      	ldr	r3, [r3, #12]
 8001a28:	f003 7300 	and.w	r3, r3, #33554432	@ 0x2000000
 8001a2c:	2b00      	cmp	r3, #0
 8001a2e:	d007      	beq.n	8001a40 <HAL_ADC_Start+0xd8>
        {
          ADC_STATE_CLR_SET(hadc->State, HAL_ADC_STATE_INJ_EOC, HAL_ADC_STATE_INJ_BUSY);
 8001a30:	687b      	ldr	r3, [r7, #4]
 8001a32:	6c1b      	ldr	r3, [r3, #64]	@ 0x40
 8001a34:	f423 5340 	bic.w	r3, r3, #12288	@ 0x3000
 8001a38:	f443 5280 	orr.w	r2, r3, #4096	@ 0x1000
 8001a3c:	687b      	ldr	r3, [r7, #4]
 8001a3e:	641a      	str	r2, [r3, #64]	@ 0x40
        }
      }
      
      /* State machine update: Check if an injected conversion is ongoing */
      if (HAL_IS_BIT_SET(hadc->State, HAL_ADC_STATE_INJ_BUSY))
 8001a40:	687b      	ldr	r3, [r7, #4]
 8001a42:	6c1b      	ldr	r3, [r3, #64]	@ 0x40
 8001a44:	f403 5380 	and.w	r3, r3, #4096	@ 0x1000
 8001a48:	f5b3 5f80 	cmp.w	r3, #4096	@ 0x1000
 8001a4c:	d106      	bne.n	8001a5c <HAL_ADC_Start+0xf4>
      {
        /* Reset ADC error code fields related to conversions on group regular*/
        CLEAR_BIT(hadc->ErrorCode, (HAL_ADC_ERROR_OVR | HAL_ADC_ERROR_DMA));         
 8001a4e:	687b      	ldr	r3, [r7, #4]
 8001a50:	6c5b      	ldr	r3, [r3, #68]	@ 0x44
 8001a52:	f023 0206 	bic.w	r2, r3, #6
 8001a56:	687b      	ldr	r3, [r7, #4]
 8001a58:	645a      	str	r2, [r3, #68]	@ 0x44
 8001a5a:	e002      	b.n	8001a62 <HAL_ADC_Start+0xfa>
      }
      else
      {
        /* Reset ADC all error code fields */
        ADC_CLEAR_ERRORCODE(hadc);
 8001a5c:	687b      	ldr	r3, [r7, #4]
 8001a5e:	2200      	movs	r2, #0
 8001a60:	645a      	str	r2, [r3, #68]	@ 0x44
      }
      
      /* Process unlocked */
      /* Unlock before starting ADC conversions: in case of potential         */
      /* interruption, to let the process to ADC IRQ Handler.                 */
      __HAL_UNLOCK(hadc);
 8001a62:	687b      	ldr	r3, [r7, #4]
 8001a64:	2200      	movs	r2, #0
 8001a66:	f883 203c 	strb.w	r2, [r3, #60]	@ 0x3c
      
      /* Clear regular group conversion flag and overrun flag */
      /* (To ensure of no unknown state from potential previous ADC           */
      /* operations)                                                          */
      __HAL_ADC_CLEAR_FLAG(hadc, (ADC_FLAG_EOC | ADC_FLAG_EOS | ADC_FLAG_OVR));
 8001a6a:	687b      	ldr	r3, [r7, #4]
 8001a6c:	681b      	ldr	r3, [r3, #0]
 8001a6e:	221c      	movs	r2, #28
 8001a70:	601a      	str	r2, [r3, #0]
      /* If external trigger has been selected, conversion will start at next */
      /* trigger event.                                                       */
      /* Case of multimode enabled (for devices with several ADCs):           */
      /*  - if ADC is slave, ADC is enabled only (conversion is not started). */
      /*  - if ADC is master, ADC is enabled and conversion is started.       */
      if (ADC_NONMULTIMODE_REG_OR_MULTIMODEMASTER(hadc))
 8001a72:	4b16      	ldr	r3, [pc, #88]	@ (8001acc <HAL_ADC_Start+0x164>)
 8001a74:	689b      	ldr	r3, [r3, #8]
 8001a76:	f003 031f 	and.w	r3, r3, #31
 8001a7a:	2b00      	cmp	r3, #0
 8001a7c:	d010      	beq.n	8001aa0 <HAL_ADC_Start+0x138>
 8001a7e:	4b13      	ldr	r3, [pc, #76]	@ (8001acc <HAL_ADC_Start+0x164>)
 8001a80:	689b      	ldr	r3, [r3, #8]
 8001a82:	f003 031f 	and.w	r3, r3, #31
 8001a86:	2b05      	cmp	r3, #5
 8001a88:	d00a      	beq.n	8001aa0 <HAL_ADC_Start+0x138>
 8001a8a:	4b10      	ldr	r3, [pc, #64]	@ (8001acc <HAL_ADC_Start+0x164>)
 8001a8c:	689b      	ldr	r3, [r3, #8]
 8001a8e:	f003 031f 	and.w	r3, r3, #31
 8001a92:	2b09      	cmp	r3, #9
 8001a94:	d004      	beq.n	8001aa0 <HAL_ADC_Start+0x138>
 8001a96:	687b      	ldr	r3, [r7, #4]
 8001a98:	681b      	ldr	r3, [r3, #0]
 8001a9a:	f1b3 4fa0 	cmp.w	r3, #1342177280	@ 0x50000000
 8001a9e:	d10f      	bne.n	8001ac0 <HAL_ADC_Start+0x158>
      {
        SET_BIT(hadc->Instance->CR, ADC_CR_ADSTART);
 8001aa0:	687b      	ldr	r3, [r7, #4]
 8001aa2:	681b      	ldr	r3, [r3, #0]
 8001aa4:	689a      	ldr	r2, [r3, #8]
 8001aa6:	687b      	ldr	r3, [r7, #4]
 8001aa8:	681b      	ldr	r3, [r3, #0]
 8001aaa:	f042 0204 	orr.w	r2, r2, #4
 8001aae:	609a      	str	r2, [r3, #8]
 8001ab0:	e006      	b.n	8001ac0 <HAL_ADC_Start+0x158>
      }
    }
    else
    {
      /* Process unlocked */
      __HAL_UNLOCK(hadc);
 8001ab2:	687b      	ldr	r3, [r7, #4]
 8001ab4:	2200      	movs	r2, #0
 8001ab6:	f883 203c 	strb.w	r2, [r3, #60]	@ 0x3c
 8001aba:	e001      	b.n	8001ac0 <HAL_ADC_Start+0x158>
    }
  }
  else
  {
    tmp_hal_status = HAL_BUSY;
 8001abc:	2302      	movs	r3, #2
 8001abe:	73fb      	strb	r3, [r7, #15]
  }
  
  /* Return function status */
  return tmp_hal_status;
 8001ac0:	7bfb      	ldrb	r3, [r7, #15]
}
 8001ac2:	4618      	mov	r0, r3
 8001ac4:	3710      	adds	r7, #16
 8001ac6:	46bd      	mov	sp, r7
 8001ac8:	bd80      	pop	{r7, pc}
 8001aca:	bf00      	nop
 8001acc:	50000300 	.word	0x50000300
 8001ad0:	50000100 	.word	0x50000100

08001ad4 <HAL_ADC_Stop>:
  *         use function @ref HAL_ADCEx_RegularStop().
  * @param  hadc ADC handle
  * @retval HAL status.
  */
HAL_StatusTypeDef HAL_ADC_Stop(ADC_HandleTypeDef* hadc)
{
 8001ad4:	b580      	push	{r7, lr}
 8001ad6:	b084      	sub	sp, #16
 8001ad8:	af00      	add	r7, sp, #0
 8001ada:	6078      	str	r0, [r7, #4]
  HAL_StatusTypeDef tmp_hal_status = HAL_OK;
 8001adc:	2300      	movs	r3, #0
 8001ade:	73fb      	strb	r3, [r7, #15]
  
  /* Check the parameters */
  assert_param(IS_ADC_ALL_INSTANCE(hadc->Instance));
  
  /* Process locked */
  __HAL_LOCK(hadc);
 8001ae0:	687b      	ldr	r3, [r7, #4]
 8001ae2:	f893 303c 	ldrb.w	r3, [r3, #60]	@ 0x3c
 8001ae6:	2b01      	cmp	r3, #1
 8001ae8:	d101      	bne.n	8001aee <HAL_ADC_Stop+0x1a>
 8001aea:	2302      	movs	r3, #2
 8001aec:	e023      	b.n	8001b36 <HAL_ADC_Stop+0x62>
 8001aee:	687b      	ldr	r3, [r7, #4]
 8001af0:	2201      	movs	r2, #1
 8001af2:	f883 203c 	strb.w	r2, [r3, #60]	@ 0x3c
  
  /* 1. Stop potential conversion on going, on regular and injected groups */
  tmp_hal_status = ADC_ConversionStop(hadc, ADC_REGULAR_INJECTED_GROUP);
 8001af6:	216c      	movs	r1, #108	@ 0x6c
 8001af8:	6878      	ldr	r0, [r7, #4]
 8001afa:	f000 fd4b 	bl	8002594 <ADC_ConversionStop>
 8001afe:	4603      	mov	r3, r0
 8001b00:	73fb      	strb	r3, [r7, #15]
  
  /* Disable ADC peripheral if conversions are effectively stopped */
  if (tmp_hal_status == HAL_OK)
 8001b02:	7bfb      	ldrb	r3, [r7, #15]
 8001b04:	2b00      	cmp	r3, #0
 8001b06:	d111      	bne.n	8001b2c <HAL_ADC_Stop+0x58>
  {
    /* 2. Disable the ADC peripheral */
    tmp_hal_status = ADC_Disable(hadc);
 8001b08:	6878      	ldr	r0, [r7, #4]
 8001b0a:	f000 fcdd 	bl	80024c8 <ADC_Disable>
 8001b0e:	4603      	mov	r3, r0
 8001b10:	73fb      	strb	r3, [r7, #15]
    
    /* Check if ADC is effectively disabled */
    if (tmp_hal_status == HAL_OK)
 8001b12:	7bfb      	ldrb	r3, [r7, #15]
 8001b14:	2b00      	cmp	r3, #0
 8001b16:	d109      	bne.n	8001b2c <HAL_ADC_Stop+0x58>
    {
      /* Set ADC state */
      ADC_STATE_CLR_SET(hadc->State,
 8001b18:	687b      	ldr	r3, [r7, #4]
 8001b1a:	6c1b      	ldr	r3, [r3, #64]	@ 0x40
 8001b1c:	f423 5388 	bic.w	r3, r3, #4352	@ 0x1100
 8001b20:	f023 0301 	bic.w	r3, r3, #1
 8001b24:	f043 0201 	orr.w	r2, r3, #1
 8001b28:	687b      	ldr	r3, [r7, #4]
 8001b2a:	641a      	str	r2, [r3, #64]	@ 0x40
                        HAL_ADC_STATE_READY);
    }
  }

  /* Process unlocked */
  __HAL_UNLOCK(hadc);
 8001b2c:	687b      	ldr	r3, [r7, #4]
 8001b2e:	2200      	movs	r2, #0
 8001b30:	f883 203c 	strb.w	r2, [r3, #60]	@ 0x3c
  
  /* Return function status */
  return tmp_hal_status;
 8001b34:	7bfb      	ldrb	r3, [r7, #15]
}
 8001b36:	4618      	mov	r0, r3
 8001b38:	3710      	adds	r7, #16
 8001b3a:	46bd      	mov	sp, r7
 8001b3c:	bd80      	pop	{r7, pc}
	...

08001b40 <HAL_ADC_PollForConversion>:
  * @note   Depending on init parameter "EOCSelection", flags EOS or EOC is 
  *         checked and cleared depending on autodelay status (bit AUTDLY).     
  * @retval HAL status
  */
HAL_StatusTypeDef HAL_ADC_PollForConversion(ADC_HandleTypeDef* hadc, uint32_t Timeout)
{
 8001b40:	b580      	push	{r7, lr}
 8001b42:	b086      	sub	sp, #24
 8001b44:	af00      	add	r7, sp, #0
 8001b46:	6078      	str	r0, [r7, #4]
 8001b48:	6039      	str	r1, [r7, #0]
  uint32_t tickstart;
  uint32_t tmp_Flag_EOC;
  ADC_Common_TypeDef *tmpADC_Common;
  uint32_t tmp_cfgr     = 0x0U;
 8001b4a:	2300      	movs	r3, #0
 8001b4c:	613b      	str	r3, [r7, #16]
  
  /* Check the parameters */
  assert_param(IS_ADC_ALL_INSTANCE(hadc->Instance));

/* If end of conversion selected to end of sequence */
  if (hadc->Init.EOCSelection == ADC_EOC_SEQ_CONV)
 8001b4e:	687b      	ldr	r3, [r7, #4]
 8001b50:	695b      	ldr	r3, [r3, #20]
 8001b52:	2b08      	cmp	r3, #8
 8001b54:	d102      	bne.n	8001b5c <HAL_ADC_PollForConversion+0x1c>
  {
    tmp_Flag_EOC = ADC_FLAG_EOS;
 8001b56:	2308      	movs	r3, #8
 8001b58:	617b      	str	r3, [r7, #20]
 8001b5a:	e02e      	b.n	8001bba <HAL_ADC_PollForConversion+0x7a>
    /* ADC configured in DMA mode and and polling for end of each conversion. */
    
    /* Pointer to the common control register to which is belonging hadc      */
    /* (Depending on STM32F3 product, there may have up to 4 ADC and 2 common */
    /* control registers)                                                     */
    tmpADC_Common = ADC_COMMON_REGISTER(hadc);
 8001b5c:	4b5e      	ldr	r3, [pc, #376]	@ (8001cd8 <HAL_ADC_PollForConversion+0x198>)
 8001b5e:	60fb      	str	r3, [r7, #12]
    
    /* Check DMA configuration, depending on MultiMode set or not */
    if (READ_BIT(tmpADC_Common->CCR, ADC_CCR_MULTI) == ADC_MODE_INDEPENDENT)
 8001b60:	68fb      	ldr	r3, [r7, #12]
 8001b62:	689b      	ldr	r3, [r3, #8]
 8001b64:	f003 031f 	and.w	r3, r3, #31
 8001b68:	2b00      	cmp	r3, #0
 8001b6a:	d112      	bne.n	8001b92 <HAL_ADC_PollForConversion+0x52>
    {
      if (HAL_IS_BIT_SET(hadc->Instance->CFGR, ADC_CFGR_DMAEN))
 8001b6c:	687b      	ldr	r3, [r7, #4]
 8001b6e:	681b      	ldr	r3, [r3, #0]
 8001b70:	68db      	ldr	r3, [r3, #12]
 8001b72:	f003 0301 	and.w	r3, r3, #1
 8001b76:	2b01      	cmp	r3, #1
 8001b78:	d11d      	bne.n	8001bb6 <HAL_ADC_PollForConversion+0x76>
      {
        /* Update ADC state machine to error */
        SET_BIT(hadc->State, HAL_ADC_STATE_ERROR_CONFIG);
 8001b7a:	687b      	ldr	r3, [r7, #4]
 8001b7c:	6c1b      	ldr	r3, [r3, #64]	@ 0x40
 8001b7e:	f043 0220 	orr.w	r2, r3, #32
 8001b82:	687b      	ldr	r3, [r7, #4]
 8001b84:	641a      	str	r2, [r3, #64]	@ 0x40
        
        /* Process unlocked */
        __HAL_UNLOCK(hadc);
 8001b86:	687b      	ldr	r3, [r7, #4]
 8001b88:	2200      	movs	r2, #0
 8001b8a:	f883 203c 	strb.w	r2, [r3, #60]	@ 0x3c
        
        return HAL_ERROR;
 8001b8e:	2301      	movs	r3, #1
 8001b90:	e09d      	b.n	8001cce <HAL_ADC_PollForConversion+0x18e>
      }
    }
    else
    {
      /* MultiMode is enabled, Common Control Register MDMA bits must be checked */
      if (READ_BIT(tmpADC_Common->CCR, ADC_CCR_MDMA) != RESET)
 8001b92:	68fb      	ldr	r3, [r7, #12]
 8001b94:	689b      	ldr	r3, [r3, #8]
 8001b96:	f403 4340 	and.w	r3, r3, #49152	@ 0xc000
 8001b9a:	2b00      	cmp	r3, #0
 8001b9c:	d00b      	beq.n	8001bb6 <HAL_ADC_PollForConversion+0x76>
      {
        /* Update ADC state machine to error */
        SET_BIT(hadc->State, HAL_ADC_STATE_ERROR_CONFIG);
 8001b9e:	687b      	ldr	r3, [r7, #4]
 8001ba0:	6c1b      	ldr	r3, [r3, #64]	@ 0x40
 8001ba2:	f043 0220 	orr.w	r2, r3, #32
 8001ba6:	687b      	ldr	r3, [r7, #4]
 8001ba8:	641a      	str	r2, [r3, #64]	@ 0x40
        
        /* Process unlocked */
        __HAL_UNLOCK(hadc);
 8001baa:	687b      	ldr	r3, [r7, #4]
 8001bac:	2200      	movs	r2, #0
 8001bae:	f883 203c 	strb.w	r2, [r3, #60]	@ 0x3c
        
        return HAL_ERROR;
 8001bb2:	2301      	movs	r3, #1
 8001bb4:	e08b      	b.n	8001cce <HAL_ADC_PollForConversion+0x18e>
      }
    }
    
    tmp_Flag_EOC = (ADC_FLAG_EOC | ADC_FLAG_EOS);
 8001bb6:	230c      	movs	r3, #12
 8001bb8:	617b      	str	r3, [r7, #20]
  }
  
  /* Get relevant register CFGR in ADC instance of ADC master or slave      */
  /* in function of multimode state (for devices with multimode             */
  /* available).                                                            */
  if(ADC_NONMULTIMODE_OR_MULTIMODEMASTER(hadc))
 8001bba:	4b47      	ldr	r3, [pc, #284]	@ (8001cd8 <HAL_ADC_PollForConversion+0x198>)
 8001bbc:	689b      	ldr	r3, [r3, #8]
 8001bbe:	f003 031f 	and.w	r3, r3, #31
 8001bc2:	2b00      	cmp	r3, #0
 8001bc4:	d004      	beq.n	8001bd0 <HAL_ADC_PollForConversion+0x90>
 8001bc6:	687b      	ldr	r3, [r7, #4]
 8001bc8:	681b      	ldr	r3, [r3, #0]
 8001bca:	f1b3 4fa0 	cmp.w	r3, #1342177280	@ 0x50000000
 8001bce:	d104      	bne.n	8001bda <HAL_ADC_PollForConversion+0x9a>
  {
    tmp_cfgr = READ_REG(hadc->Instance->CFGR); 
 8001bd0:	687b      	ldr	r3, [r7, #4]
 8001bd2:	681b      	ldr	r3, [r3, #0]
 8001bd4:	68db      	ldr	r3, [r3, #12]
 8001bd6:	613b      	str	r3, [r7, #16]
 8001bd8:	e003      	b.n	8001be2 <HAL_ADC_PollForConversion+0xa2>
  }
  else
  {
    tmp_cfgr = READ_REG(ADC_MASTER_INSTANCE(hadc)->CFGR);
 8001bda:	f04f 43a0 	mov.w	r3, #1342177280	@ 0x50000000
 8001bde:	68db      	ldr	r3, [r3, #12]
 8001be0:	613b      	str	r3, [r7, #16]
  }
  
  /* Get tick count */
  tickstart = HAL_GetTick();  
 8001be2:	f7ff fcff 	bl	80015e4 <HAL_GetTick>
 8001be6:	60b8      	str	r0, [r7, #8]
  
  /* Wait until End of Conversion or End of Sequence flag is raised */
  while(HAL_IS_BIT_CLR(hadc->Instance->ISR, tmp_Flag_EOC))
 8001be8:	e021      	b.n	8001c2e <HAL_ADC_PollForConversion+0xee>
  {
    /* Check if timeout is disabled (set to infinite wait) */
    if(Timeout != HAL_MAX_DELAY)
 8001bea:	683b      	ldr	r3, [r7, #0]
 8001bec:	f1b3 3fff 	cmp.w	r3, #4294967295
 8001bf0:	d01d      	beq.n	8001c2e <HAL_ADC_PollForConversion+0xee>
    {
      if((Timeout == 0U) || ((HAL_GetTick() - tickstart) > Timeout))
 8001bf2:	683b      	ldr	r3, [r7, #0]
 8001bf4:	2b00      	cmp	r3, #0
 8001bf6:	d007      	beq.n	8001c08 <HAL_ADC_PollForConversion+0xc8>
 8001bf8:	f7ff fcf4 	bl	80015e4 <HAL_GetTick>
 8001bfc:	4602      	mov	r2, r0
 8001bfe:	68bb      	ldr	r3, [r7, #8]
 8001c00:	1ad3      	subs	r3, r2, r3
 8001c02:	683a      	ldr	r2, [r7, #0]
 8001c04:	429a      	cmp	r2, r3
 8001c06:	d212      	bcs.n	8001c2e <HAL_ADC_PollForConversion+0xee>
      {
        /* New check to avoid false timeout detection in case of preemption */
        if(HAL_IS_BIT_CLR(hadc->Instance->ISR, tmp_Flag_EOC))
 8001c08:	687b      	ldr	r3, [r7, #4]
 8001c0a:	681b      	ldr	r3, [r3, #0]
 8001c0c:	681a      	ldr	r2, [r3, #0]
 8001c0e:	697b      	ldr	r3, [r7, #20]
 8001c10:	4013      	ands	r3, r2
 8001c12:	2b00      	cmp	r3, #0
 8001c14:	d10b      	bne.n	8001c2e <HAL_ADC_PollForConversion+0xee>
        {
          /* Update ADC state machine to timeout */
          SET_BIT(hadc->State, HAL_ADC_STATE_TIMEOUT);
 8001c16:	687b      	ldr	r3, [r7, #4]
 8001c18:	6c1b      	ldr	r3, [r3, #64]	@ 0x40
 8001c1a:	f043 0204 	orr.w	r2, r3, #4
 8001c1e:	687b      	ldr	r3, [r7, #4]
 8001c20:	641a      	str	r2, [r3, #64]	@ 0x40

          /* Process unlocked */
          __HAL_UNLOCK(hadc);
 8001c22:	687b      	ldr	r3, [r7, #4]
 8001c24:	2200      	movs	r2, #0
 8001c26:	f883 203c 	strb.w	r2, [r3, #60]	@ 0x3c

          return HAL_TIMEOUT;
 8001c2a:	2303      	movs	r3, #3
 8001c2c:	e04f      	b.n	8001cce <HAL_ADC_PollForConversion+0x18e>
  while(HAL_IS_BIT_CLR(hadc->Instance->ISR, tmp_Flag_EOC))
 8001c2e:	687b      	ldr	r3, [r7, #4]
 8001c30:	681b      	ldr	r3, [r3, #0]
 8001c32:	681a      	ldr	r2, [r3, #0]
 8001c34:	697b      	ldr	r3, [r7, #20]
 8001c36:	4013      	ands	r3, r2
 8001c38:	2b00      	cmp	r3, #0
 8001c3a:	d0d6      	beq.n	8001bea <HAL_ADC_PollForConversion+0xaa>
      }
    }
  }
  
  /* Update ADC state machine */
  SET_BIT(hadc->State, HAL_ADC_STATE_REG_EOC);
 8001c3c:	687b      	ldr	r3, [r7, #4]
 8001c3e:	6c1b      	ldr	r3, [r3, #64]	@ 0x40
 8001c40:	f443 7200 	orr.w	r2, r3, #512	@ 0x200
 8001c44:	687b      	ldr	r3, [r7, #4]
 8001c46:	641a      	str	r2, [r3, #64]	@ 0x40
  
  /* Determine whether any further conversion upcoming on group regular       */
  /* by external trigger, continuous mode or scan sequence on going.          */
  if(ADC_IS_SOFTWARE_START_REGULAR(hadc)           && 
 8001c48:	687b      	ldr	r3, [r7, #4]
 8001c4a:	681b      	ldr	r3, [r3, #0]
 8001c4c:	68db      	ldr	r3, [r3, #12]
 8001c4e:	f403 6340 	and.w	r3, r3, #3072	@ 0xc00
 8001c52:	2b00      	cmp	r3, #0
 8001c54:	d131      	bne.n	8001cba <HAL_ADC_PollForConversion+0x17a>
     (READ_BIT (tmp_cfgr, ADC_CFGR_CONT) == RESET)   )
 8001c56:	693b      	ldr	r3, [r7, #16]
 8001c58:	f403 5300 	and.w	r3, r3, #8192	@ 0x2000
  if(ADC_IS_SOFTWARE_START_REGULAR(hadc)           && 
 8001c5c:	2b00      	cmp	r3, #0
 8001c5e:	d12c      	bne.n	8001cba <HAL_ADC_PollForConversion+0x17a>
  {
    /* If End of Sequence is reached, disable interrupts */
    if( __HAL_ADC_GET_FLAG(hadc, ADC_FLAG_EOS) )
 8001c60:	687b      	ldr	r3, [r7, #4]
 8001c62:	681b      	ldr	r3, [r3, #0]
 8001c64:	681b      	ldr	r3, [r3, #0]
 8001c66:	f003 0308 	and.w	r3, r3, #8
 8001c6a:	2b08      	cmp	r3, #8
 8001c6c:	d125      	bne.n	8001cba <HAL_ADC_PollForConversion+0x17a>
    {
      /* Allowed to modify bits ADC_IT_EOC/ADC_IT_EOS only if bit             */
      /* ADSTART==0 (no conversion on going)                                  */
      if (ADC_IS_CONVERSION_ONGOING_REGULAR(hadc) == RESET)
 8001c6e:	687b      	ldr	r3, [r7, #4]
 8001c70:	681b      	ldr	r3, [r3, #0]
 8001c72:	689b      	ldr	r3, [r3, #8]
 8001c74:	f003 0304 	and.w	r3, r3, #4
 8001c78:	2b00      	cmp	r3, #0
 8001c7a:	d112      	bne.n	8001ca2 <HAL_ADC_PollForConversion+0x162>
      {        
        /* Set ADC state */
        CLEAR_BIT(hadc->State, HAL_ADC_STATE_REG_BUSY);   
 8001c7c:	687b      	ldr	r3, [r7, #4]
 8001c7e:	6c1b      	ldr	r3, [r3, #64]	@ 0x40
 8001c80:	f423 7280 	bic.w	r2, r3, #256	@ 0x100
 8001c84:	687b      	ldr	r3, [r7, #4]
 8001c86:	641a      	str	r2, [r3, #64]	@ 0x40
        
        if (HAL_IS_BIT_CLR(hadc->State, HAL_ADC_STATE_INJ_BUSY))
 8001c88:	687b      	ldr	r3, [r7, #4]
 8001c8a:	6c1b      	ldr	r3, [r3, #64]	@ 0x40
 8001c8c:	f403 5380 	and.w	r3, r3, #4096	@ 0x1000
 8001c90:	2b00      	cmp	r3, #0
 8001c92:	d112      	bne.n	8001cba <HAL_ADC_PollForConversion+0x17a>
        {
          SET_BIT(hadc->State, HAL_ADC_STATE_READY);
 8001c94:	687b      	ldr	r3, [r7, #4]
 8001c96:	6c1b      	ldr	r3, [r3, #64]	@ 0x40
 8001c98:	f043 0201 	orr.w	r2, r3, #1
 8001c9c:	687b      	ldr	r3, [r7, #4]
 8001c9e:	641a      	str	r2, [r3, #64]	@ 0x40
 8001ca0:	e00b      	b.n	8001cba <HAL_ADC_PollForConversion+0x17a>
        }
      }
      else
      {
        /* Change ADC state to error state */
        SET_BIT(hadc->State, HAL_ADC_STATE_ERROR_CONFIG);
 8001ca2:	687b      	ldr	r3, [r7, #4]
 8001ca4:	6c1b      	ldr	r3, [r3, #64]	@ 0x40
 8001ca6:	f043 0220 	orr.w	r2, r3, #32
 8001caa:	687b      	ldr	r3, [r7, #4]
 8001cac:	641a      	str	r2, [r3, #64]	@ 0x40
        
        /* Set ADC error code to ADC IP internal error */
        SET_BIT(hadc->ErrorCode, HAL_ADC_ERROR_INTERNAL);
 8001cae:	687b      	ldr	r3, [r7, #4]
 8001cb0:	6c5b      	ldr	r3, [r3, #68]	@ 0x44
 8001cb2:	f043 0201 	orr.w	r2, r3, #1
 8001cb6:	687b      	ldr	r3, [r7, #4]
 8001cb8:	645a      	str	r2, [r3, #68]	@ 0x44
  }
  
  /* Clear end of conversion flag of regular group if low power feature       */
  /* "LowPowerAutoWait " is disabled, to not interfere with this feature      */
  /* until data register is read using function HAL_ADC_GetValue().           */
  if (READ_BIT (tmp_cfgr, ADC_CFGR_AUTDLY) == RESET)
 8001cba:	693b      	ldr	r3, [r7, #16]
 8001cbc:	f403 4380 	and.w	r3, r3, #16384	@ 0x4000
 8001cc0:	2b00      	cmp	r3, #0
 8001cc2:	d103      	bne.n	8001ccc <HAL_ADC_PollForConversion+0x18c>
  {
    /* Clear regular group conversion flag */
    /* (EOC or EOS depending on HAL ADC initialization parameter) */
    __HAL_ADC_CLEAR_FLAG(hadc, tmp_Flag_EOC);
 8001cc4:	687b      	ldr	r3, [r7, #4]
 8001cc6:	681b      	ldr	r3, [r3, #0]
 8001cc8:	697a      	ldr	r2, [r7, #20]
 8001cca:	601a      	str	r2, [r3, #0]
  }
  
  /* Return ADC state */
  return HAL_OK;
 8001ccc:	2300      	movs	r3, #0
}
 8001cce:	4618      	mov	r0, r3
 8001cd0:	3718      	adds	r7, #24
 8001cd2:	46bd      	mov	sp, r7
 8001cd4:	bd80      	pop	{r7, pc}
 8001cd6:	bf00      	nop
 8001cd8:	50000300 	.word	0x50000300

08001cdc <HAL_ADC_GetValue>:
  *         or @ref __HAL_ADC_CLEAR_FLAG(&hadc, ADC_FLAG_EOS).
  * @param  hadc ADC handle
  * @retval ADC group regular conversion data
  */
uint32_t HAL_ADC_GetValue(ADC_HandleTypeDef* hadc)
{
 8001cdc:	b480      	push	{r7}
 8001cde:	b083      	sub	sp, #12
 8001ce0:	af00      	add	r7, sp, #0
 8001ce2:	6078      	str	r0, [r7, #4]

  /* Note: ADC flag EOC is not cleared here by software because               */
  /*       automatically cleared by hardware when reading register DR.        */
  
  /* Return ADC converted value */ 
  return hadc->Instance->DR;
 8001ce4:	687b      	ldr	r3, [r7, #4]
 8001ce6:	681b      	ldr	r3, [r3, #0]
 8001ce8:	6c1b      	ldr	r3, [r3, #64]	@ 0x40
}
 8001cea:	4618      	mov	r0, r3
 8001cec:	370c      	adds	r7, #12
 8001cee:	46bd      	mov	sp, r7
 8001cf0:	f85d 7b04 	ldr.w	r7, [sp], #4
 8001cf4:	4770      	bx	lr
	...

08001cf8 <HAL_ADC_ConfigChannel>:
  * @param  hadc ADC handle
  * @param  sConfig Structure ADC channel for regular group.
  * @retval HAL status
  */
HAL_StatusTypeDef HAL_ADC_ConfigChannel(ADC_HandleTypeDef* hadc, ADC_ChannelConfTypeDef* sConfig)
{
 8001cf8:	b480      	push	{r7}
 8001cfa:	b09b      	sub	sp, #108	@ 0x6c
 8001cfc:	af00      	add	r7, sp, #0
 8001cfe:	6078      	str	r0, [r7, #4]
 8001d00:	6039      	str	r1, [r7, #0]
  HAL_StatusTypeDef tmp_hal_status = HAL_OK;
 8001d02:	2300      	movs	r3, #0
 8001d04:	f887 3067 	strb.w	r3, [r7, #103]	@ 0x67
  ADC_Common_TypeDef *tmpADC_Common;
  ADC_HandleTypeDef tmphadcSharingSameCommonRegister;
  uint32_t tmpOffsetShifted;
  __IO uint32_t wait_loop_index = 0U;
 8001d08:	2300      	movs	r3, #0
 8001d0a:	60bb      	str	r3, [r7, #8]
  {
    assert_param(IS_ADC_DIFF_CHANNEL(sConfig->Channel));
  }
  
  /* Process locked */
  __HAL_LOCK(hadc);
 8001d0c:	687b      	ldr	r3, [r7, #4]
 8001d0e:	f893 303c 	ldrb.w	r3, [r3, #60]	@ 0x3c
 8001d12:	2b01      	cmp	r3, #1
 8001d14:	d101      	bne.n	8001d1a <HAL_ADC_ConfigChannel+0x22>
 8001d16:	2302      	movs	r3, #2
 8001d18:	e2a1      	b.n	800225e <HAL_ADC_ConfigChannel+0x566>
 8001d1a:	687b      	ldr	r3, [r7, #4]
 8001d1c:	2201      	movs	r2, #1
 8001d1e:	f883 203c 	strb.w	r2, [r3, #60]	@ 0x3c
  /* Parameters update conditioned to ADC state:                              */
  /* Parameters that can be updated when ADC is disabled or enabled without   */
  /* conversion on going on regular group:                                    */
  /*  - Channel number                                                        */
  /*  - Channel rank                                                          */
  if (ADC_IS_CONVERSION_ONGOING_REGULAR(hadc) == RESET)
 8001d22:	687b      	ldr	r3, [r7, #4]
 8001d24:	681b      	ldr	r3, [r3, #0]
 8001d26:	689b      	ldr	r3, [r3, #8]
 8001d28:	f003 0304 	and.w	r3, r3, #4
 8001d2c:	2b00      	cmp	r3, #0
 8001d2e:	f040 8285 	bne.w	800223c <HAL_ADC_ConfigChannel+0x544>
  {
    /* Regular sequence configuration */
    /* For Rank 1 to 4U */
    if (sConfig->Rank < 5U)
 8001d32:	683b      	ldr	r3, [r7, #0]
 8001d34:	685b      	ldr	r3, [r3, #4]
 8001d36:	2b04      	cmp	r3, #4
 8001d38:	d81c      	bhi.n	8001d74 <HAL_ADC_ConfigChannel+0x7c>
    {
      MODIFY_REG(hadc->Instance->SQR1,
 8001d3a:	687b      	ldr	r3, [r7, #4]
 8001d3c:	681b      	ldr	r3, [r3, #0]
 8001d3e:	6b19      	ldr	r1, [r3, #48]	@ 0x30
 8001d40:	683b      	ldr	r3, [r7, #0]
 8001d42:	685a      	ldr	r2, [r3, #4]
 8001d44:	4613      	mov	r3, r2
 8001d46:	005b      	lsls	r3, r3, #1
 8001d48:	4413      	add	r3, r2
 8001d4a:	005b      	lsls	r3, r3, #1
 8001d4c:	461a      	mov	r2, r3
 8001d4e:	231f      	movs	r3, #31
 8001d50:	4093      	lsls	r3, r2
 8001d52:	43db      	mvns	r3, r3
 8001d54:	4019      	ands	r1, r3
 8001d56:	683b      	ldr	r3, [r7, #0]
 8001d58:	6818      	ldr	r0, [r3, #0]
 8001d5a:	683b      	ldr	r3, [r7, #0]
 8001d5c:	685a      	ldr	r2, [r3, #4]
 8001d5e:	4613      	mov	r3, r2
 8001d60:	005b      	lsls	r3, r3, #1
 8001d62:	4413      	add	r3, r2
 8001d64:	005b      	lsls	r3, r3, #1
 8001d66:	fa00 f203 	lsl.w	r2, r0, r3
 8001d6a:	687b      	ldr	r3, [r7, #4]
 8001d6c:	681b      	ldr	r3, [r3, #0]
 8001d6e:	430a      	orrs	r2, r1
 8001d70:	631a      	str	r2, [r3, #48]	@ 0x30
 8001d72:	e063      	b.n	8001e3c <HAL_ADC_ConfigChannel+0x144>
                 ADC_SQR1_RK(ADC_SQR2_SQ5, sConfig->Rank)    ,
                 ADC_SQR1_RK(sConfig->Channel, sConfig->Rank) );
    }
    /* For Rank 5 to 9U */
    else if (sConfig->Rank < 10U)
 8001d74:	683b      	ldr	r3, [r7, #0]
 8001d76:	685b      	ldr	r3, [r3, #4]
 8001d78:	2b09      	cmp	r3, #9
 8001d7a:	d81e      	bhi.n	8001dba <HAL_ADC_ConfigChannel+0xc2>
    {
      MODIFY_REG(hadc->Instance->SQR2,
 8001d7c:	687b      	ldr	r3, [r7, #4]
 8001d7e:	681b      	ldr	r3, [r3, #0]
 8001d80:	6b59      	ldr	r1, [r3, #52]	@ 0x34
 8001d82:	683b      	ldr	r3, [r7, #0]
 8001d84:	685a      	ldr	r2, [r3, #4]
 8001d86:	4613      	mov	r3, r2
 8001d88:	005b      	lsls	r3, r3, #1
 8001d8a:	4413      	add	r3, r2
 8001d8c:	005b      	lsls	r3, r3, #1
 8001d8e:	3b1e      	subs	r3, #30
 8001d90:	221f      	movs	r2, #31
 8001d92:	fa02 f303 	lsl.w	r3, r2, r3
 8001d96:	43db      	mvns	r3, r3
 8001d98:	4019      	ands	r1, r3
 8001d9a:	683b      	ldr	r3, [r7, #0]
 8001d9c:	6818      	ldr	r0, [r3, #0]
 8001d9e:	683b      	ldr	r3, [r7, #0]
 8001da0:	685a      	ldr	r2, [r3, #4]
 8001da2:	4613      	mov	r3, r2
 8001da4:	005b      	lsls	r3, r3, #1
 8001da6:	4413      	add	r3, r2
 8001da8:	005b      	lsls	r3, r3, #1
 8001daa:	3b1e      	subs	r3, #30
 8001dac:	fa00 f203 	lsl.w	r2, r0, r3
 8001db0:	687b      	ldr	r3, [r7, #4]
 8001db2:	681b      	ldr	r3, [r3, #0]
 8001db4:	430a      	orrs	r2, r1
 8001db6:	635a      	str	r2, [r3, #52]	@ 0x34
 8001db8:	e040      	b.n	8001e3c <HAL_ADC_ConfigChannel+0x144>
                 ADC_SQR2_RK(ADC_SQR2_SQ5, sConfig->Rank)    ,
                 ADC_SQR2_RK(sConfig->Channel, sConfig->Rank) );
    }
    /* For Rank 10 to 14U */
    else if (sConfig->Rank < 15U)
 8001dba:	683b      	ldr	r3, [r7, #0]
 8001dbc:	685b      	ldr	r3, [r3, #4]
 8001dbe:	2b0e      	cmp	r3, #14
 8001dc0:	d81e      	bhi.n	8001e00 <HAL_ADC_ConfigChannel+0x108>
    {
      MODIFY_REG(hadc->Instance->SQR3                        ,
 8001dc2:	687b      	ldr	r3, [r7, #4]
 8001dc4:	681b      	ldr	r3, [r3, #0]
 8001dc6:	6b99      	ldr	r1, [r3, #56]	@ 0x38
 8001dc8:	683b      	ldr	r3, [r7, #0]
 8001dca:	685a      	ldr	r2, [r3, #4]
 8001dcc:	4613      	mov	r3, r2
 8001dce:	005b      	lsls	r3, r3, #1
 8001dd0:	4413      	add	r3, r2
 8001dd2:	005b      	lsls	r3, r3, #1
 8001dd4:	3b3c      	subs	r3, #60	@ 0x3c
 8001dd6:	221f      	movs	r2, #31
 8001dd8:	fa02 f303 	lsl.w	r3, r2, r3
 8001ddc:	43db      	mvns	r3, r3
 8001dde:	4019      	ands	r1, r3
 8001de0:	683b      	ldr	r3, [r7, #0]
 8001de2:	6818      	ldr	r0, [r3, #0]
 8001de4:	683b      	ldr	r3, [r7, #0]
 8001de6:	685a      	ldr	r2, [r3, #4]
 8001de8:	4613      	mov	r3, r2
 8001dea:	005b      	lsls	r3, r3, #1
 8001dec:	4413      	add	r3, r2
 8001dee:	005b      	lsls	r3, r3, #1
 8001df0:	3b3c      	subs	r3, #60	@ 0x3c
 8001df2:	fa00 f203 	lsl.w	r2, r0, r3
 8001df6:	687b      	ldr	r3, [r7, #4]
 8001df8:	681b      	ldr	r3, [r3, #0]
 8001dfa:	430a      	orrs	r2, r1
 8001dfc:	639a      	str	r2, [r3, #56]	@ 0x38
 8001dfe:	e01d      	b.n	8001e3c <HAL_ADC_ConfigChannel+0x144>
                 ADC_SQR3_RK(sConfig->Channel, sConfig->Rank) );
    }
    /* For Rank 15 to 16U */
    else
    {   
      MODIFY_REG(hadc->Instance->SQR4                        ,
 8001e00:	687b      	ldr	r3, [r7, #4]
 8001e02:	681b      	ldr	r3, [r3, #0]
 8001e04:	6bd9      	ldr	r1, [r3, #60]	@ 0x3c
 8001e06:	683b      	ldr	r3, [r7, #0]
 8001e08:	685a      	ldr	r2, [r3, #4]
 8001e0a:	4613      	mov	r3, r2
 8001e0c:	005b      	lsls	r3, r3, #1
 8001e0e:	4413      	add	r3, r2
 8001e10:	005b      	lsls	r3, r3, #1
 8001e12:	3b5a      	subs	r3, #90	@ 0x5a
 8001e14:	221f      	movs	r2, #31
 8001e16:	fa02 f303 	lsl.w	r3, r2, r3
 8001e1a:	43db      	mvns	r3, r3
 8001e1c:	4019      	ands	r1, r3
 8001e1e:	683b      	ldr	r3, [r7, #0]
 8001e20:	6818      	ldr	r0, [r3, #0]
 8001e22:	683b      	ldr	r3, [r7, #0]
 8001e24:	685a      	ldr	r2, [r3, #4]
 8001e26:	4613      	mov	r3, r2
 8001e28:	005b      	lsls	r3, r3, #1
 8001e2a:	4413      	add	r3, r2
 8001e2c:	005b      	lsls	r3, r3, #1
 8001e2e:	3b5a      	subs	r3, #90	@ 0x5a
 8001e30:	fa00 f203 	lsl.w	r2, r0, r3
 8001e34:	687b      	ldr	r3, [r7, #4]
 8001e36:	681b      	ldr	r3, [r3, #0]
 8001e38:	430a      	orrs	r2, r1
 8001e3a:	63da      	str	r2, [r3, #60]	@ 0x3c
  /* Parameters update conditioned to ADC state:                              */
  /* Parameters that can be updated when ADC is disabled or enabled without   */
  /* conversion on going on regular group:                                    */
  /*  - Channel sampling time                                                 */
  /*  - Channel offset                                                        */
  if (ADC_IS_CONVERSION_ONGOING_REGULAR_INJECTED(hadc) == RESET)
 8001e3c:	687b      	ldr	r3, [r7, #4]
 8001e3e:	681b      	ldr	r3, [r3, #0]
 8001e40:	689b      	ldr	r3, [r3, #8]
 8001e42:	f003 030c 	and.w	r3, r3, #12
 8001e46:	2b00      	cmp	r3, #0
 8001e48:	f040 80e5 	bne.w	8002016 <HAL_ADC_ConfigChannel+0x31e>
  {
    /* Channel sampling time configuration */
    /* For channels 10 to 18U */
    if (sConfig->Channel >= ADC_CHANNEL_10)
 8001e4c:	683b      	ldr	r3, [r7, #0]
 8001e4e:	681b      	ldr	r3, [r3, #0]
 8001e50:	2b09      	cmp	r3, #9
 8001e52:	d91c      	bls.n	8001e8e <HAL_ADC_ConfigChannel+0x196>
    {
      MODIFY_REG(hadc->Instance->SMPR2                             ,
 8001e54:	687b      	ldr	r3, [r7, #4]
 8001e56:	681b      	ldr	r3, [r3, #0]
 8001e58:	6999      	ldr	r1, [r3, #24]
 8001e5a:	683b      	ldr	r3, [r7, #0]
 8001e5c:	681a      	ldr	r2, [r3, #0]
 8001e5e:	4613      	mov	r3, r2
 8001e60:	005b      	lsls	r3, r3, #1
 8001e62:	4413      	add	r3, r2
 8001e64:	3b1e      	subs	r3, #30
 8001e66:	2207      	movs	r2, #7
 8001e68:	fa02 f303 	lsl.w	r3, r2, r3
 8001e6c:	43db      	mvns	r3, r3
 8001e6e:	4019      	ands	r1, r3
 8001e70:	683b      	ldr	r3, [r7, #0]
 8001e72:	6898      	ldr	r0, [r3, #8]
 8001e74:	683b      	ldr	r3, [r7, #0]
 8001e76:	681a      	ldr	r2, [r3, #0]
 8001e78:	4613      	mov	r3, r2
 8001e7a:	005b      	lsls	r3, r3, #1
 8001e7c:	4413      	add	r3, r2
 8001e7e:	3b1e      	subs	r3, #30
 8001e80:	fa00 f203 	lsl.w	r2, r0, r3
 8001e84:	687b      	ldr	r3, [r7, #4]
 8001e86:	681b      	ldr	r3, [r3, #0]
 8001e88:	430a      	orrs	r2, r1
 8001e8a:	619a      	str	r2, [r3, #24]
 8001e8c:	e019      	b.n	8001ec2 <HAL_ADC_ConfigChannel+0x1ca>
                 ADC_SMPR2(ADC_SMPR2_SMP10, sConfig->Channel)      ,
                 ADC_SMPR2(sConfig->SamplingTime, sConfig->Channel) );
    }
    else /* For channels 1 to 9U */
    {
      MODIFY_REG(hadc->Instance->SMPR1                             ,
 8001e8e:	687b      	ldr	r3, [r7, #4]
 8001e90:	681b      	ldr	r3, [r3, #0]
 8001e92:	6959      	ldr	r1, [r3, #20]
 8001e94:	683b      	ldr	r3, [r7, #0]
 8001e96:	681a      	ldr	r2, [r3, #0]
 8001e98:	4613      	mov	r3, r2
 8001e9a:	005b      	lsls	r3, r3, #1
 8001e9c:	4413      	add	r3, r2
 8001e9e:	2207      	movs	r2, #7
 8001ea0:	fa02 f303 	lsl.w	r3, r2, r3
 8001ea4:	43db      	mvns	r3, r3
 8001ea6:	4019      	ands	r1, r3
 8001ea8:	683b      	ldr	r3, [r7, #0]
 8001eaa:	6898      	ldr	r0, [r3, #8]
 8001eac:	683b      	ldr	r3, [r7, #0]
 8001eae:	681a      	ldr	r2, [r3, #0]
 8001eb0:	4613      	mov	r3, r2
 8001eb2:	005b      	lsls	r3, r3, #1
 8001eb4:	4413      	add	r3, r2
 8001eb6:	fa00 f203 	lsl.w	r2, r0, r3
 8001eba:	687b      	ldr	r3, [r7, #4]
 8001ebc:	681b      	ldr	r3, [r3, #0]
 8001ebe:	430a      	orrs	r2, r1
 8001ec0:	615a      	str	r2, [r3, #20]
    /* Configure the offset: offset enable/disable, channel, offset value */

    /* Shift the offset in function of the selected ADC resolution. */
    /* Offset has to be left-aligned on bit 11U, the LSB (right bits) are set  */
    /* to 0.                                                                  */
    tmpOffsetShifted = ADC_OFFSET_SHIFT_RESOLUTION(hadc, sConfig->Offset);
 8001ec2:	683b      	ldr	r3, [r7, #0]
 8001ec4:	695a      	ldr	r2, [r3, #20]
 8001ec6:	687b      	ldr	r3, [r7, #4]
 8001ec8:	681b      	ldr	r3, [r3, #0]
 8001eca:	68db      	ldr	r3, [r3, #12]
 8001ecc:	08db      	lsrs	r3, r3, #3
 8001ece:	f003 0303 	and.w	r3, r3, #3
 8001ed2:	005b      	lsls	r3, r3, #1
 8001ed4:	fa02 f303 	lsl.w	r3, r2, r3
 8001ed8:	663b      	str	r3, [r7, #96]	@ 0x60
    
    /* Configure the selected offset register:                                */
    /* - Enable offset                                                        */
    /* - Set channel number                                                   */
    /* - Set offset value                                                     */
    switch (sConfig->OffsetNumber)
 8001eda:	683b      	ldr	r3, [r7, #0]
 8001edc:	691b      	ldr	r3, [r3, #16]
 8001ede:	3b01      	subs	r3, #1
 8001ee0:	2b03      	cmp	r3, #3
 8001ee2:	d84f      	bhi.n	8001f84 <HAL_ADC_ConfigChannel+0x28c>
 8001ee4:	a201      	add	r2, pc, #4	@ (adr r2, 8001eec <HAL_ADC_ConfigChannel+0x1f4>)
 8001ee6:	f852 f023 	ldr.w	pc, [r2, r3, lsl #2]
 8001eea:	bf00      	nop
 8001eec:	08001efd 	.word	0x08001efd
 8001ef0:	08001f1f 	.word	0x08001f1f
 8001ef4:	08001f41 	.word	0x08001f41
 8001ef8:	08001f63 	.word	0x08001f63
    {
    case ADC_OFFSET_1:
      /* Configure offset register 1U */
      MODIFY_REG(hadc->Instance->OFR1               ,
 8001efc:	687b      	ldr	r3, [r7, #4]
 8001efe:	681b      	ldr	r3, [r3, #0]
 8001f00:	6e1a      	ldr	r2, [r3, #96]	@ 0x60
 8001f02:	4b9c      	ldr	r3, [pc, #624]	@ (8002174 <HAL_ADC_ConfigChannel+0x47c>)
 8001f04:	4013      	ands	r3, r2
 8001f06:	683a      	ldr	r2, [r7, #0]
 8001f08:	6812      	ldr	r2, [r2, #0]
 8001f0a:	0691      	lsls	r1, r2, #26
 8001f0c:	6e3a      	ldr	r2, [r7, #96]	@ 0x60
 8001f0e:	430a      	orrs	r2, r1
 8001f10:	431a      	orrs	r2, r3
 8001f12:	687b      	ldr	r3, [r7, #4]
 8001f14:	681b      	ldr	r3, [r3, #0]
 8001f16:	f042 4200 	orr.w	r2, r2, #2147483648	@ 0x80000000
 8001f1a:	661a      	str	r2, [r3, #96]	@ 0x60
                 ADC_OFR1_OFFSET1_CH |
                 ADC_OFR1_OFFSET1                   ,
                 ADC_OFR1_OFFSET1_EN               |
                 ADC_OFR_CHANNEL(sConfig->Channel) |
                 tmpOffsetShifted                    );
      break;
 8001f1c:	e07b      	b.n	8002016 <HAL_ADC_ConfigChannel+0x31e>
    
    case ADC_OFFSET_2:
      /* Configure offset register 2U */
      MODIFY_REG(hadc->Instance->OFR2               ,
 8001f1e:	687b      	ldr	r3, [r7, #4]
 8001f20:	681b      	ldr	r3, [r3, #0]
 8001f22:	6e5a      	ldr	r2, [r3, #100]	@ 0x64
 8001f24:	4b93      	ldr	r3, [pc, #588]	@ (8002174 <HAL_ADC_ConfigChannel+0x47c>)
 8001f26:	4013      	ands	r3, r2
 8001f28:	683a      	ldr	r2, [r7, #0]
 8001f2a:	6812      	ldr	r2, [r2, #0]
 8001f2c:	0691      	lsls	r1, r2, #26
 8001f2e:	6e3a      	ldr	r2, [r7, #96]	@ 0x60
 8001f30:	430a      	orrs	r2, r1
 8001f32:	431a      	orrs	r2, r3
 8001f34:	687b      	ldr	r3, [r7, #4]
 8001f36:	681b      	ldr	r3, [r3, #0]
 8001f38:	f042 4200 	orr.w	r2, r2, #2147483648	@ 0x80000000
 8001f3c:	665a      	str	r2, [r3, #100]	@ 0x64
                 ADC_OFR2_OFFSET2_CH |
                 ADC_OFR2_OFFSET2                   ,
                 ADC_OFR2_OFFSET2_EN               |
                 ADC_OFR_CHANNEL(sConfig->Channel) |
                 tmpOffsetShifted                    );
      break;
 8001f3e:	e06a      	b.n	8002016 <HAL_ADC_ConfigChannel+0x31e>
        
    case ADC_OFFSET_3:
      /* Configure offset register 3U */
      MODIFY_REG(hadc->Instance->OFR3               ,
 8001f40:	687b      	ldr	r3, [r7, #4]
 8001f42:	681b      	ldr	r3, [r3, #0]
 8001f44:	6e9a      	ldr	r2, [r3, #104]	@ 0x68
 8001f46:	4b8b      	ldr	r3, [pc, #556]	@ (8002174 <HAL_ADC_ConfigChannel+0x47c>)
 8001f48:	4013      	ands	r3, r2
 8001f4a:	683a      	ldr	r2, [r7, #0]
 8001f4c:	6812      	ldr	r2, [r2, #0]
 8001f4e:	0691      	lsls	r1, r2, #26
 8001f50:	6e3a      	ldr	r2, [r7, #96]	@ 0x60
 8001f52:	430a      	orrs	r2, r1
 8001f54:	431a      	orrs	r2, r3
 8001f56:	687b      	ldr	r3, [r7, #4]
 8001f58:	681b      	ldr	r3, [r3, #0]
 8001f5a:	f042 4200 	orr.w	r2, r2, #2147483648	@ 0x80000000
 8001f5e:	669a      	str	r2, [r3, #104]	@ 0x68
                 ADC_OFR3_OFFSET3_CH |
                 ADC_OFR3_OFFSET3                   ,
                 ADC_OFR3_OFFSET3_EN               |
                 ADC_OFR_CHANNEL(sConfig->Channel) |
                 tmpOffsetShifted                    );
      break;
 8001f60:	e059      	b.n	8002016 <HAL_ADC_ConfigChannel+0x31e>
    
    case ADC_OFFSET_4:
      /* Configure offset register 4U */
      MODIFY_REG(hadc->Instance->OFR4               ,
 8001f62:	687b      	ldr	r3, [r7, #4]
 8001f64:	681b      	ldr	r3, [r3, #0]
 8001f66:	6eda      	ldr	r2, [r3, #108]	@ 0x6c
 8001f68:	4b82      	ldr	r3, [pc, #520]	@ (8002174 <HAL_ADC_ConfigChannel+0x47c>)
 8001f6a:	4013      	ands	r3, r2
 8001f6c:	683a      	ldr	r2, [r7, #0]
 8001f6e:	6812      	ldr	r2, [r2, #0]
 8001f70:	0691      	lsls	r1, r2, #26
 8001f72:	6e3a      	ldr	r2, [r7, #96]	@ 0x60
 8001f74:	430a      	orrs	r2, r1
 8001f76:	431a      	orrs	r2, r3
 8001f78:	687b      	ldr	r3, [r7, #4]
 8001f7a:	681b      	ldr	r3, [r3, #0]
 8001f7c:	f042 4200 	orr.w	r2, r2, #2147483648	@ 0x80000000
 8001f80:	66da      	str	r2, [r3, #108]	@ 0x6c
                 ADC_OFR4_OFFSET4_CH |
                 ADC_OFR4_OFFSET4                   ,
                 ADC_OFR4_OFFSET4_EN               |
                 ADC_OFR_CHANNEL(sConfig->Channel) |
                 tmpOffsetShifted                    );
      break;
 8001f82:	e048      	b.n	8002016 <HAL_ADC_ConfigChannel+0x31e>
    
    /* Case ADC_OFFSET_NONE */
    default :
    /* Scan OFR1, OFR2, OFR3, OFR4 to check if the selected channel is        */
    /* enabled. If this is the case, offset OFRx is disabled.                 */
      if (((hadc->Instance->OFR1) & ADC_OFR1_OFFSET1_CH) == ADC_OFR_CHANNEL(sConfig->Channel))
 8001f84:	687b      	ldr	r3, [r7, #4]
 8001f86:	681b      	ldr	r3, [r3, #0]
 8001f88:	6e1b      	ldr	r3, [r3, #96]	@ 0x60
 8001f8a:	f003 42f8 	and.w	r2, r3, #2080374784	@ 0x7c000000
 8001f8e:	683b      	ldr	r3, [r7, #0]
 8001f90:	681b      	ldr	r3, [r3, #0]
 8001f92:	069b      	lsls	r3, r3, #26
 8001f94:	429a      	cmp	r2, r3
 8001f96:	d107      	bne.n	8001fa8 <HAL_ADC_ConfigChannel+0x2b0>
      {
        /* Disable offset OFR1*/
        CLEAR_BIT(hadc->Instance->OFR1, ADC_OFR1_OFFSET1_EN);
 8001f98:	687b      	ldr	r3, [r7, #4]
 8001f9a:	681b      	ldr	r3, [r3, #0]
 8001f9c:	6e1a      	ldr	r2, [r3, #96]	@ 0x60
 8001f9e:	687b      	ldr	r3, [r7, #4]
 8001fa0:	681b      	ldr	r3, [r3, #0]
 8001fa2:	f022 4200 	bic.w	r2, r2, #2147483648	@ 0x80000000
 8001fa6:	661a      	str	r2, [r3, #96]	@ 0x60
      }
      if (((hadc->Instance->OFR2) & ADC_OFR2_OFFSET2_CH) == ADC_OFR_CHANNEL(sConfig->Channel))
 8001fa8:	687b      	ldr	r3, [r7, #4]
 8001faa:	681b      	ldr	r3, [r3, #0]
 8001fac:	6e5b      	ldr	r3, [r3, #100]	@ 0x64
 8001fae:	f003 42f8 	and.w	r2, r3, #2080374784	@ 0x7c000000
 8001fb2:	683b      	ldr	r3, [r7, #0]
 8001fb4:	681b      	ldr	r3, [r3, #0]
 8001fb6:	069b      	lsls	r3, r3, #26
 8001fb8:	429a      	cmp	r2, r3
 8001fba:	d107      	bne.n	8001fcc <HAL_ADC_ConfigChannel+0x2d4>
      {
        /* Disable offset OFR2*/
        CLEAR_BIT(hadc->Instance->OFR2, ADC_OFR2_OFFSET2_EN); 
 8001fbc:	687b      	ldr	r3, [r7, #4]
 8001fbe:	681b      	ldr	r3, [r3, #0]
 8001fc0:	6e5a      	ldr	r2, [r3, #100]	@ 0x64
 8001fc2:	687b      	ldr	r3, [r7, #4]
 8001fc4:	681b      	ldr	r3, [r3, #0]
 8001fc6:	f022 4200 	bic.w	r2, r2, #2147483648	@ 0x80000000
 8001fca:	665a      	str	r2, [r3, #100]	@ 0x64
      }
      if (((hadc->Instance->OFR3) & ADC_OFR3_OFFSET3_CH) == ADC_OFR_CHANNEL(sConfig->Channel))
 8001fcc:	687b      	ldr	r3, [r7, #4]
 8001fce:	681b      	ldr	r3, [r3, #0]
 8001fd0:	6e9b      	ldr	r3, [r3, #104]	@ 0x68
 8001fd2:	f003 42f8 	and.w	r2, r3, #2080374784	@ 0x7c000000
 8001fd6:	683b      	ldr	r3, [r7, #0]
 8001fd8:	681b      	ldr	r3, [r3, #0]
 8001fda:	069b      	lsls	r3, r3, #26
 8001fdc:	429a      	cmp	r2, r3
 8001fde:	d107      	bne.n	8001ff0 <HAL_ADC_ConfigChannel+0x2f8>
      {
        /* Disable offset OFR3*/
        CLEAR_BIT(hadc->Instance->OFR3, ADC_OFR3_OFFSET3_EN);
 8001fe0:	687b      	ldr	r3, [r7, #4]
 8001fe2:	681b      	ldr	r3, [r3, #0]
 8001fe4:	6e9a      	ldr	r2, [r3, #104]	@ 0x68
 8001fe6:	687b      	ldr	r3, [r7, #4]
 8001fe8:	681b      	ldr	r3, [r3, #0]
 8001fea:	f022 4200 	bic.w	r2, r2, #2147483648	@ 0x80000000
 8001fee:	669a      	str	r2, [r3, #104]	@ 0x68
      }
      if (((hadc->Instance->OFR4) & ADC_OFR4_OFFSET4_CH) == ADC_OFR_CHANNEL(sConfig->Channel))
 8001ff0:	687b      	ldr	r3, [r7, #4]
 8001ff2:	681b      	ldr	r3, [r3, #0]
 8001ff4:	6edb      	ldr	r3, [r3, #108]	@ 0x6c
 8001ff6:	f003 42f8 	and.w	r2, r3, #2080374784	@ 0x7c000000
 8001ffa:	683b      	ldr	r3, [r7, #0]
 8001ffc:	681b      	ldr	r3, [r3, #0]
 8001ffe:	069b      	lsls	r3, r3, #26
 8002000:	429a      	cmp	r2, r3
 8002002:	d107      	bne.n	8002014 <HAL_ADC_ConfigChannel+0x31c>
      {
        /* Disable offset OFR4*/
        CLEAR_BIT(hadc->Instance->OFR4, ADC_OFR4_OFFSET4_EN);
 8002004:	687b      	ldr	r3, [r7, #4]
 8002006:	681b      	ldr	r3, [r3, #0]
 8002008:	6eda      	ldr	r2, [r3, #108]	@ 0x6c
 800200a:	687b      	ldr	r3, [r7, #4]
 800200c:	681b      	ldr	r3, [r3, #0]
 800200e:	f022 4200 	bic.w	r2, r2, #2147483648	@ 0x80000000
 8002012:	66da      	str	r2, [r3, #108]	@ 0x6c
      }
      break;
 8002014:	bf00      	nop

  /* Parameters update conditioned to ADC state:                              */
  /* Parameters that can be updated only when ADC is disabled:                */
  /*  - Single or differential mode                                           */
  /*  - Internal measurement channels: Vbat/VrefInt/TempSensor                */
  if (ADC_IS_ENABLE(hadc) == RESET)
 8002016:	687b      	ldr	r3, [r7, #4]
 8002018:	681b      	ldr	r3, [r3, #0]
 800201a:	689b      	ldr	r3, [r3, #8]
 800201c:	f003 0303 	and.w	r3, r3, #3
 8002020:	2b01      	cmp	r3, #1
 8002022:	d108      	bne.n	8002036 <HAL_ADC_ConfigChannel+0x33e>
 8002024:	687b      	ldr	r3, [r7, #4]
 8002026:	681b      	ldr	r3, [r3, #0]
 8002028:	681b      	ldr	r3, [r3, #0]
 800202a:	f003 0301 	and.w	r3, r3, #1
 800202e:	2b01      	cmp	r3, #1
 8002030:	d101      	bne.n	8002036 <HAL_ADC_ConfigChannel+0x33e>
 8002032:	2301      	movs	r3, #1
 8002034:	e000      	b.n	8002038 <HAL_ADC_ConfigChannel+0x340>
 8002036:	2300      	movs	r3, #0
 8002038:	2b00      	cmp	r3, #0
 800203a:	f040 810a 	bne.w	8002252 <HAL_ADC_ConfigChannel+0x55a>
  {
    /* Configuration of differential mode */
    if (sConfig->SingleDiff != ADC_DIFFERENTIAL_ENDED)
 800203e:	683b      	ldr	r3, [r7, #0]
 8002040:	68db      	ldr	r3, [r3, #12]
 8002042:	2b01      	cmp	r3, #1
 8002044:	d00f      	beq.n	8002066 <HAL_ADC_ConfigChannel+0x36e>
    {
      /* Disable differential mode (default mode: single-ended) */
      CLEAR_BIT(hadc->Instance->DIFSEL, ADC_DIFSEL_CHANNEL(sConfig->Channel));
 8002046:	687b      	ldr	r3, [r7, #4]
 8002048:	681b      	ldr	r3, [r3, #0]
 800204a:	f8d3 10b0 	ldr.w	r1, [r3, #176]	@ 0xb0
 800204e:	683b      	ldr	r3, [r7, #0]
 8002050:	681b      	ldr	r3, [r3, #0]
 8002052:	2201      	movs	r2, #1
 8002054:	fa02 f303 	lsl.w	r3, r2, r3
 8002058:	43da      	mvns	r2, r3
 800205a:	687b      	ldr	r3, [r7, #4]
 800205c:	681b      	ldr	r3, [r3, #0]
 800205e:	400a      	ands	r2, r1
 8002060:	f8c3 20b0 	str.w	r2, [r3, #176]	@ 0xb0
 8002064:	e049      	b.n	80020fa <HAL_ADC_ConfigChannel+0x402>
    }
    else
    {
      /* Enable differential mode */
      SET_BIT(hadc->Instance->DIFSEL, ADC_DIFSEL_CHANNEL(sConfig->Channel));
 8002066:	687b      	ldr	r3, [r7, #4]
 8002068:	681b      	ldr	r3, [r3, #0]
 800206a:	f8d3 10b0 	ldr.w	r1, [r3, #176]	@ 0xb0
 800206e:	683b      	ldr	r3, [r7, #0]
 8002070:	681b      	ldr	r3, [r3, #0]
 8002072:	2201      	movs	r2, #1
 8002074:	409a      	lsls	r2, r3
 8002076:	687b      	ldr	r3, [r7, #4]
 8002078:	681b      	ldr	r3, [r3, #0]
 800207a:	430a      	orrs	r2, r1
 800207c:	f8c3 20b0 	str.w	r2, [r3, #176]	@ 0xb0
      
      /* Channel sampling time configuration (channel ADC_INx +1              */
      /* corresponding to differential negative input).                       */
      /* For channels 10 to 18U */
      if (sConfig->Channel >= ADC_CHANNEL_10)
 8002080:	683b      	ldr	r3, [r7, #0]
 8002082:	681b      	ldr	r3, [r3, #0]
 8002084:	2b09      	cmp	r3, #9
 8002086:	d91c      	bls.n	80020c2 <HAL_ADC_ConfigChannel+0x3ca>
      {
        MODIFY_REG(hadc->Instance->SMPR2,
 8002088:	687b      	ldr	r3, [r7, #4]
 800208a:	681b      	ldr	r3, [r3, #0]
 800208c:	6999      	ldr	r1, [r3, #24]
 800208e:	683b      	ldr	r3, [r7, #0]
 8002090:	681a      	ldr	r2, [r3, #0]
 8002092:	4613      	mov	r3, r2
 8002094:	005b      	lsls	r3, r3, #1
 8002096:	4413      	add	r3, r2
 8002098:	3b1b      	subs	r3, #27
 800209a:	2207      	movs	r2, #7
 800209c:	fa02 f303 	lsl.w	r3, r2, r3
 80020a0:	43db      	mvns	r3, r3
 80020a2:	4019      	ands	r1, r3
 80020a4:	683b      	ldr	r3, [r7, #0]
 80020a6:	6898      	ldr	r0, [r3, #8]
 80020a8:	683b      	ldr	r3, [r7, #0]
 80020aa:	681a      	ldr	r2, [r3, #0]
 80020ac:	4613      	mov	r3, r2
 80020ae:	005b      	lsls	r3, r3, #1
 80020b0:	4413      	add	r3, r2
 80020b2:	3b1b      	subs	r3, #27
 80020b4:	fa00 f203 	lsl.w	r2, r0, r3
 80020b8:	687b      	ldr	r3, [r7, #4]
 80020ba:	681b      	ldr	r3, [r3, #0]
 80020bc:	430a      	orrs	r2, r1
 80020be:	619a      	str	r2, [r3, #24]
 80020c0:	e01b      	b.n	80020fa <HAL_ADC_ConfigChannel+0x402>
                   ADC_SMPR2(ADC_SMPR2_SMP10, sConfig->Channel +1U)      ,
                   ADC_SMPR2(sConfig->SamplingTime, sConfig->Channel +1U) );
      }
      else /* For channels 1 to 9U */
      {
        MODIFY_REG(hadc->Instance->SMPR1,
 80020c2:	687b      	ldr	r3, [r7, #4]
 80020c4:	681b      	ldr	r3, [r3, #0]
 80020c6:	6959      	ldr	r1, [r3, #20]
 80020c8:	683b      	ldr	r3, [r7, #0]
 80020ca:	681b      	ldr	r3, [r3, #0]
 80020cc:	1c5a      	adds	r2, r3, #1
 80020ce:	4613      	mov	r3, r2
 80020d0:	005b      	lsls	r3, r3, #1
 80020d2:	4413      	add	r3, r2
 80020d4:	2207      	movs	r2, #7
 80020d6:	fa02 f303 	lsl.w	r3, r2, r3
 80020da:	43db      	mvns	r3, r3
 80020dc:	4019      	ands	r1, r3
 80020de:	683b      	ldr	r3, [r7, #0]
 80020e0:	6898      	ldr	r0, [r3, #8]
 80020e2:	683b      	ldr	r3, [r7, #0]
 80020e4:	681b      	ldr	r3, [r3, #0]
 80020e6:	1c5a      	adds	r2, r3, #1
 80020e8:	4613      	mov	r3, r2
 80020ea:	005b      	lsls	r3, r3, #1
 80020ec:	4413      	add	r3, r2
 80020ee:	fa00 f203 	lsl.w	r2, r0, r3
 80020f2:	687b      	ldr	r3, [r7, #4]
 80020f4:	681b      	ldr	r3, [r3, #0]
 80020f6:	430a      	orrs	r2, r1
 80020f8:	615a      	str	r2, [r3, #20]
       
    /* Configuration of common ADC parameters                                 */
    /* Pointer to the common control register to which is belonging hadc      */
    /* (Depending on STM32F3 product, there may be up to 4 ADC and 2 common   */
    /* control registers)                                                     */
    tmpADC_Common = ADC_COMMON_REGISTER(hadc);
 80020fa:	4b1f      	ldr	r3, [pc, #124]	@ (8002178 <HAL_ADC_ConfigChannel+0x480>)
 80020fc:	65fb      	str	r3, [r7, #92]	@ 0x5c
  
    /* If the requested internal measurement path has already been enabled,   */
    /* bypass the configuration processing.                                   */
    if (( (sConfig->Channel == ADC_CHANNEL_TEMPSENSOR) &&
 80020fe:	683b      	ldr	r3, [r7, #0]
 8002100:	681b      	ldr	r3, [r3, #0]
 8002102:	2b10      	cmp	r3, #16
 8002104:	d105      	bne.n	8002112 <HAL_ADC_ConfigChannel+0x41a>
          (HAL_IS_BIT_CLR(tmpADC_Common->CCR, ADC_CCR_TSEN))            ) ||
 8002106:	6dfb      	ldr	r3, [r7, #92]	@ 0x5c
 8002108:	689b      	ldr	r3, [r3, #8]
 800210a:	f403 0300 	and.w	r3, r3, #8388608	@ 0x800000
    if (( (sConfig->Channel == ADC_CHANNEL_TEMPSENSOR) &&
 800210e:	2b00      	cmp	r3, #0
 8002110:	d015      	beq.n	800213e <HAL_ADC_ConfigChannel+0x446>
        ( (sConfig->Channel == ADC_CHANNEL_VBAT)       &&
 8002112:	683b      	ldr	r3, [r7, #0]
 8002114:	681b      	ldr	r3, [r3, #0]
          (HAL_IS_BIT_CLR(tmpADC_Common->CCR, ADC_CCR_TSEN))            ) ||
 8002116:	2b11      	cmp	r3, #17
 8002118:	d105      	bne.n	8002126 <HAL_ADC_ConfigChannel+0x42e>
          (HAL_IS_BIT_CLR(tmpADC_Common->CCR, ADC_CCR_VBATEN))          ) ||
 800211a:	6dfb      	ldr	r3, [r7, #92]	@ 0x5c
 800211c:	689b      	ldr	r3, [r3, #8]
 800211e:	f003 7380 	and.w	r3, r3, #16777216	@ 0x1000000
        ( (sConfig->Channel == ADC_CHANNEL_VBAT)       &&
 8002122:	2b00      	cmp	r3, #0
 8002124:	d00b      	beq.n	800213e <HAL_ADC_ConfigChannel+0x446>
        ( (sConfig->Channel == ADC_CHANNEL_VREFINT)    &&
 8002126:	683b      	ldr	r3, [r7, #0]
 8002128:	681b      	ldr	r3, [r3, #0]
          (HAL_IS_BIT_CLR(tmpADC_Common->CCR, ADC_CCR_VBATEN))          ) ||
 800212a:	2b12      	cmp	r3, #18
 800212c:	f040 8091 	bne.w	8002252 <HAL_ADC_ConfigChannel+0x55a>
          (HAL_IS_BIT_CLR(tmpADC_Common->CCR, ADC_CCR_VREFEN)))
 8002130:	6dfb      	ldr	r3, [r7, #92]	@ 0x5c
 8002132:	689b      	ldr	r3, [r3, #8]
 8002134:	f403 0380 	and.w	r3, r3, #4194304	@ 0x400000
        ( (sConfig->Channel == ADC_CHANNEL_VREFINT)    &&
 8002138:	2b00      	cmp	r3, #0
 800213a:	f040 808a 	bne.w	8002252 <HAL_ADC_ConfigChannel+0x55a>
       )
    {
      /* Configuration of common ADC parameters (continuation)                */
      /* Set handle of the other ADC sharing the same common register         */
      ADC_COMMON_ADC_OTHER(hadc, &tmphadcSharingSameCommonRegister);
 800213e:	687b      	ldr	r3, [r7, #4]
 8002140:	681b      	ldr	r3, [r3, #0]
 8002142:	f1b3 4fa0 	cmp.w	r3, #1342177280	@ 0x50000000
 8002146:	d102      	bne.n	800214e <HAL_ADC_ConfigChannel+0x456>
 8002148:	4b0c      	ldr	r3, [pc, #48]	@ (800217c <HAL_ADC_ConfigChannel+0x484>)
 800214a:	60fb      	str	r3, [r7, #12]
 800214c:	e002      	b.n	8002154 <HAL_ADC_ConfigChannel+0x45c>
 800214e:	f04f 43a0 	mov.w	r3, #1342177280	@ 0x50000000
 8002152:	60fb      	str	r3, [r7, #12]
      
      /* Software is allowed to change common parameters only when all ADCs   */
      /* of the common group are disabled.                                    */
      if ((ADC_IS_ENABLE(hadc) == RESET)                                    &&
 8002154:	687b      	ldr	r3, [r7, #4]
 8002156:	681b      	ldr	r3, [r3, #0]
 8002158:	689b      	ldr	r3, [r3, #8]
 800215a:	f003 0303 	and.w	r3, r3, #3
 800215e:	2b01      	cmp	r3, #1
 8002160:	d10e      	bne.n	8002180 <HAL_ADC_ConfigChannel+0x488>
 8002162:	687b      	ldr	r3, [r7, #4]
 8002164:	681b      	ldr	r3, [r3, #0]
 8002166:	681b      	ldr	r3, [r3, #0]
 8002168:	f003 0301 	and.w	r3, r3, #1
 800216c:	2b01      	cmp	r3, #1
 800216e:	d107      	bne.n	8002180 <HAL_ADC_ConfigChannel+0x488>
 8002170:	2301      	movs	r3, #1
 8002172:	e006      	b.n	8002182 <HAL_ADC_ConfigChannel+0x48a>
 8002174:	83fff000 	.word	0x83fff000
 8002178:	50000300 	.word	0x50000300
 800217c:	50000100 	.word	0x50000100
 8002180:	2300      	movs	r3, #0
 8002182:	2b00      	cmp	r3, #0
 8002184:	d150      	bne.n	8002228 <HAL_ADC_ConfigChannel+0x530>
          ( (tmphadcSharingSameCommonRegister.Instance == NULL)         ||
 8002186:	68fb      	ldr	r3, [r7, #12]
      if ((ADC_IS_ENABLE(hadc) == RESET)                                    &&
 8002188:	2b00      	cmp	r3, #0
 800218a:	d010      	beq.n	80021ae <HAL_ADC_ConfigChannel+0x4b6>
            (ADC_IS_ENABLE(&tmphadcSharingSameCommonRegister) == RESET)   )   )
 800218c:	68fb      	ldr	r3, [r7, #12]
 800218e:	689b      	ldr	r3, [r3, #8]
 8002190:	f003 0303 	and.w	r3, r3, #3
 8002194:	2b01      	cmp	r3, #1
 8002196:	d107      	bne.n	80021a8 <HAL_ADC_ConfigChannel+0x4b0>
 8002198:	68fb      	ldr	r3, [r7, #12]
 800219a:	681b      	ldr	r3, [r3, #0]
 800219c:	f003 0301 	and.w	r3, r3, #1
 80021a0:	2b01      	cmp	r3, #1
 80021a2:	d101      	bne.n	80021a8 <HAL_ADC_ConfigChannel+0x4b0>
 80021a4:	2301      	movs	r3, #1
 80021a6:	e000      	b.n	80021aa <HAL_ADC_ConfigChannel+0x4b2>
 80021a8:	2300      	movs	r3, #0
          ( (tmphadcSharingSameCommonRegister.Instance == NULL)         ||
 80021aa:	2b00      	cmp	r3, #0
 80021ac:	d13c      	bne.n	8002228 <HAL_ADC_ConfigChannel+0x530>
      {
        /* If Channel_16 is selected, enable Temp. sensor measurement path    */
        /* Note: Temp. sensor internal channels available on ADC1 only        */
        if ((sConfig->Channel == ADC_CHANNEL_TEMPSENSOR) && (hadc->Instance == ADC1))
 80021ae:	683b      	ldr	r3, [r7, #0]
 80021b0:	681b      	ldr	r3, [r3, #0]
 80021b2:	2b10      	cmp	r3, #16
 80021b4:	d11d      	bne.n	80021f2 <HAL_ADC_ConfigChannel+0x4fa>
 80021b6:	687b      	ldr	r3, [r7, #4]
 80021b8:	681b      	ldr	r3, [r3, #0]
 80021ba:	f1b3 4fa0 	cmp.w	r3, #1342177280	@ 0x50000000
 80021be:	d118      	bne.n	80021f2 <HAL_ADC_ConfigChannel+0x4fa>
        {
          SET_BIT(tmpADC_Common->CCR, ADC_CCR_TSEN);
 80021c0:	6dfb      	ldr	r3, [r7, #92]	@ 0x5c
 80021c2:	689b      	ldr	r3, [r3, #8]
 80021c4:	f443 0200 	orr.w	r2, r3, #8388608	@ 0x800000
 80021c8:	6dfb      	ldr	r3, [r7, #92]	@ 0x5c
 80021ca:	609a      	str	r2, [r3, #8]
          
          /* Delay for temperature sensor stabilization time */
          /* Compute number of CPU cycles to wait for */
          wait_loop_index = (ADC_TEMPSENSOR_DELAY_US * (SystemCoreClock / 1000000U));
 80021cc:	4b27      	ldr	r3, [pc, #156]	@ (800226c <HAL_ADC_ConfigChannel+0x574>)
 80021ce:	681b      	ldr	r3, [r3, #0]
 80021d0:	4a27      	ldr	r2, [pc, #156]	@ (8002270 <HAL_ADC_ConfigChannel+0x578>)
 80021d2:	fba2 2303 	umull	r2, r3, r2, r3
 80021d6:	0c9a      	lsrs	r2, r3, #18
 80021d8:	4613      	mov	r3, r2
 80021da:	009b      	lsls	r3, r3, #2
 80021dc:	4413      	add	r3, r2
 80021de:	005b      	lsls	r3, r3, #1
 80021e0:	60bb      	str	r3, [r7, #8]
          while(wait_loop_index != 0U)
 80021e2:	e002      	b.n	80021ea <HAL_ADC_ConfigChannel+0x4f2>
          {
            wait_loop_index--;
 80021e4:	68bb      	ldr	r3, [r7, #8]
 80021e6:	3b01      	subs	r3, #1
 80021e8:	60bb      	str	r3, [r7, #8]
          while(wait_loop_index != 0U)
 80021ea:	68bb      	ldr	r3, [r7, #8]
 80021ec:	2b00      	cmp	r3, #0
 80021ee:	d1f9      	bne.n	80021e4 <HAL_ADC_ConfigChannel+0x4ec>
        if ((sConfig->Channel == ADC_CHANNEL_TEMPSENSOR) && (hadc->Instance == ADC1))
 80021f0:	e02e      	b.n	8002250 <HAL_ADC_ConfigChannel+0x558>
          }
        }
        /* If Channel_17 is selected, enable VBAT measurement path            */
        /* Note: VBAT internal channels available on ADC1 only                */
        else if ((sConfig->Channel == ADC_CHANNEL_VBAT) && (hadc->Instance == ADC1))
 80021f2:	683b      	ldr	r3, [r7, #0]
 80021f4:	681b      	ldr	r3, [r3, #0]
 80021f6:	2b11      	cmp	r3, #17
 80021f8:	d10b      	bne.n	8002212 <HAL_ADC_ConfigChannel+0x51a>
 80021fa:	687b      	ldr	r3, [r7, #4]
 80021fc:	681b      	ldr	r3, [r3, #0]
 80021fe:	f1b3 4fa0 	cmp.w	r3, #1342177280	@ 0x50000000
 8002202:	d106      	bne.n	8002212 <HAL_ADC_ConfigChannel+0x51a>
        {
          SET_BIT(tmpADC_Common->CCR, ADC_CCR_VBATEN);
 8002204:	6dfb      	ldr	r3, [r7, #92]	@ 0x5c
 8002206:	689b      	ldr	r3, [r3, #8]
 8002208:	f043 7280 	orr.w	r2, r3, #16777216	@ 0x1000000
 800220c:	6dfb      	ldr	r3, [r7, #92]	@ 0x5c
 800220e:	609a      	str	r2, [r3, #8]
        if ((sConfig->Channel == ADC_CHANNEL_TEMPSENSOR) && (hadc->Instance == ADC1))
 8002210:	e01e      	b.n	8002250 <HAL_ADC_ConfigChannel+0x558>
        }
        /* If Channel_18 is selected, enable VREFINT measurement path         */
        /* Note: VrefInt internal channels available on all ADCs, but only    */
        /*       one ADC is allowed to be connected to VrefInt at the same    */
        /*       time.                                                        */
        else if (sConfig->Channel == ADC_CHANNEL_VREFINT)
 8002212:	683b      	ldr	r3, [r7, #0]
 8002214:	681b      	ldr	r3, [r3, #0]
 8002216:	2b12      	cmp	r3, #18
 8002218:	d11a      	bne.n	8002250 <HAL_ADC_ConfigChannel+0x558>
        {
          SET_BIT(tmpADC_Common->CCR, ADC_CCR_VREFEN);
 800221a:	6dfb      	ldr	r3, [r7, #92]	@ 0x5c
 800221c:	689b      	ldr	r3, [r3, #8]
 800221e:	f443 0280 	orr.w	r2, r3, #4194304	@ 0x400000
 8002222:	6dfb      	ldr	r3, [r7, #92]	@ 0x5c
 8002224:	609a      	str	r2, [r3, #8]
        if ((sConfig->Channel == ADC_CHANNEL_TEMPSENSOR) && (hadc->Instance == ADC1))
 8002226:	e013      	b.n	8002250 <HAL_ADC_ConfigChannel+0x558>
      /* enabled and other ADC of the common group are enabled, internal      */
      /* measurement paths cannot be enabled.                                 */
      else  
      {
        /* Update ADC state machine to error */
        SET_BIT(hadc->State, HAL_ADC_STATE_ERROR_CONFIG);
 8002228:	687b      	ldr	r3, [r7, #4]
 800222a:	6c1b      	ldr	r3, [r3, #64]	@ 0x40
 800222c:	f043 0220 	orr.w	r2, r3, #32
 8002230:	687b      	ldr	r3, [r7, #4]
 8002232:	641a      	str	r2, [r3, #64]	@ 0x40
        
        tmp_hal_status = HAL_ERROR;
 8002234:	2301      	movs	r3, #1
 8002236:	f887 3067 	strb.w	r3, [r7, #103]	@ 0x67
 800223a:	e00a      	b.n	8002252 <HAL_ADC_ConfigChannel+0x55a>
  /* channel could be done on neither of the channel configuration structure  */
  /* parameters.                                                              */
  else
  {
    /* Update ADC state machine to error */
    SET_BIT(hadc->State, HAL_ADC_STATE_ERROR_CONFIG);
 800223c:	687b      	ldr	r3, [r7, #4]
 800223e:	6c1b      	ldr	r3, [r3, #64]	@ 0x40
 8002240:	f043 0220 	orr.w	r2, r3, #32
 8002244:	687b      	ldr	r3, [r7, #4]
 8002246:	641a      	str	r2, [r3, #64]	@ 0x40
    
    tmp_hal_status = HAL_ERROR;
 8002248:	2301      	movs	r3, #1
 800224a:	f887 3067 	strb.w	r3, [r7, #103]	@ 0x67
 800224e:	e000      	b.n	8002252 <HAL_ADC_ConfigChannel+0x55a>
        if ((sConfig->Channel == ADC_CHANNEL_TEMPSENSOR) && (hadc->Instance == ADC1))
 8002250:	bf00      	nop
  }
  
  /* Process unlocked */
  __HAL_UNLOCK(hadc);
 8002252:	687b      	ldr	r3, [r7, #4]
 8002254:	2200      	movs	r2, #0
 8002256:	f883 203c 	strb.w	r2, [r3, #60]	@ 0x3c
  
  /* Return function status */
  return tmp_hal_status;
 800225a:	f897 3067 	ldrb.w	r3, [r7, #103]	@ 0x67
}
 800225e:	4618      	mov	r0, r3
 8002260:	376c      	adds	r7, #108	@ 0x6c
 8002262:	46bd      	mov	sp, r7
 8002264:	f85d 7b04 	ldr.w	r7, [sp], #4
 8002268:	4770      	bx	lr
 800226a:	bf00      	nop
 800226c:	20000000 	.word	0x20000000
 8002270:	431bde83 	.word	0x431bde83

08002274 <HAL_ADCEx_MultiModeConfigChannel>:
  * @param  hadc ADC handle
  * @param  multimode Structure of ADC multimode configuration
  * @retval HAL status
  */
HAL_StatusTypeDef HAL_ADCEx_MultiModeConfigChannel(ADC_HandleTypeDef* hadc, ADC_MultiModeTypeDef* multimode)
{
 8002274:	b480      	push	{r7}
 8002276:	b099      	sub	sp, #100	@ 0x64
 8002278:	af00      	add	r7, sp, #0
 800227a:	6078      	str	r0, [r7, #4]
 800227c:	6039      	str	r1, [r7, #0]
  HAL_StatusTypeDef tmp_hal_status = HAL_OK;
 800227e:	2300      	movs	r3, #0
 8002280:	f887 305f 	strb.w	r3, [r7, #95]	@ 0x5f
    assert_param(IS_ADC_DMA_ACCESS_MODE(multimode->DMAAccessMode));
    assert_param(IS_ADC_SAMPLING_DELAY(multimode->TwoSamplingDelay));
  }
  
  /* Set handle of the other ADC sharing the same common register             */
  ADC_COMMON_ADC_OTHER(hadc, &tmphadcSharingSameCommonRegister);
 8002284:	687b      	ldr	r3, [r7, #4]
 8002286:	681b      	ldr	r3, [r3, #0]
 8002288:	f1b3 4fa0 	cmp.w	r3, #1342177280	@ 0x50000000
 800228c:	d102      	bne.n	8002294 <HAL_ADCEx_MultiModeConfigChannel+0x20>
 800228e:	4b5a      	ldr	r3, [pc, #360]	@ (80023f8 <HAL_ADCEx_MultiModeConfigChannel+0x184>)
 8002290:	60bb      	str	r3, [r7, #8]
 8002292:	e002      	b.n	800229a <HAL_ADCEx_MultiModeConfigChannel+0x26>
 8002294:	f04f 43a0 	mov.w	r3, #1342177280	@ 0x50000000
 8002298:	60bb      	str	r3, [r7, #8]
  if (tmphadcSharingSameCommonRegister.Instance == NULL)
 800229a:	68bb      	ldr	r3, [r7, #8]
 800229c:	2b00      	cmp	r3, #0
 800229e:	d101      	bne.n	80022a4 <HAL_ADCEx_MultiModeConfigChannel+0x30>
  {
    /* Return function status */
    return HAL_ERROR;
 80022a0:	2301      	movs	r3, #1
 80022a2:	e0a2      	b.n	80023ea <HAL_ADCEx_MultiModeConfigChannel+0x176>
  }

  /* Process locked */
  __HAL_LOCK(hadc);
 80022a4:	687b      	ldr	r3, [r7, #4]
 80022a6:	f893 303c 	ldrb.w	r3, [r3, #60]	@ 0x3c
 80022aa:	2b01      	cmp	r3, #1
 80022ac:	d101      	bne.n	80022b2 <HAL_ADCEx_MultiModeConfigChannel+0x3e>
 80022ae:	2302      	movs	r3, #2
 80022b0:	e09b      	b.n	80023ea <HAL_ADCEx_MultiModeConfigChannel+0x176>
 80022b2:	687b      	ldr	r3, [r7, #4]
 80022b4:	2201      	movs	r2, #1
 80022b6:	f883 203c 	strb.w	r2, [r3, #60]	@ 0x3c
  /* Parameters update conditioned to ADC state:                              */
  /* Parameters that can be updated when ADC is disabled or enabled without   */
  /* conversion on going on regular group:                                    */
  /*  - Multimode DMA configuration                                           */
  /*  - Multimode DMA mode                                                    */
  if ( (ADC_IS_CONVERSION_ONGOING_REGULAR(hadc) == RESET) 
 80022ba:	687b      	ldr	r3, [r7, #4]
 80022bc:	681b      	ldr	r3, [r3, #0]
 80022be:	689b      	ldr	r3, [r3, #8]
 80022c0:	f003 0304 	and.w	r3, r3, #4
 80022c4:	2b00      	cmp	r3, #0
 80022c6:	d17f      	bne.n	80023c8 <HAL_ADCEx_MultiModeConfigChannel+0x154>
    && (ADC_IS_CONVERSION_ONGOING_REGULAR(&tmphadcSharingSameCommonRegister) == RESET) )
 80022c8:	68bb      	ldr	r3, [r7, #8]
 80022ca:	689b      	ldr	r3, [r3, #8]
 80022cc:	f003 0304 	and.w	r3, r3, #4
 80022d0:	2b00      	cmp	r3, #0
 80022d2:	d179      	bne.n	80023c8 <HAL_ADCEx_MultiModeConfigChannel+0x154>
  {
    /* Pointer to the common control register to which is belonging hadc      */
    /* (Depending on STM32F3 product, there may have up to 4 ADC and 2 common */
    /* control registers)                                                     */
    tmpADC_Common = ADC_COMMON_REGISTER(hadc);
 80022d4:	4b49      	ldr	r3, [pc, #292]	@ (80023fc <HAL_ADCEx_MultiModeConfigChannel+0x188>)
 80022d6:	65bb      	str	r3, [r7, #88]	@ 0x58
    
    /* If multimode is selected, configure all multimode parameters.          */
    /* Otherwise, reset multimode parameters (can be used in case of          */
    /* transition from multimode to independent mode).                        */
    if(multimode->Mode != ADC_MODE_INDEPENDENT)
 80022d8:	683b      	ldr	r3, [r7, #0]
 80022da:	681b      	ldr	r3, [r3, #0]
 80022dc:	2b00      	cmp	r3, #0
 80022de:	d040      	beq.n	8002362 <HAL_ADCEx_MultiModeConfigChannel+0xee>
    {
      /* Configuration of ADC common group ADC1&ADC2, ADC3&ADC4 if available    */
      /* (ADC2, ADC3, ADC4 availability depends on STM32 product)               */
      /*  - DMA access mode                                                     */
      MODIFY_REG(tmpADC_Common->CCR                                          ,
 80022e0:	6dbb      	ldr	r3, [r7, #88]	@ 0x58
 80022e2:	689b      	ldr	r3, [r3, #8]
 80022e4:	f423 4260 	bic.w	r2, r3, #57344	@ 0xe000
 80022e8:	683b      	ldr	r3, [r7, #0]
 80022ea:	6859      	ldr	r1, [r3, #4]
 80022ec:	687b      	ldr	r3, [r7, #4]
 80022ee:	f893 3030 	ldrb.w	r3, [r3, #48]	@ 0x30
 80022f2:	035b      	lsls	r3, r3, #13
 80022f4:	430b      	orrs	r3, r1
 80022f6:	431a      	orrs	r2, r3
 80022f8:	6dbb      	ldr	r3, [r7, #88]	@ 0x58
 80022fa:	609a      	str	r2, [r3, #8]
      /*       parameters, their setting is bypassed without error reporting    */
      /*       (as it can be the expected behaviour in case of intended action  */
      /*       to update parameter above (which fulfills the ADC state          */
      /*       condition: no conversion on going on group regular)              */
      /*       on the fly).                                                     */
      if ((ADC_IS_ENABLE(hadc) == RESET)                              &&
 80022fc:	687b      	ldr	r3, [r7, #4]
 80022fe:	681b      	ldr	r3, [r3, #0]
 8002300:	689b      	ldr	r3, [r3, #8]
 8002302:	f003 0303 	and.w	r3, r3, #3
 8002306:	2b01      	cmp	r3, #1
 8002308:	d108      	bne.n	800231c <HAL_ADCEx_MultiModeConfigChannel+0xa8>
 800230a:	687b      	ldr	r3, [r7, #4]
 800230c:	681b      	ldr	r3, [r3, #0]
 800230e:	681b      	ldr	r3, [r3, #0]
 8002310:	f003 0301 	and.w	r3, r3, #1
 8002314:	2b01      	cmp	r3, #1
 8002316:	d101      	bne.n	800231c <HAL_ADCEx_MultiModeConfigChannel+0xa8>
 8002318:	2301      	movs	r3, #1
 800231a:	e000      	b.n	800231e <HAL_ADCEx_MultiModeConfigChannel+0xaa>
 800231c:	2300      	movs	r3, #0
 800231e:	2b00      	cmp	r3, #0
 8002320:	d15c      	bne.n	80023dc <HAL_ADCEx_MultiModeConfigChannel+0x168>
          (ADC_IS_ENABLE(&tmphadcSharingSameCommonRegister) == RESET)   )
 8002322:	68bb      	ldr	r3, [r7, #8]
 8002324:	689b      	ldr	r3, [r3, #8]
 8002326:	f003 0303 	and.w	r3, r3, #3
 800232a:	2b01      	cmp	r3, #1
 800232c:	d107      	bne.n	800233e <HAL_ADCEx_MultiModeConfigChannel+0xca>
 800232e:	68bb      	ldr	r3, [r7, #8]
 8002330:	681b      	ldr	r3, [r3, #0]
 8002332:	f003 0301 	and.w	r3, r3, #1
 8002336:	2b01      	cmp	r3, #1
 8002338:	d101      	bne.n	800233e <HAL_ADCEx_MultiModeConfigChannel+0xca>
 800233a:	2301      	movs	r3, #1
 800233c:	e000      	b.n	8002340 <HAL_ADCEx_MultiModeConfigChannel+0xcc>
 800233e:	2300      	movs	r3, #0
      if ((ADC_IS_ENABLE(hadc) == RESET)                              &&
 8002340:	2b00      	cmp	r3, #0
 8002342:	d14b      	bne.n	80023dc <HAL_ADCEx_MultiModeConfigChannel+0x168>
      {
        MODIFY_REG(tmpADC_Common->CCR                                          ,
 8002344:	6dbb      	ldr	r3, [r7, #88]	@ 0x58
 8002346:	689b      	ldr	r3, [r3, #8]
 8002348:	f423 6371 	bic.w	r3, r3, #3856	@ 0xf10
 800234c:	f023 030f 	bic.w	r3, r3, #15
 8002350:	683a      	ldr	r2, [r7, #0]
 8002352:	6811      	ldr	r1, [r2, #0]
 8002354:	683a      	ldr	r2, [r7, #0]
 8002356:	6892      	ldr	r2, [r2, #8]
 8002358:	430a      	orrs	r2, r1
 800235a:	431a      	orrs	r2, r3
 800235c:	6dbb      	ldr	r3, [r7, #88]	@ 0x58
 800235e:	609a      	str	r2, [r3, #8]
    if(multimode->Mode != ADC_MODE_INDEPENDENT)
 8002360:	e03c      	b.n	80023dc <HAL_ADCEx_MultiModeConfigChannel+0x168>
                   multimode->TwoSamplingDelay                                  );
      }
    }
    else /* ADC_MODE_INDEPENDENT */
    {
      CLEAR_BIT(tmpADC_Common->CCR, ADC_CCR_MDMA | ADC_CCR_DMACFG);
 8002362:	6dbb      	ldr	r3, [r7, #88]	@ 0x58
 8002364:	689b      	ldr	r3, [r3, #8]
 8002366:	f423 4260 	bic.w	r2, r3, #57344	@ 0xe000
 800236a:	6dbb      	ldr	r3, [r7, #88]	@ 0x58
 800236c:	609a      	str	r2, [r3, #8]
      
      /* Parameters that can be updated only when ADC is disabled:                */
      /*  - Multimode mode selection                                              */
      /*  - Multimode delay                                                       */
      if ((ADC_IS_ENABLE(hadc) == RESET)                              &&
 800236e:	687b      	ldr	r3, [r7, #4]
 8002370:	681b      	ldr	r3, [r3, #0]
 8002372:	689b      	ldr	r3, [r3, #8]
 8002374:	f003 0303 	and.w	r3, r3, #3
 8002378:	2b01      	cmp	r3, #1
 800237a:	d108      	bne.n	800238e <HAL_ADCEx_MultiModeConfigChannel+0x11a>
 800237c:	687b      	ldr	r3, [r7, #4]
 800237e:	681b      	ldr	r3, [r3, #0]
 8002380:	681b      	ldr	r3, [r3, #0]
 8002382:	f003 0301 	and.w	r3, r3, #1
 8002386:	2b01      	cmp	r3, #1
 8002388:	d101      	bne.n	800238e <HAL_ADCEx_MultiModeConfigChannel+0x11a>
 800238a:	2301      	movs	r3, #1
 800238c:	e000      	b.n	8002390 <HAL_ADCEx_MultiModeConfigChannel+0x11c>
 800238e:	2300      	movs	r3, #0
 8002390:	2b00      	cmp	r3, #0
 8002392:	d123      	bne.n	80023dc <HAL_ADCEx_MultiModeConfigChannel+0x168>
          (ADC_IS_ENABLE(&tmphadcSharingSameCommonRegister) == RESET)   )
 8002394:	68bb      	ldr	r3, [r7, #8]
 8002396:	689b      	ldr	r3, [r3, #8]
 8002398:	f003 0303 	and.w	r3, r3, #3
 800239c:	2b01      	cmp	r3, #1
 800239e:	d107      	bne.n	80023b0 <HAL_ADCEx_MultiModeConfigChannel+0x13c>
 80023a0:	68bb      	ldr	r3, [r7, #8]
 80023a2:	681b      	ldr	r3, [r3, #0]
 80023a4:	f003 0301 	and.w	r3, r3, #1
 80023a8:	2b01      	cmp	r3, #1
 80023aa:	d101      	bne.n	80023b0 <HAL_ADCEx_MultiModeConfigChannel+0x13c>
 80023ac:	2301      	movs	r3, #1
 80023ae:	e000      	b.n	80023b2 <HAL_ADCEx_MultiModeConfigChannel+0x13e>
 80023b0:	2300      	movs	r3, #0
      if ((ADC_IS_ENABLE(hadc) == RESET)                              &&
 80023b2:	2b00      	cmp	r3, #0
 80023b4:	d112      	bne.n	80023dc <HAL_ADCEx_MultiModeConfigChannel+0x168>
      {
        CLEAR_BIT(tmpADC_Common->CCR, ADC_CCR_MULTI | ADC_CCR_DELAY);
 80023b6:	6dbb      	ldr	r3, [r7, #88]	@ 0x58
 80023b8:	689b      	ldr	r3, [r3, #8]
 80023ba:	f423 6371 	bic.w	r3, r3, #3856	@ 0xf10
 80023be:	f023 030f 	bic.w	r3, r3, #15
 80023c2:	6dba      	ldr	r2, [r7, #88]	@ 0x58
 80023c4:	6093      	str	r3, [r2, #8]
    if(multimode->Mode != ADC_MODE_INDEPENDENT)
 80023c6:	e009      	b.n	80023dc <HAL_ADCEx_MultiModeConfigChannel+0x168>
  /* If one of the ADC sharing the same common group is enabled, no update    */
  /* could be done on neither of the multimode structure parameters.          */
  else
  {
    /* Update ADC state machine to error */
    SET_BIT(hadc->State, HAL_ADC_STATE_ERROR_CONFIG);
 80023c8:	687b      	ldr	r3, [r7, #4]
 80023ca:	6c1b      	ldr	r3, [r3, #64]	@ 0x40
 80023cc:	f043 0220 	orr.w	r2, r3, #32
 80023d0:	687b      	ldr	r3, [r7, #4]
 80023d2:	641a      	str	r2, [r3, #64]	@ 0x40
    
    tmp_hal_status = HAL_ERROR;
 80023d4:	2301      	movs	r3, #1
 80023d6:	f887 305f 	strb.w	r3, [r7, #95]	@ 0x5f
 80023da:	e000      	b.n	80023de <HAL_ADCEx_MultiModeConfigChannel+0x16a>
    if(multimode->Mode != ADC_MODE_INDEPENDENT)
 80023dc:	bf00      	nop
  }
    
    
  /* Process unlocked */
  __HAL_UNLOCK(hadc);
 80023de:	687b      	ldr	r3, [r7, #4]
 80023e0:	2200      	movs	r2, #0
 80023e2:	f883 203c 	strb.w	r2, [r3, #60]	@ 0x3c
  
  /* Return function status */
  return tmp_hal_status;
 80023e6:	f897 305f 	ldrb.w	r3, [r7, #95]	@ 0x5f
} 
 80023ea:	4618      	mov	r0, r3
 80023ec:	3764      	adds	r7, #100	@ 0x64
 80023ee:	46bd      	mov	sp, r7
 80023f0:	f85d 7b04 	ldr.w	r7, [sp], #4
 80023f4:	4770      	bx	lr
 80023f6:	bf00      	nop
 80023f8:	50000100 	.word	0x50000100
 80023fc:	50000300 	.word	0x50000300

08002400 <ADC_Enable>:
  *         and voltage regulator must be enabled (done into HAL_ADC_Init()).
  * @param  hadc ADC handle
  * @retval HAL status.
  */
static HAL_StatusTypeDef ADC_Enable(ADC_HandleTypeDef* hadc)
{
 8002400:	b580      	push	{r7, lr}
 8002402:	b084      	sub	sp, #16
 8002404:	af00      	add	r7, sp, #0
 8002406:	6078      	str	r0, [r7, #4]
  uint32_t tickstart = 0U;
 8002408:	2300      	movs	r3, #0
 800240a:	60fb      	str	r3, [r7, #12]
  
  /* ADC enable and wait for ADC ready (in case of ADC is disabled or         */
  /* enabling phase not yet completed: flag ADC ready not yet set).           */
  /* Timeout implemented to not be stuck if ADC cannot be enabled (possible   */
  /* causes: ADC clock not running, ...).                                     */
  if (ADC_IS_ENABLE(hadc) == RESET)
 800240c:	687b      	ldr	r3, [r7, #4]
 800240e:	681b      	ldr	r3, [r3, #0]
 8002410:	689b      	ldr	r3, [r3, #8]
 8002412:	f003 0303 	and.w	r3, r3, #3
 8002416:	2b01      	cmp	r3, #1
 8002418:	d108      	bne.n	800242c <ADC_Enable+0x2c>
 800241a:	687b      	ldr	r3, [r7, #4]
 800241c:	681b      	ldr	r3, [r3, #0]
 800241e:	681b      	ldr	r3, [r3, #0]
 8002420:	f003 0301 	and.w	r3, r3, #1
 8002424:	2b01      	cmp	r3, #1
 8002426:	d101      	bne.n	800242c <ADC_Enable+0x2c>
 8002428:	2301      	movs	r3, #1
 800242a:	e000      	b.n	800242e <ADC_Enable+0x2e>
 800242c:	2300      	movs	r3, #0
 800242e:	2b00      	cmp	r3, #0
 8002430:	d143      	bne.n	80024ba <ADC_Enable+0xba>
  {
    /* Check if conditions to enable the ADC are fulfilled */
    if (ADC_ENABLING_CONDITIONS(hadc) == RESET)
 8002432:	687b      	ldr	r3, [r7, #4]
 8002434:	681b      	ldr	r3, [r3, #0]
 8002436:	689a      	ldr	r2, [r3, #8]
 8002438:	4b22      	ldr	r3, [pc, #136]	@ (80024c4 <ADC_Enable+0xc4>)
 800243a:	4013      	ands	r3, r2
 800243c:	2b00      	cmp	r3, #0
 800243e:	d00d      	beq.n	800245c <ADC_Enable+0x5c>
    {
      /* Update ADC state machine to error */
      SET_BIT(hadc->State, HAL_ADC_STATE_ERROR_INTERNAL);
 8002440:	687b      	ldr	r3, [r7, #4]
 8002442:	6c1b      	ldr	r3, [r3, #64]	@ 0x40
 8002444:	f043 0210 	orr.w	r2, r3, #16
 8002448:	687b      	ldr	r3, [r7, #4]
 800244a:	641a      	str	r2, [r3, #64]	@ 0x40
      
      /* Set ADC error code to ADC IP internal error */
      SET_BIT(hadc->ErrorCode, HAL_ADC_ERROR_INTERNAL);
 800244c:	687b      	ldr	r3, [r7, #4]
 800244e:	6c5b      	ldr	r3, [r3, #68]	@ 0x44
 8002450:	f043 0201 	orr.w	r2, r3, #1
 8002454:	687b      	ldr	r3, [r7, #4]
 8002456:	645a      	str	r2, [r3, #68]	@ 0x44
      
      return HAL_ERROR;
 8002458:	2301      	movs	r3, #1
 800245a:	e02f      	b.n	80024bc <ADC_Enable+0xbc>
    }
    
    /* Enable the ADC peripheral */
    __HAL_ADC_ENABLE(hadc);
 800245c:	687b      	ldr	r3, [r7, #4]
 800245e:	681b      	ldr	r3, [r3, #0]
 8002460:	689a      	ldr	r2, [r3, #8]
 8002462:	687b      	ldr	r3, [r7, #4]
 8002464:	681b      	ldr	r3, [r3, #0]
 8002466:	f042 0201 	orr.w	r2, r2, #1
 800246a:	609a      	str	r2, [r3, #8]
    
    /* Wait for ADC effectively enabled */
    tickstart = HAL_GetTick();  
 800246c:	f7ff f8ba 	bl	80015e4 <HAL_GetTick>
 8002470:	60f8      	str	r0, [r7, #12]
    
    while(__HAL_ADC_GET_FLAG(hadc, ADC_FLAG_RDY) == RESET)
 8002472:	e01b      	b.n	80024ac <ADC_Enable+0xac>
    {
      if((HAL_GetTick() - tickstart) > ADC_ENABLE_TIMEOUT)
 8002474:	f7ff f8b6 	bl	80015e4 <HAL_GetTick>
 8002478:	4602      	mov	r2, r0
 800247a:	68fb      	ldr	r3, [r7, #12]
 800247c:	1ad3      	subs	r3, r2, r3
 800247e:	2b02      	cmp	r3, #2
 8002480:	d914      	bls.n	80024ac <ADC_Enable+0xac>
      {
        /* New check to avoid false timeout detection in case of preemption */
        if(__HAL_ADC_GET_FLAG(hadc, ADC_FLAG_RDY) == RESET)
 8002482:	687b      	ldr	r3, [r7, #4]
 8002484:	681b      	ldr	r3, [r3, #0]
 8002486:	681b      	ldr	r3, [r3, #0]
 8002488:	f003 0301 	and.w	r3, r3, #1
 800248c:	2b01      	cmp	r3, #1
 800248e:	d00d      	beq.n	80024ac <ADC_Enable+0xac>
        {
          /* Update ADC state machine to error */
          SET_BIT(hadc->State, HAL_ADC_STATE_ERROR_INTERNAL);
 8002490:	687b      	ldr	r3, [r7, #4]
 8002492:	6c1b      	ldr	r3, [r3, #64]	@ 0x40
 8002494:	f043 0210 	orr.w	r2, r3, #16
 8002498:	687b      	ldr	r3, [r7, #4]
 800249a:	641a      	str	r2, [r3, #64]	@ 0x40

          /* Set ADC error code to ADC IP internal error */
          SET_BIT(hadc->ErrorCode, HAL_ADC_ERROR_INTERNAL);
 800249c:	687b      	ldr	r3, [r7, #4]
 800249e:	6c5b      	ldr	r3, [r3, #68]	@ 0x44
 80024a0:	f043 0201 	orr.w	r2, r3, #1
 80024a4:	687b      	ldr	r3, [r7, #4]
 80024a6:	645a      	str	r2, [r3, #68]	@ 0x44

          return HAL_ERROR;
 80024a8:	2301      	movs	r3, #1
 80024aa:	e007      	b.n	80024bc <ADC_Enable+0xbc>
    while(__HAL_ADC_GET_FLAG(hadc, ADC_FLAG_RDY) == RESET)
 80024ac:	687b      	ldr	r3, [r7, #4]
 80024ae:	681b      	ldr	r3, [r3, #0]
 80024b0:	681b      	ldr	r3, [r3, #0]
 80024b2:	f003 0301 	and.w	r3, r3, #1
 80024b6:	2b01      	cmp	r3, #1
 80024b8:	d1dc      	bne.n	8002474 <ADC_Enable+0x74>
      }
    }
  }
  
  /* Return HAL status */
  return HAL_OK;
 80024ba:	2300      	movs	r3, #0
}
 80024bc:	4618      	mov	r0, r3
 80024be:	3710      	adds	r7, #16
 80024c0:	46bd      	mov	sp, r7
 80024c2:	bd80      	pop	{r7, pc}
 80024c4:	8000003f 	.word	0x8000003f

080024c8 <ADC_Disable>:
  *         stopped.
  * @param  hadc ADC handle
  * @retval HAL status.
  */
static HAL_StatusTypeDef ADC_Disable(ADC_HandleTypeDef* hadc)
{
 80024c8:	b580      	push	{r7, lr}
 80024ca:	b084      	sub	sp, #16
 80024cc:	af00      	add	r7, sp, #0
 80024ce:	6078      	str	r0, [r7, #4]
  uint32_t tickstart = 0U;
 80024d0:	2300      	movs	r3, #0
 80024d2:	60fb      	str	r3, [r7, #12]
  
  /* Verification if ADC is not already disabled:                             */
  /* Note: forbidden to disable ADC (set bit ADC_CR_ADDIS) if ADC is already  */
  /* disabled.                                                                */
  if (ADC_IS_ENABLE(hadc) != RESET )
 80024d4:	687b      	ldr	r3, [r7, #4]
 80024d6:	681b      	ldr	r3, [r3, #0]
 80024d8:	689b      	ldr	r3, [r3, #8]
 80024da:	f003 0303 	and.w	r3, r3, #3
 80024de:	2b01      	cmp	r3, #1
 80024e0:	d108      	bne.n	80024f4 <ADC_Disable+0x2c>
 80024e2:	687b      	ldr	r3, [r7, #4]
 80024e4:	681b      	ldr	r3, [r3, #0]
 80024e6:	681b      	ldr	r3, [r3, #0]
 80024e8:	f003 0301 	and.w	r3, r3, #1
 80024ec:	2b01      	cmp	r3, #1
 80024ee:	d101      	bne.n	80024f4 <ADC_Disable+0x2c>
 80024f0:	2301      	movs	r3, #1
 80024f2:	e000      	b.n	80024f6 <ADC_Disable+0x2e>
 80024f4:	2300      	movs	r3, #0
 80024f6:	2b00      	cmp	r3, #0
 80024f8:	d047      	beq.n	800258a <ADC_Disable+0xc2>
  {
    /* Check if conditions to disable the ADC are fulfilled */
    if (ADC_DISABLING_CONDITIONS(hadc) != RESET)
 80024fa:	687b      	ldr	r3, [r7, #4]
 80024fc:	681b      	ldr	r3, [r3, #0]
 80024fe:	689b      	ldr	r3, [r3, #8]
 8002500:	f003 030d 	and.w	r3, r3, #13
 8002504:	2b01      	cmp	r3, #1
 8002506:	d10f      	bne.n	8002528 <ADC_Disable+0x60>
    {
      /* Disable the ADC peripheral */
      __HAL_ADC_DISABLE(hadc);
 8002508:	687b      	ldr	r3, [r7, #4]
 800250a:	681b      	ldr	r3, [r3, #0]
 800250c:	689a      	ldr	r2, [r3, #8]
 800250e:	687b      	ldr	r3, [r7, #4]
 8002510:	681b      	ldr	r3, [r3, #0]
 8002512:	f042 0202 	orr.w	r2, r2, #2
 8002516:	609a      	str	r2, [r3, #8]
 8002518:	687b      	ldr	r3, [r7, #4]
 800251a:	681b      	ldr	r3, [r3, #0]
 800251c:	2203      	movs	r2, #3
 800251e:	601a      	str	r2, [r3, #0]
      
      return HAL_ERROR;
    }
     
    /* Wait for ADC effectively disabled */
    tickstart = HAL_GetTick();
 8002520:	f7ff f860 	bl	80015e4 <HAL_GetTick>
 8002524:	60f8      	str	r0, [r7, #12]
    
    while(HAL_IS_BIT_SET(hadc->Instance->CR, ADC_CR_ADEN))
 8002526:	e029      	b.n	800257c <ADC_Disable+0xb4>
      SET_BIT(hadc->State, HAL_ADC_STATE_ERROR_INTERNAL);
 8002528:	687b      	ldr	r3, [r7, #4]
 800252a:	6c1b      	ldr	r3, [r3, #64]	@ 0x40
 800252c:	f043 0210 	orr.w	r2, r3, #16
 8002530:	687b      	ldr	r3, [r7, #4]
 8002532:	641a      	str	r2, [r3, #64]	@ 0x40
      SET_BIT(hadc->ErrorCode, HAL_ADC_ERROR_INTERNAL);
 8002534:	687b      	ldr	r3, [r7, #4]
 8002536:	6c5b      	ldr	r3, [r3, #68]	@ 0x44
 8002538:	f043 0201 	orr.w	r2, r3, #1
 800253c:	687b      	ldr	r3, [r7, #4]
 800253e:	645a      	str	r2, [r3, #68]	@ 0x44
      return HAL_ERROR;
 8002540:	2301      	movs	r3, #1
 8002542:	e023      	b.n	800258c <ADC_Disable+0xc4>
    {
      if((HAL_GetTick() - tickstart) > ADC_DISABLE_TIMEOUT)
 8002544:	f7ff f84e 	bl	80015e4 <HAL_GetTick>
 8002548:	4602      	mov	r2, r0
 800254a:	68fb      	ldr	r3, [r7, #12]
 800254c:	1ad3      	subs	r3, r2, r3
 800254e:	2b02      	cmp	r3, #2
 8002550:	d914      	bls.n	800257c <ADC_Disable+0xb4>
      {
        /* New check to avoid false timeout detection in case of preemption */
        if(HAL_IS_BIT_SET(hadc->Instance->CR, ADC_CR_ADEN))
 8002552:	687b      	ldr	r3, [r7, #4]
 8002554:	681b      	ldr	r3, [r3, #0]
 8002556:	689b      	ldr	r3, [r3, #8]
 8002558:	f003 0301 	and.w	r3, r3, #1
 800255c:	2b01      	cmp	r3, #1
 800255e:	d10d      	bne.n	800257c <ADC_Disable+0xb4>
        {
          /* Update ADC state machine to error */
          SET_BIT(hadc->State, HAL_ADC_STATE_ERROR_INTERNAL);
 8002560:	687b      	ldr	r3, [r7, #4]
 8002562:	6c1b      	ldr	r3, [r3, #64]	@ 0x40
 8002564:	f043 0210 	orr.w	r2, r3, #16
 8002568:	687b      	ldr	r3, [r7, #4]
 800256a:	641a      	str	r2, [r3, #64]	@ 0x40

          /* Set ADC error code to ADC IP internal error */
          SET_BIT(hadc->ErrorCode, HAL_ADC_ERROR_INTERNAL);
 800256c:	687b      	ldr	r3, [r7, #4]
 800256e:	6c5b      	ldr	r3, [r3, #68]	@ 0x44
 8002570:	f043 0201 	orr.w	r2, r3, #1
 8002574:	687b      	ldr	r3, [r7, #4]
 8002576:	645a      	str	r2, [r3, #68]	@ 0x44

          return HAL_ERROR;
 8002578:	2301      	movs	r3, #1
 800257a:	e007      	b.n	800258c <ADC_Disable+0xc4>
    while(HAL_IS_BIT_SET(hadc->Instance->CR, ADC_CR_ADEN))
 800257c:	687b      	ldr	r3, [r7, #4]
 800257e:	681b      	ldr	r3, [r3, #0]
 8002580:	689b      	ldr	r3, [r3, #8]
 8002582:	f003 0301 	and.w	r3, r3, #1
 8002586:	2b01      	cmp	r3, #1
 8002588:	d0dc      	beq.n	8002544 <ADC_Disable+0x7c>
      }
    }
  }
  
  /* Return HAL status */
  return HAL_OK;
 800258a:	2300      	movs	r3, #0
}
 800258c:	4618      	mov	r0, r3
 800258e:	3710      	adds	r7, #16
 8002590:	46bd      	mov	sp, r7
 8002592:	bd80      	pop	{r7, pc}

08002594 <ADC_ConversionStop>:
  *            @arg ADC_INJECTED_GROUP: ADC injected conversion type.
  *            @arg ADC_REGULAR_INJECTED_GROUP: ADC regular and injected conversion type.
  * @retval HAL status.
  */
static HAL_StatusTypeDef ADC_ConversionStop(ADC_HandleTypeDef* hadc, uint32_t ConversionGroup)
{
 8002594:	b580      	push	{r7, lr}
 8002596:	b086      	sub	sp, #24
 8002598:	af00      	add	r7, sp, #0
 800259a:	6078      	str	r0, [r7, #4]
 800259c:	6039      	str	r1, [r7, #0]
  uint32_t tmp_ADC_CR_ADSTART_JADSTART = 0U;
 800259e:	2300      	movs	r3, #0
 80025a0:	617b      	str	r3, [r7, #20]
  uint32_t tickstart = 0U;
 80025a2:	2300      	movs	r3, #0
 80025a4:	60fb      	str	r3, [r7, #12]
  uint32_t Conversion_Timeout_CPU_cycles = 0U;
 80025a6:	2300      	movs	r3, #0
 80025a8:	613b      	str	r3, [r7, #16]
  assert_param(IS_ADC_ALL_INSTANCE(hadc->Instance));
  assert_param(IS_ADC_CONVERSION_GROUP(ConversionGroup));
    
  /* Verification if ADC is not already stopped (on regular and injected      */
  /* groups) to bypass this function if not needed.                           */
  if (ADC_IS_CONVERSION_ONGOING_REGULAR_INJECTED(hadc))
 80025aa:	687b      	ldr	r3, [r7, #4]
 80025ac:	681b      	ldr	r3, [r3, #0]
 80025ae:	689b      	ldr	r3, [r3, #8]
 80025b0:	f003 030c 	and.w	r3, r3, #12
 80025b4:	2b00      	cmp	r3, #0
 80025b6:	f000 809b 	beq.w	80026f0 <ADC_ConversionStop+0x15c>
    /* auto-delay mode.                                                       */
    /* In auto-injection mode, regular group stop ADC_CR_ADSTP is used (not   */
    /* injected group stop ADC_CR_JADSTP).                                    */
    /* Procedure to be followed: Wait until JEOS=1U, clear JEOS, set ADSTP=1   */
    /* (see reference manual).                                                */
    if ((HAL_IS_BIT_SET(hadc->Instance->CFGR, ADC_CFGR_JAUTO)) &&
 80025ba:	687b      	ldr	r3, [r7, #4]
 80025bc:	681b      	ldr	r3, [r3, #0]
 80025be:	68db      	ldr	r3, [r3, #12]
 80025c0:	f003 7300 	and.w	r3, r3, #33554432	@ 0x2000000
 80025c4:	f1b3 7f00 	cmp.w	r3, #33554432	@ 0x2000000
 80025c8:	d12a      	bne.n	8002620 <ADC_ConversionStop+0x8c>
         (hadc->Init.ContinuousConvMode==ENABLE)               &&
 80025ca:	687b      	ldr	r3, [r7, #4]
 80025cc:	7e5b      	ldrb	r3, [r3, #25]
    if ((HAL_IS_BIT_SET(hadc->Instance->CFGR, ADC_CFGR_JAUTO)) &&
 80025ce:	2b01      	cmp	r3, #1
 80025d0:	d126      	bne.n	8002620 <ADC_ConversionStop+0x8c>
         (hadc->Init.LowPowerAutoWait==ENABLE)                   )
 80025d2:	687b      	ldr	r3, [r7, #4]
 80025d4:	7e1b      	ldrb	r3, [r3, #24]
         (hadc->Init.ContinuousConvMode==ENABLE)               &&
 80025d6:	2b01      	cmp	r3, #1
 80025d8:	d122      	bne.n	8002620 <ADC_ConversionStop+0x8c>
    {
      /* Use stop of regular group */
      ConversionGroup = ADC_REGULAR_GROUP;
 80025da:	230c      	movs	r3, #12
 80025dc:	603b      	str	r3, [r7, #0]
      
      /* Wait until JEOS=1 (maximum Timeout: 4 injected conversions) */
      while(__HAL_ADC_GET_FLAG(hadc, ADC_FLAG_JEOS) == RESET)
 80025de:	e014      	b.n	800260a <ADC_ConversionStop+0x76>
      {
        if (Conversion_Timeout_CPU_cycles >= (ADC_CONVERSION_TIME_MAX_CPU_CYCLES *4U))
 80025e0:	693b      	ldr	r3, [r7, #16]
 80025e2:	4a46      	ldr	r2, [pc, #280]	@ (80026fc <ADC_ConversionStop+0x168>)
 80025e4:	4293      	cmp	r3, r2
 80025e6:	d90d      	bls.n	8002604 <ADC_ConversionStop+0x70>
        {
          /* Update ADC state machine to error */
          SET_BIT(hadc->State, HAL_ADC_STATE_ERROR_INTERNAL);
 80025e8:	687b      	ldr	r3, [r7, #4]
 80025ea:	6c1b      	ldr	r3, [r3, #64]	@ 0x40
 80025ec:	f043 0210 	orr.w	r2, r3, #16
 80025f0:	687b      	ldr	r3, [r7, #4]
 80025f2:	641a      	str	r2, [r3, #64]	@ 0x40
          
          /* Set ADC error code to ADC IP internal error */
          SET_BIT(hadc->ErrorCode, HAL_ADC_ERROR_INTERNAL);
 80025f4:	687b      	ldr	r3, [r7, #4]
 80025f6:	6c5b      	ldr	r3, [r3, #68]	@ 0x44
 80025f8:	f043 0201 	orr.w	r2, r3, #1
 80025fc:	687b      	ldr	r3, [r7, #4]
 80025fe:	645a      	str	r2, [r3, #68]	@ 0x44
          
          return HAL_ERROR;
 8002600:	2301      	movs	r3, #1
 8002602:	e076      	b.n	80026f2 <ADC_ConversionStop+0x15e>
        }
        Conversion_Timeout_CPU_cycles ++;
 8002604:	693b      	ldr	r3, [r7, #16]
 8002606:	3301      	adds	r3, #1
 8002608:	613b      	str	r3, [r7, #16]
      while(__HAL_ADC_GET_FLAG(hadc, ADC_FLAG_JEOS) == RESET)
 800260a:	687b      	ldr	r3, [r7, #4]
 800260c:	681b      	ldr	r3, [r3, #0]
 800260e:	681b      	ldr	r3, [r3, #0]
 8002610:	f003 0340 	and.w	r3, r3, #64	@ 0x40
 8002614:	2b40      	cmp	r3, #64	@ 0x40
 8002616:	d1e3      	bne.n	80025e0 <ADC_ConversionStop+0x4c>
      }

      /* Clear JEOS */
      __HAL_ADC_CLEAR_FLAG(hadc, ADC_FLAG_JEOS);
 8002618:	687b      	ldr	r3, [r7, #4]
 800261a:	681b      	ldr	r3, [r3, #0]
 800261c:	2240      	movs	r2, #64	@ 0x40
 800261e:	601a      	str	r2, [r3, #0]
    }
    
    /* Stop potential conversion on going on regular group */
    if (ConversionGroup != ADC_INJECTED_GROUP)
 8002620:	683b      	ldr	r3, [r7, #0]
 8002622:	2b60      	cmp	r3, #96	@ 0x60
 8002624:	d015      	beq.n	8002652 <ADC_ConversionStop+0xbe>
    {
      /* Software is allowed to set ADSTP only when ADSTART=1 and ADDIS=0U */
      if (HAL_IS_BIT_SET(hadc->Instance->CR, ADC_CR_ADSTART) && 
 8002626:	687b      	ldr	r3, [r7, #4]
 8002628:	681b      	ldr	r3, [r3, #0]
 800262a:	689b      	ldr	r3, [r3, #8]
 800262c:	f003 0304 	and.w	r3, r3, #4
 8002630:	2b04      	cmp	r3, #4
 8002632:	d10e      	bne.n	8002652 <ADC_ConversionStop+0xbe>
          HAL_IS_BIT_CLR(hadc->Instance->CR, ADC_CR_ADDIS)     )
 8002634:	687b      	ldr	r3, [r7, #4]
 8002636:	681b      	ldr	r3, [r3, #0]
 8002638:	689b      	ldr	r3, [r3, #8]
 800263a:	f003 0302 	and.w	r3, r3, #2
      if (HAL_IS_BIT_SET(hadc->Instance->CR, ADC_CR_ADSTART) && 
 800263e:	2b00      	cmp	r3, #0
 8002640:	d107      	bne.n	8002652 <ADC_ConversionStop+0xbe>
      {
        /* Stop conversions on regular group */
        hadc->Instance->CR |= ADC_CR_ADSTP;
 8002642:	687b      	ldr	r3, [r7, #4]
 8002644:	681b      	ldr	r3, [r3, #0]
 8002646:	689a      	ldr	r2, [r3, #8]
 8002648:	687b      	ldr	r3, [r7, #4]
 800264a:	681b      	ldr	r3, [r3, #0]
 800264c:	f042 0210 	orr.w	r2, r2, #16
 8002650:	609a      	str	r2, [r3, #8]
      }
    }

    /* Stop potential conversion on going on injected group */
    if (ConversionGroup != ADC_REGULAR_GROUP)
 8002652:	683b      	ldr	r3, [r7, #0]
 8002654:	2b0c      	cmp	r3, #12
 8002656:	d015      	beq.n	8002684 <ADC_ConversionStop+0xf0>
    {
      /* Software is allowed to set JADSTP only when JADSTART=1 and ADDIS=0U */
      if (HAL_IS_BIT_SET(hadc->Instance->CR, ADC_CR_JADSTART) && 
 8002658:	687b      	ldr	r3, [r7, #4]
 800265a:	681b      	ldr	r3, [r3, #0]
 800265c:	689b      	ldr	r3, [r3, #8]
 800265e:	f003 0308 	and.w	r3, r3, #8
 8002662:	2b08      	cmp	r3, #8
 8002664:	d10e      	bne.n	8002684 <ADC_ConversionStop+0xf0>
          HAL_IS_BIT_CLR(hadc->Instance->CR, ADC_CR_ADDIS)      )
 8002666:	687b      	ldr	r3, [r7, #4]
 8002668:	681b      	ldr	r3, [r3, #0]
 800266a:	689b      	ldr	r3, [r3, #8]
 800266c:	f003 0302 	and.w	r3, r3, #2
      if (HAL_IS_BIT_SET(hadc->Instance->CR, ADC_CR_JADSTART) && 
 8002670:	2b00      	cmp	r3, #0
 8002672:	d107      	bne.n	8002684 <ADC_ConversionStop+0xf0>
      {
        /* Stop conversions on injected group */
        hadc->Instance->CR |= ADC_CR_JADSTP;
 8002674:	687b      	ldr	r3, [r7, #4]
 8002676:	681b      	ldr	r3, [r3, #0]
 8002678:	689a      	ldr	r2, [r3, #8]
 800267a:	687b      	ldr	r3, [r7, #4]
 800267c:	681b      	ldr	r3, [r3, #0]
 800267e:	f042 0220 	orr.w	r2, r2, #32
 8002682:	609a      	str	r2, [r3, #8]
      }
    }

    /* Selection of start and stop bits in function of regular or injected group */
    switch(ConversionGroup)
 8002684:	683b      	ldr	r3, [r7, #0]
 8002686:	2b60      	cmp	r3, #96	@ 0x60
 8002688:	d005      	beq.n	8002696 <ADC_ConversionStop+0x102>
 800268a:	683b      	ldr	r3, [r7, #0]
 800268c:	2b6c      	cmp	r3, #108	@ 0x6c
 800268e:	d105      	bne.n	800269c <ADC_ConversionStop+0x108>
    {
    case ADC_REGULAR_INJECTED_GROUP:
        tmp_ADC_CR_ADSTART_JADSTART = (ADC_CR_ADSTART | ADC_CR_JADSTART);
 8002690:	230c      	movs	r3, #12
 8002692:	617b      	str	r3, [r7, #20]
        break;
 8002694:	e005      	b.n	80026a2 <ADC_ConversionStop+0x10e>
    case ADC_INJECTED_GROUP:
        tmp_ADC_CR_ADSTART_JADSTART = ADC_CR_JADSTART;
 8002696:	2308      	movs	r3, #8
 8002698:	617b      	str	r3, [r7, #20]
        break;
 800269a:	e002      	b.n	80026a2 <ADC_ConversionStop+0x10e>
    /* Case ADC_REGULAR_GROUP */
    default:
        tmp_ADC_CR_ADSTART_JADSTART = ADC_CR_ADSTART;
 800269c:	2304      	movs	r3, #4
 800269e:	617b      	str	r3, [r7, #20]
        break;
 80026a0:	bf00      	nop
    }
    
    /* Wait for conversion effectively stopped */
    tickstart = HAL_GetTick();
 80026a2:	f7fe ff9f 	bl	80015e4 <HAL_GetTick>
 80026a6:	60f8      	str	r0, [r7, #12]
      
    while((hadc->Instance->CR & tmp_ADC_CR_ADSTART_JADSTART) != RESET)
 80026a8:	e01b      	b.n	80026e2 <ADC_ConversionStop+0x14e>
    {
      if((HAL_GetTick() - tickstart) > ADC_STOP_CONVERSION_TIMEOUT)
 80026aa:	f7fe ff9b 	bl	80015e4 <HAL_GetTick>
 80026ae:	4602      	mov	r2, r0
 80026b0:	68fb      	ldr	r3, [r7, #12]
 80026b2:	1ad3      	subs	r3, r2, r3
 80026b4:	2b0b      	cmp	r3, #11
 80026b6:	d914      	bls.n	80026e2 <ADC_ConversionStop+0x14e>
      {
        /* New check to avoid false timeout detection in case of preemption */
        if((hadc->Instance->CR & tmp_ADC_CR_ADSTART_JADSTART) != RESET)
 80026b8:	687b      	ldr	r3, [r7, #4]
 80026ba:	681b      	ldr	r3, [r3, #0]
 80026bc:	689a      	ldr	r2, [r3, #8]
 80026be:	697b      	ldr	r3, [r7, #20]
 80026c0:	4013      	ands	r3, r2
 80026c2:	2b00      	cmp	r3, #0
 80026c4:	d00d      	beq.n	80026e2 <ADC_ConversionStop+0x14e>
        {
        /* Update ADC state machine to error */
        SET_BIT(hadc->State, HAL_ADC_STATE_ERROR_INTERNAL);
 80026c6:	687b      	ldr	r3, [r7, #4]
 80026c8:	6c1b      	ldr	r3, [r3, #64]	@ 0x40
 80026ca:	f043 0210 	orr.w	r2, r3, #16
 80026ce:	687b      	ldr	r3, [r7, #4]
 80026d0:	641a      	str	r2, [r3, #64]	@ 0x40
        
        /* Set ADC error code to ADC IP internal error */
        SET_BIT(hadc->ErrorCode, HAL_ADC_ERROR_INTERNAL);
 80026d2:	687b      	ldr	r3, [r7, #4]
 80026d4:	6c5b      	ldr	r3, [r3, #68]	@ 0x44
 80026d6:	f043 0201 	orr.w	r2, r3, #1
 80026da:	687b      	ldr	r3, [r7, #4]
 80026dc:	645a      	str	r2, [r3, #68]	@ 0x44
        
        return HAL_ERROR;
 80026de:	2301      	movs	r3, #1
 80026e0:	e007      	b.n	80026f2 <ADC_ConversionStop+0x15e>
    while((hadc->Instance->CR & tmp_ADC_CR_ADSTART_JADSTART) != RESET)
 80026e2:	687b      	ldr	r3, [r7, #4]
 80026e4:	681b      	ldr	r3, [r3, #0]
 80026e6:	689a      	ldr	r2, [r3, #8]
 80026e8:	697b      	ldr	r3, [r7, #20]
 80026ea:	4013      	ands	r3, r2
 80026ec:	2b00      	cmp	r3, #0
 80026ee:	d1dc      	bne.n	80026aa <ADC_ConversionStop+0x116>
      }
    }
  }
   
  /* Return HAL status */
  return HAL_OK;
 80026f0:	2300      	movs	r3, #0
}
 80026f2:	4618      	mov	r0, r3
 80026f4:	3718      	adds	r7, #24
 80026f6:	46bd      	mov	sp, r7
 80026f8:	bd80      	pop	{r7, pc}
 80026fa:	bf00      	nop
 80026fc:	000993ff 	.word	0x000993ff

08002700 <__NVIC_SetPriorityGrouping>:
           In case of a conflict between priority grouping and available
           priority bits (__NVIC_PRIO_BITS), the smallest possible priority group is set.
  \param [in]      PriorityGroup  Priority grouping field.
 */
__STATIC_INLINE void __NVIC_SetPriorityGrouping(uint32_t PriorityGroup)
{
 8002700:	b480      	push	{r7}
 8002702:	b085      	sub	sp, #20
 8002704:	af00      	add	r7, sp, #0
 8002706:	6078      	str	r0, [r7, #4]
  uint32_t reg_value;
  uint32_t PriorityGroupTmp = (PriorityGroup & (uint32_t)0x07UL);             /* only values 0..7 are used          */
 8002708:	687b      	ldr	r3, [r7, #4]
 800270a:	f003 0307 	and.w	r3, r3, #7
 800270e:	60fb      	str	r3, [r7, #12]

  reg_value  =  SCB->AIRCR;                                                   /* read old register configuration    */
 8002710:	4b0c      	ldr	r3, [pc, #48]	@ (8002744 <__NVIC_SetPriorityGrouping+0x44>)
 8002712:	68db      	ldr	r3, [r3, #12]
 8002714:	60bb      	str	r3, [r7, #8]
  reg_value &= ~((uint32_t)(SCB_AIRCR_VECTKEY_Msk | SCB_AIRCR_PRIGROUP_Msk)); /* clear bits to change               */
 8002716:	68ba      	ldr	r2, [r7, #8]
 8002718:	f64f 03ff 	movw	r3, #63743	@ 0xf8ff
 800271c:	4013      	ands	r3, r2
 800271e:	60bb      	str	r3, [r7, #8]
  reg_value  =  (reg_value                                   |
                ((uint32_t)0x5FAUL << SCB_AIRCR_VECTKEY_Pos) |
                (PriorityGroupTmp << SCB_AIRCR_PRIGROUP_Pos)  );              /* Insert write key and priority group */
 8002720:	68fb      	ldr	r3, [r7, #12]
 8002722:	021a      	lsls	r2, r3, #8
                ((uint32_t)0x5FAUL << SCB_AIRCR_VECTKEY_Pos) |
 8002724:	68bb      	ldr	r3, [r7, #8]
 8002726:	4313      	orrs	r3, r2
  reg_value  =  (reg_value                                   |
 8002728:	f043 63bf 	orr.w	r3, r3, #100139008	@ 0x5f80000
 800272c:	f443 3300 	orr.w	r3, r3, #131072	@ 0x20000
 8002730:	60bb      	str	r3, [r7, #8]
  SCB->AIRCR =  reg_value;
 8002732:	4a04      	ldr	r2, [pc, #16]	@ (8002744 <__NVIC_SetPriorityGrouping+0x44>)
 8002734:	68bb      	ldr	r3, [r7, #8]
 8002736:	60d3      	str	r3, [r2, #12]
}
 8002738:	bf00      	nop
 800273a:	3714      	adds	r7, #20
 800273c:	46bd      	mov	sp, r7
 800273e:	f85d 7b04 	ldr.w	r7, [sp], #4
 8002742:	4770      	bx	lr
 8002744:	e000ed00 	.word	0xe000ed00

08002748 <__NVIC_GetPriorityGrouping>:
  \brief   Get Priority Grouping
  \details Reads the priority grouping field from the NVIC Interrupt Controller.
  \return                Priority grouping field (SCB->AIRCR [10:8] PRIGROUP field).
 */
__STATIC_INLINE uint32_t __NVIC_GetPriorityGrouping(void)
{
 8002748:	b480      	push	{r7}
 800274a:	af00      	add	r7, sp, #0
  return ((uint32_t)((SCB->AIRCR & SCB_AIRCR_PRIGROUP_Msk) >> SCB_AIRCR_PRIGROUP_Pos));
 800274c:	4b04      	ldr	r3, [pc, #16]	@ (8002760 <__NVIC_GetPriorityGrouping+0x18>)
 800274e:	68db      	ldr	r3, [r3, #12]
 8002750:	0a1b      	lsrs	r3, r3, #8
 8002752:	f003 0307 	and.w	r3, r3, #7
}
 8002756:	4618      	mov	r0, r3
 8002758:	46bd      	mov	sp, r7
 800275a:	f85d 7b04 	ldr.w	r7, [sp], #4
 800275e:	4770      	bx	lr
 8002760:	e000ed00 	.word	0xe000ed00

08002764 <__NVIC_EnableIRQ>:
  \details Enables a device specific interrupt in the NVIC interrupt controller.
  \param [in]      IRQn  Device specific interrupt number.
  \note    IRQn must not be negative.
 */
__STATIC_INLINE void __NVIC_EnableIRQ(IRQn_Type IRQn)
{
 8002764:	b480      	push	{r7}
 8002766:	b083      	sub	sp, #12
 8002768:	af00      	add	r7, sp, #0
 800276a:	4603      	mov	r3, r0
 800276c:	71fb      	strb	r3, [r7, #7]
  if ((int32_t)(IRQn) >= 0)
 800276e:	f997 3007 	ldrsb.w	r3, [r7, #7]
 8002772:	2b00      	cmp	r3, #0
 8002774:	db0b      	blt.n	800278e <__NVIC_EnableIRQ+0x2a>
  {
    NVIC->ISER[(((uint32_t)IRQn) >> 5UL)] = (uint32_t)(1UL << (((uint32_t)IRQn) & 0x1FUL));
 8002776:	79fb      	ldrb	r3, [r7, #7]
 8002778:	f003 021f 	and.w	r2, r3, #31
 800277c:	4907      	ldr	r1, [pc, #28]	@ (800279c <__NVIC_EnableIRQ+0x38>)
 800277e:	f997 3007 	ldrsb.w	r3, [r7, #7]
 8002782:	095b      	lsrs	r3, r3, #5
 8002784:	2001      	movs	r0, #1
 8002786:	fa00 f202 	lsl.w	r2, r0, r2
 800278a:	f841 2023 	str.w	r2, [r1, r3, lsl #2]
  }
}
 800278e:	bf00      	nop
 8002790:	370c      	adds	r7, #12
 8002792:	46bd      	mov	sp, r7
 8002794:	f85d 7b04 	ldr.w	r7, [sp], #4
 8002798:	4770      	bx	lr
 800279a:	bf00      	nop
 800279c:	e000e100 	.word	0xe000e100

080027a0 <__NVIC_SetPriority>:
  \param [in]      IRQn  Interrupt number.
  \param [in]  priority  Priority to set.
  \note    The priority cannot be set for every processor exception.
 */
__STATIC_INLINE void __NVIC_SetPriority(IRQn_Type IRQn, uint32_t priority)
{
 80027a0:	b480      	push	{r7}
 80027a2:	b083      	sub	sp, #12
 80027a4:	af00      	add	r7, sp, #0
 80027a6:	4603      	mov	r3, r0
 80027a8:	6039      	str	r1, [r7, #0]
 80027aa:	71fb      	strb	r3, [r7, #7]
  if ((int32_t)(IRQn) >= 0)
 80027ac:	f997 3007 	ldrsb.w	r3, [r7, #7]
 80027b0:	2b00      	cmp	r3, #0
 80027b2:	db0a      	blt.n	80027ca <__NVIC_SetPriority+0x2a>
  {
    NVIC->IP[((uint32_t)IRQn)]               = (uint8_t)((priority << (8U - __NVIC_PRIO_BITS)) & (uint32_t)0xFFUL);
 80027b4:	683b      	ldr	r3, [r7, #0]
 80027b6:	b2da      	uxtb	r2, r3
 80027b8:	490c      	ldr	r1, [pc, #48]	@ (80027ec <__NVIC_SetPriority+0x4c>)
 80027ba:	f997 3007 	ldrsb.w	r3, [r7, #7]
 80027be:	0112      	lsls	r2, r2, #4
 80027c0:	b2d2      	uxtb	r2, r2
 80027c2:	440b      	add	r3, r1
 80027c4:	f883 2300 	strb.w	r2, [r3, #768]	@ 0x300
  }
  else
  {
    SCB->SHP[(((uint32_t)IRQn) & 0xFUL)-4UL] = (uint8_t)((priority << (8U - __NVIC_PRIO_BITS)) & (uint32_t)0xFFUL);
  }
}
 80027c8:	e00a      	b.n	80027e0 <__NVIC_SetPriority+0x40>
    SCB->SHP[(((uint32_t)IRQn) & 0xFUL)-4UL] = (uint8_t)((priority << (8U - __NVIC_PRIO_BITS)) & (uint32_t)0xFFUL);
 80027ca:	683b      	ldr	r3, [r7, #0]
 80027cc:	b2da      	uxtb	r2, r3
 80027ce:	4908      	ldr	r1, [pc, #32]	@ (80027f0 <__NVIC_SetPriority+0x50>)
 80027d0:	79fb      	ldrb	r3, [r7, #7]
 80027d2:	f003 030f 	and.w	r3, r3, #15
 80027d6:	3b04      	subs	r3, #4
 80027d8:	0112      	lsls	r2, r2, #4
 80027da:	b2d2      	uxtb	r2, r2
 80027dc:	440b      	add	r3, r1
 80027de:	761a      	strb	r2, [r3, #24]
}
 80027e0:	bf00      	nop
 80027e2:	370c      	adds	r7, #12
 80027e4:	46bd      	mov	sp, r7
 80027e6:	f85d 7b04 	ldr.w	r7, [sp], #4
 80027ea:	4770      	bx	lr
 80027ec:	e000e100 	.word	0xe000e100
 80027f0:	e000ed00 	.word	0xe000ed00

080027f4 <NVIC_EncodePriority>:
  \param [in]   PreemptPriority  Preemptive priority value (starting from 0).
  \param [in]       SubPriority  Subpriority value (starting from 0).
  \return                        Encoded priority. Value can be used in the function \ref NVIC_SetPriority().
 */
__STATIC_INLINE uint32_t NVIC_EncodePriority (uint32_t PriorityGroup, uint32_t PreemptPriority, uint32_t SubPriority)
{
 80027f4:	b480      	push	{r7}
 80027f6:	b089      	sub	sp, #36	@ 0x24
 80027f8:	af00      	add	r7, sp, #0
 80027fa:	60f8      	str	r0, [r7, #12]
 80027fc:	60b9      	str	r1, [r7, #8]
 80027fe:	607a      	str	r2, [r7, #4]
  uint32_t PriorityGroupTmp = (PriorityGroup & (uint32_t)0x07UL);   /* only values 0..7 are used          */
 8002800:	68fb      	ldr	r3, [r7, #12]
 8002802:	f003 0307 	and.w	r3, r3, #7
 8002806:	61fb      	str	r3, [r7, #28]
  uint32_t PreemptPriorityBits;
  uint32_t SubPriorityBits;

  PreemptPriorityBits = ((7UL - PriorityGroupTmp) > (uint32_t)(__NVIC_PRIO_BITS)) ? (uint32_t)(__NVIC_PRIO_BITS) : (uint32_t)(7UL - PriorityGroupTmp);
 8002808:	69fb      	ldr	r3, [r7, #28]
 800280a:	f1c3 0307 	rsb	r3, r3, #7
 800280e:	2b04      	cmp	r3, #4
 8002810:	bf28      	it	cs
 8002812:	2304      	movcs	r3, #4
 8002814:	61bb      	str	r3, [r7, #24]
  SubPriorityBits     = ((PriorityGroupTmp + (uint32_t)(__NVIC_PRIO_BITS)) < (uint32_t)7UL) ? (uint32_t)0UL : (uint32_t)((PriorityGroupTmp - 7UL) + (uint32_t)(__NVIC_PRIO_BITS));
 8002816:	69fb      	ldr	r3, [r7, #28]
 8002818:	3304      	adds	r3, #4
 800281a:	2b06      	cmp	r3, #6
 800281c:	d902      	bls.n	8002824 <NVIC_EncodePriority+0x30>
 800281e:	69fb      	ldr	r3, [r7, #28]
 8002820:	3b03      	subs	r3, #3
 8002822:	e000      	b.n	8002826 <NVIC_EncodePriority+0x32>
 8002824:	2300      	movs	r3, #0
 8002826:	617b      	str	r3, [r7, #20]

  return (
           ((PreemptPriority & (uint32_t)((1UL << (PreemptPriorityBits)) - 1UL)) << SubPriorityBits) |
 8002828:	f04f 32ff 	mov.w	r2, #4294967295
 800282c:	69bb      	ldr	r3, [r7, #24]
 800282e:	fa02 f303 	lsl.w	r3, r2, r3
 8002832:	43da      	mvns	r2, r3
 8002834:	68bb      	ldr	r3, [r7, #8]
 8002836:	401a      	ands	r2, r3
 8002838:	697b      	ldr	r3, [r7, #20]
 800283a:	409a      	lsls	r2, r3
           ((SubPriority     & (uint32_t)((1UL << (SubPriorityBits    )) - 1UL)))
 800283c:	f04f 31ff 	mov.w	r1, #4294967295
 8002840:	697b      	ldr	r3, [r7, #20]
 8002842:	fa01 f303 	lsl.w	r3, r1, r3
 8002846:	43d9      	mvns	r1, r3
 8002848:	687b      	ldr	r3, [r7, #4]
 800284a:	400b      	ands	r3, r1
           ((PreemptPriority & (uint32_t)((1UL << (PreemptPriorityBits)) - 1UL)) << SubPriorityBits) |
 800284c:	4313      	orrs	r3, r2
         );
}
 800284e:	4618      	mov	r0, r3
 8002850:	3724      	adds	r7, #36	@ 0x24
 8002852:	46bd      	mov	sp, r7
 8002854:	f85d 7b04 	ldr.w	r7, [sp], #4
 8002858:	4770      	bx	lr
	...

0800285c <SysTick_Config>:
  \note    When the variable <b>__Vendor_SysTickConfig</b> is set to 1, then the
           function <b>SysTick_Config</b> is not included. In this case, the file <b><i>device</i>.h</b>
           must contain a vendor-specific implementation of this function.
 */
__STATIC_INLINE uint32_t SysTick_Config(uint32_t ticks)
{
 800285c:	b580      	push	{r7, lr}
 800285e:	b082      	sub	sp, #8
 8002860:	af00      	add	r7, sp, #0
 8002862:	6078      	str	r0, [r7, #4]
  if ((ticks - 1UL) > SysTick_LOAD_RELOAD_Msk)
 8002864:	687b      	ldr	r3, [r7, #4]
 8002866:	3b01      	subs	r3, #1
 8002868:	f1b3 7f80 	cmp.w	r3, #16777216	@ 0x1000000
 800286c:	d301      	bcc.n	8002872 <SysTick_Config+0x16>
  {
    return (1UL);                                                   /* Reload value impossible */
 800286e:	2301      	movs	r3, #1
 8002870:	e00f      	b.n	8002892 <SysTick_Config+0x36>
  }

  SysTick->LOAD  = (uint32_t)(ticks - 1UL);                         /* set reload register */
 8002872:	4a0a      	ldr	r2, [pc, #40]	@ (800289c <SysTick_Config+0x40>)
 8002874:	687b      	ldr	r3, [r7, #4]
 8002876:	3b01      	subs	r3, #1
 8002878:	6053      	str	r3, [r2, #4]
  NVIC_SetPriority (SysTick_IRQn, (1UL << __NVIC_PRIO_BITS) - 1UL); /* set Priority for Systick Interrupt */
 800287a:	210f      	movs	r1, #15
 800287c:	f04f 30ff 	mov.w	r0, #4294967295
 8002880:	f7ff ff8e 	bl	80027a0 <__NVIC_SetPriority>
  SysTick->VAL   = 0UL;                                             /* Load the SysTick Counter Value */
 8002884:	4b05      	ldr	r3, [pc, #20]	@ (800289c <SysTick_Config+0x40>)
 8002886:	2200      	movs	r2, #0
 8002888:	609a      	str	r2, [r3, #8]
  SysTick->CTRL  = SysTick_CTRL_CLKSOURCE_Msk |
 800288a:	4b04      	ldr	r3, [pc, #16]	@ (800289c <SysTick_Config+0x40>)
 800288c:	2207      	movs	r2, #7
 800288e:	601a      	str	r2, [r3, #0]
                   SysTick_CTRL_TICKINT_Msk   |
                   SysTick_CTRL_ENABLE_Msk;                         /* Enable SysTick IRQ and SysTick Timer */
  return (0UL);                                                     /* Function successful */
 8002890:	2300      	movs	r3, #0
}
 8002892:	4618      	mov	r0, r3
 8002894:	3708      	adds	r7, #8
 8002896:	46bd      	mov	sp, r7
 8002898:	bd80      	pop	{r7, pc}
 800289a:	bf00      	nop
 800289c:	e000e010 	.word	0xe000e010

080028a0 <HAL_NVIC_SetPriorityGrouping>:
  * @note   When the NVIC_PriorityGroup_0 is selected, IRQ pre-emption is no more possible.
  *         The pending IRQ priority will be managed only by the subpriority.
  * @retval None
  */
void HAL_NVIC_SetPriorityGrouping(uint32_t PriorityGroup)
{
 80028a0:	b580      	push	{r7, lr}
 80028a2:	b082      	sub	sp, #8
 80028a4:	af00      	add	r7, sp, #0
 80028a6:	6078      	str	r0, [r7, #4]
  /* Check the parameters */
  assert_param(IS_NVIC_PRIORITY_GROUP(PriorityGroup));

  /* Set the PRIGROUP[10:8] bits according to the PriorityGroup parameter value */
  NVIC_SetPriorityGrouping(PriorityGroup);
 80028a8:	6878      	ldr	r0, [r7, #4]
 80028aa:	f7ff ff29 	bl	8002700 <__NVIC_SetPriorityGrouping>
}
 80028ae:	bf00      	nop
 80028b0:	3708      	adds	r7, #8
 80028b2:	46bd      	mov	sp, r7
 80028b4:	bd80      	pop	{r7, pc}

080028b6 <HAL_NVIC_SetPriority>:
  *         This parameter can be a value between 0 and 15 as described in the table CORTEX_NVIC_Priority_Table
  *         A lower priority value indicates a higher priority.
  * @retval None
  */
void HAL_NVIC_SetPriority(IRQn_Type IRQn, uint32_t PreemptPriority, uint32_t SubPriority)
{
 80028b6:	b580      	push	{r7, lr}
 80028b8:	b086      	sub	sp, #24
 80028ba:	af00      	add	r7, sp, #0
 80028bc:	4603      	mov	r3, r0
 80028be:	60b9      	str	r1, [r7, #8]
 80028c0:	607a      	str	r2, [r7, #4]
 80028c2:	73fb      	strb	r3, [r7, #15]
  uint32_t prioritygroup = 0x00U;
 80028c4:	2300      	movs	r3, #0
 80028c6:	617b      	str	r3, [r7, #20]
  
  /* Check the parameters */
  assert_param(IS_NVIC_SUB_PRIORITY(SubPriority));
  assert_param(IS_NVIC_PREEMPTION_PRIORITY(PreemptPriority));
  
  prioritygroup = NVIC_GetPriorityGrouping();
 80028c8:	f7ff ff3e 	bl	8002748 <__NVIC_GetPriorityGrouping>
 80028cc:	6178      	str	r0, [r7, #20]
  
  NVIC_SetPriority(IRQn, NVIC_EncodePriority(prioritygroup, PreemptPriority, SubPriority));
 80028ce:	687a      	ldr	r2, [r7, #4]
 80028d0:	68b9      	ldr	r1, [r7, #8]
 80028d2:	6978      	ldr	r0, [r7, #20]
 80028d4:	f7ff ff8e 	bl	80027f4 <NVIC_EncodePriority>
 80028d8:	4602      	mov	r2, r0
 80028da:	f997 300f 	ldrsb.w	r3, [r7, #15]
 80028de:	4611      	mov	r1, r2
 80028e0:	4618      	mov	r0, r3
 80028e2:	f7ff ff5d 	bl	80027a0 <__NVIC_SetPriority>
}
 80028e6:	bf00      	nop
 80028e8:	3718      	adds	r7, #24
 80028ea:	46bd      	mov	sp, r7
 80028ec:	bd80      	pop	{r7, pc}

080028ee <HAL_NVIC_EnableIRQ>:
  *         This parameter can be an enumerator of IRQn_Type enumeration
  *         (For the complete STM32 Devices IRQ Channels list, please refer to the appropriate CMSIS device file (stm32f3xxxx.h))
  * @retval None
  */
void HAL_NVIC_EnableIRQ(IRQn_Type IRQn)
{
 80028ee:	b580      	push	{r7, lr}
 80028f0:	b082      	sub	sp, #8
 80028f2:	af00      	add	r7, sp, #0
 80028f4:	4603      	mov	r3, r0
 80028f6:	71fb      	strb	r3, [r7, #7]
  /* Check the parameters */
  assert_param(IS_NVIC_DEVICE_IRQ(IRQn));
  
  /* Enable interrupt */
  NVIC_EnableIRQ(IRQn);
 80028f8:	f997 3007 	ldrsb.w	r3, [r7, #7]
 80028fc:	4618      	mov	r0, r3
 80028fe:	f7ff ff31 	bl	8002764 <__NVIC_EnableIRQ>
}
 8002902:	bf00      	nop
 8002904:	3708      	adds	r7, #8
 8002906:	46bd      	mov	sp, r7
 8002908:	bd80      	pop	{r7, pc}

0800290a <HAL_SYSTICK_Config>:
  * @param  TicksNumb Specifies the ticks Number of ticks between two interrupts.
  * @retval status:  - 0  Function succeeded.
  *                  - 1  Function failed.
  */
uint32_t HAL_SYSTICK_Config(uint32_t TicksNumb)
{
 800290a:	b580      	push	{r7, lr}
 800290c:	b082      	sub	sp, #8
 800290e:	af00      	add	r7, sp, #0
 8002910:	6078      	str	r0, [r7, #4]
   return SysTick_Config(TicksNumb);
 8002912:	6878      	ldr	r0, [r7, #4]
 8002914:	f7ff ffa2 	bl	800285c <SysTick_Config>
 8002918:	4603      	mov	r3, r0
}
 800291a:	4618      	mov	r0, r3
 800291c:	3708      	adds	r7, #8
 800291e:	46bd      	mov	sp, r7
 8002920:	bd80      	pop	{r7, pc}
	...

08002924 <HAL_GPIO_Init>:
  * @param  GPIO_Init pointer to a GPIO_InitTypeDef structure that contains
  *         the configuration information for the specified GPIO peripheral.
  * @retval None
  */
void HAL_GPIO_Init(GPIO_TypeDef  *GPIOx, GPIO_InitTypeDef *GPIO_Init)
{
 8002924:	b480      	push	{r7}
 8002926:	b087      	sub	sp, #28
 8002928:	af00      	add	r7, sp, #0
 800292a:	6078      	str	r0, [r7, #4]
 800292c:	6039      	str	r1, [r7, #0]
  uint32_t position = 0x00u;
 800292e:	2300      	movs	r3, #0
 8002930:	617b      	str	r3, [r7, #20]
  assert_param(IS_GPIO_ALL_INSTANCE(GPIOx));
  assert_param(IS_GPIO_PIN(GPIO_Init->Pin));
  assert_param(IS_GPIO_MODE(GPIO_Init->Mode));

  /* Configure the port pins */
  while (((GPIO_Init->Pin) >> position) != 0x00u)
 8002932:	e14e      	b.n	8002bd2 <HAL_GPIO_Init+0x2ae>
  {
    /* Get current io position */
    iocurrent = (GPIO_Init->Pin) & (1uL << position);
 8002934:	683b      	ldr	r3, [r7, #0]
 8002936:	681a      	ldr	r2, [r3, #0]
 8002938:	2101      	movs	r1, #1
 800293a:	697b      	ldr	r3, [r7, #20]
 800293c:	fa01 f303 	lsl.w	r3, r1, r3
 8002940:	4013      	ands	r3, r2
 8002942:	60fb      	str	r3, [r7, #12]

    if (iocurrent != 0x00u)
 8002944:	68fb      	ldr	r3, [r7, #12]
 8002946:	2b00      	cmp	r3, #0
 8002948:	f000 8140 	beq.w	8002bcc <HAL_GPIO_Init+0x2a8>
    {
      /*--------------------- GPIO Mode Configuration ------------------------*/
      /* In case of Output or Alternate function mode selection */
      if(((GPIO_Init->Mode & GPIO_MODE) == MODE_OUTPUT) || ((GPIO_Init->Mode & GPIO_MODE) == MODE_AF))
 800294c:	683b      	ldr	r3, [r7, #0]
 800294e:	685b      	ldr	r3, [r3, #4]
 8002950:	f003 0303 	and.w	r3, r3, #3
 8002954:	2b01      	cmp	r3, #1
 8002956:	d005      	beq.n	8002964 <HAL_GPIO_Init+0x40>
 8002958:	683b      	ldr	r3, [r7, #0]
 800295a:	685b      	ldr	r3, [r3, #4]
 800295c:	f003 0303 	and.w	r3, r3, #3
 8002960:	2b02      	cmp	r3, #2
 8002962:	d130      	bne.n	80029c6 <HAL_GPIO_Init+0xa2>
      {
        /* Check the Speed parameter */
        assert_param(IS_GPIO_SPEED(GPIO_Init->Speed));
        /* Configure the IO Speed */
        temp = GPIOx->OSPEEDR;
 8002964:	687b      	ldr	r3, [r7, #4]
 8002966:	689b      	ldr	r3, [r3, #8]
 8002968:	613b      	str	r3, [r7, #16]
        temp &= ~(GPIO_OSPEEDER_OSPEEDR0 << (position * 2u));
 800296a:	697b      	ldr	r3, [r7, #20]
 800296c:	005b      	lsls	r3, r3, #1
 800296e:	2203      	movs	r2, #3
 8002970:	fa02 f303 	lsl.w	r3, r2, r3
 8002974:	43db      	mvns	r3, r3
 8002976:	693a      	ldr	r2, [r7, #16]
 8002978:	4013      	ands	r3, r2
 800297a:	613b      	str	r3, [r7, #16]
        temp |= (GPIO_Init->Speed << (position * 2u));
 800297c:	683b      	ldr	r3, [r7, #0]
 800297e:	68da      	ldr	r2, [r3, #12]
 8002980:	697b      	ldr	r3, [r7, #20]
 8002982:	005b      	lsls	r3, r3, #1
 8002984:	fa02 f303 	lsl.w	r3, r2, r3
 8002988:	693a      	ldr	r2, [r7, #16]
 800298a:	4313      	orrs	r3, r2
 800298c:	613b      	str	r3, [r7, #16]
        GPIOx->OSPEEDR = temp;
 800298e:	687b      	ldr	r3, [r7, #4]
 8002990:	693a      	ldr	r2, [r7, #16]
 8002992:	609a      	str	r2, [r3, #8]

        /* Configure the IO Output Type */
        temp = GPIOx->OTYPER;
 8002994:	687b      	ldr	r3, [r7, #4]
 8002996:	685b      	ldr	r3, [r3, #4]
 8002998:	613b      	str	r3, [r7, #16]
        temp &= ~(GPIO_OTYPER_OT_0 << position) ;
 800299a:	2201      	movs	r2, #1
 800299c:	697b      	ldr	r3, [r7, #20]
 800299e:	fa02 f303 	lsl.w	r3, r2, r3
 80029a2:	43db      	mvns	r3, r3
 80029a4:	693a      	ldr	r2, [r7, #16]
 80029a6:	4013      	ands	r3, r2
 80029a8:	613b      	str	r3, [r7, #16]
        temp |= (((GPIO_Init->Mode & OUTPUT_TYPE) >> OUTPUT_TYPE_Pos) << position);
 80029aa:	683b      	ldr	r3, [r7, #0]
 80029ac:	685b      	ldr	r3, [r3, #4]
 80029ae:	091b      	lsrs	r3, r3, #4
 80029b0:	f003 0201 	and.w	r2, r3, #1
 80029b4:	697b      	ldr	r3, [r7, #20]
 80029b6:	fa02 f303 	lsl.w	r3, r2, r3
 80029ba:	693a      	ldr	r2, [r7, #16]
 80029bc:	4313      	orrs	r3, r2
 80029be:	613b      	str	r3, [r7, #16]
        GPIOx->OTYPER = temp;
 80029c0:	687b      	ldr	r3, [r7, #4]
 80029c2:	693a      	ldr	r2, [r7, #16]
 80029c4:	605a      	str	r2, [r3, #4]
      }

      if((GPIO_Init->Mode & GPIO_MODE) != MODE_ANALOG)
 80029c6:	683b      	ldr	r3, [r7, #0]
 80029c8:	685b      	ldr	r3, [r3, #4]
 80029ca:	f003 0303 	and.w	r3, r3, #3
 80029ce:	2b03      	cmp	r3, #3
 80029d0:	d017      	beq.n	8002a02 <HAL_GPIO_Init+0xde>
      {
        /* Check the Pull parameter */
        assert_param(IS_GPIO_PULL(GPIO_Init->Pull));

        /* Activate the Pull-up or Pull down resistor for the current IO */
        temp = GPIOx->PUPDR;
 80029d2:	687b      	ldr	r3, [r7, #4]
 80029d4:	68db      	ldr	r3, [r3, #12]
 80029d6:	613b      	str	r3, [r7, #16]
        temp &= ~(GPIO_PUPDR_PUPDR0 << (position * 2u));
 80029d8:	697b      	ldr	r3, [r7, #20]
 80029da:	005b      	lsls	r3, r3, #1
 80029dc:	2203      	movs	r2, #3
 80029de:	fa02 f303 	lsl.w	r3, r2, r3
 80029e2:	43db      	mvns	r3, r3
 80029e4:	693a      	ldr	r2, [r7, #16]
 80029e6:	4013      	ands	r3, r2
 80029e8:	613b      	str	r3, [r7, #16]
        temp |= ((GPIO_Init->Pull) << (position * 2u));
 80029ea:	683b      	ldr	r3, [r7, #0]
 80029ec:	689a      	ldr	r2, [r3, #8]
 80029ee:	697b      	ldr	r3, [r7, #20]
 80029f0:	005b      	lsls	r3, r3, #1
 80029f2:	fa02 f303 	lsl.w	r3, r2, r3
 80029f6:	693a      	ldr	r2, [r7, #16]
 80029f8:	4313      	orrs	r3, r2
 80029fa:	613b      	str	r3, [r7, #16]
        GPIOx->PUPDR = temp;
 80029fc:	687b      	ldr	r3, [r7, #4]
 80029fe:	693a      	ldr	r2, [r7, #16]
 8002a00:	60da      	str	r2, [r3, #12]
      }

      /*--------------------- GPIO Mode Configuration ------------------------*/
      /* In case of Alternate function mode selection */
      if((GPIO_Init->Mode & GPIO_MODE) == MODE_AF)
 8002a02:	683b      	ldr	r3, [r7, #0]
 8002a04:	685b      	ldr	r3, [r3, #4]
 8002a06:	f003 0303 	and.w	r3, r3, #3
 8002a0a:	2b02      	cmp	r3, #2
 8002a0c:	d123      	bne.n	8002a56 <HAL_GPIO_Init+0x132>
        /* Check the Alternate function parameters */
        assert_param(IS_GPIO_AF_INSTANCE(GPIOx));
        assert_param(IS_GPIO_AF(GPIO_Init->Alternate));

        /* Configure Alternate function mapped with the current IO */
        temp = GPIOx->AFR[position >> 3u];
 8002a0e:	697b      	ldr	r3, [r7, #20]
 8002a10:	08da      	lsrs	r2, r3, #3
 8002a12:	687b      	ldr	r3, [r7, #4]
 8002a14:	3208      	adds	r2, #8
 8002a16:	f853 3022 	ldr.w	r3, [r3, r2, lsl #2]
 8002a1a:	613b      	str	r3, [r7, #16]
        temp &= ~(0xFu << ((position & 0x07u) * 4u));
 8002a1c:	697b      	ldr	r3, [r7, #20]
 8002a1e:	f003 0307 	and.w	r3, r3, #7
 8002a22:	009b      	lsls	r3, r3, #2
 8002a24:	220f      	movs	r2, #15
 8002a26:	fa02 f303 	lsl.w	r3, r2, r3
 8002a2a:	43db      	mvns	r3, r3
 8002a2c:	693a      	ldr	r2, [r7, #16]
 8002a2e:	4013      	ands	r3, r2
 8002a30:	613b      	str	r3, [r7, #16]
        temp |= ((GPIO_Init->Alternate) << ((position & 0x07u) * 4u));
 8002a32:	683b      	ldr	r3, [r7, #0]
 8002a34:	691a      	ldr	r2, [r3, #16]
 8002a36:	697b      	ldr	r3, [r7, #20]
 8002a38:	f003 0307 	and.w	r3, r3, #7
 8002a3c:	009b      	lsls	r3, r3, #2
 8002a3e:	fa02 f303 	lsl.w	r3, r2, r3
 8002a42:	693a      	ldr	r2, [r7, #16]
 8002a44:	4313      	orrs	r3, r2
 8002a46:	613b      	str	r3, [r7, #16]
        GPIOx->AFR[position >> 3u] = temp;
 8002a48:	697b      	ldr	r3, [r7, #20]
 8002a4a:	08da      	lsrs	r2, r3, #3
 8002a4c:	687b      	ldr	r3, [r7, #4]
 8002a4e:	3208      	adds	r2, #8
 8002a50:	6939      	ldr	r1, [r7, #16]
 8002a52:	f843 1022 	str.w	r1, [r3, r2, lsl #2]
      }

      /* Configure IO Direction mode (Input, Output, Alternate or Analog) */
      temp = GPIOx->MODER;
 8002a56:	687b      	ldr	r3, [r7, #4]
 8002a58:	681b      	ldr	r3, [r3, #0]
 8002a5a:	613b      	str	r3, [r7, #16]
      temp &= ~(GPIO_MODER_MODER0 << (position * 2u));
 8002a5c:	697b      	ldr	r3, [r7, #20]
 8002a5e:	005b      	lsls	r3, r3, #1
 8002a60:	2203      	movs	r2, #3
 8002a62:	fa02 f303 	lsl.w	r3, r2, r3
 8002a66:	43db      	mvns	r3, r3
 8002a68:	693a      	ldr	r2, [r7, #16]
 8002a6a:	4013      	ands	r3, r2
 8002a6c:	613b      	str	r3, [r7, #16]
      temp |= ((GPIO_Init->Mode & GPIO_MODE) << (position * 2u));
 8002a6e:	683b      	ldr	r3, [r7, #0]
 8002a70:	685b      	ldr	r3, [r3, #4]
 8002a72:	f003 0203 	and.w	r2, r3, #3
 8002a76:	697b      	ldr	r3, [r7, #20]
 8002a78:	005b      	lsls	r3, r3, #1
 8002a7a:	fa02 f303 	lsl.w	r3, r2, r3
 8002a7e:	693a      	ldr	r2, [r7, #16]
 8002a80:	4313      	orrs	r3, r2
 8002a82:	613b      	str	r3, [r7, #16]
      GPIOx->MODER = temp;
 8002a84:	687b      	ldr	r3, [r7, #4]
 8002a86:	693a      	ldr	r2, [r7, #16]
 8002a88:	601a      	str	r2, [r3, #0]

      /*--------------------- EXTI Mode Configuration ------------------------*/
      /* Configure the External Interrupt or event for the current IO */
      if((GPIO_Init->Mode & EXTI_MODE) != 0x00u)
 8002a8a:	683b      	ldr	r3, [r7, #0]
 8002a8c:	685b      	ldr	r3, [r3, #4]
 8002a8e:	f403 3340 	and.w	r3, r3, #196608	@ 0x30000
 8002a92:	2b00      	cmp	r3, #0
 8002a94:	f000 809a 	beq.w	8002bcc <HAL_GPIO_Init+0x2a8>
      {
        /* Enable SYSCFG Clock */
        __HAL_RCC_SYSCFG_CLK_ENABLE();
 8002a98:	4b55      	ldr	r3, [pc, #340]	@ (8002bf0 <HAL_GPIO_Init+0x2cc>)
 8002a9a:	699b      	ldr	r3, [r3, #24]
 8002a9c:	4a54      	ldr	r2, [pc, #336]	@ (8002bf0 <HAL_GPIO_Init+0x2cc>)
 8002a9e:	f043 0301 	orr.w	r3, r3, #1
 8002aa2:	6193      	str	r3, [r2, #24]
 8002aa4:	4b52      	ldr	r3, [pc, #328]	@ (8002bf0 <HAL_GPIO_Init+0x2cc>)
 8002aa6:	699b      	ldr	r3, [r3, #24]
 8002aa8:	f003 0301 	and.w	r3, r3, #1
 8002aac:	60bb      	str	r3, [r7, #8]
 8002aae:	68bb      	ldr	r3, [r7, #8]

        temp = SYSCFG->EXTICR[position >> 2u];
 8002ab0:	4a50      	ldr	r2, [pc, #320]	@ (8002bf4 <HAL_GPIO_Init+0x2d0>)
 8002ab2:	697b      	ldr	r3, [r7, #20]
 8002ab4:	089b      	lsrs	r3, r3, #2
 8002ab6:	3302      	adds	r3, #2
 8002ab8:	f852 3023 	ldr.w	r3, [r2, r3, lsl #2]
 8002abc:	613b      	str	r3, [r7, #16]
        temp &= ~(0x0FuL << (4u * (position & 0x03u)));
 8002abe:	697b      	ldr	r3, [r7, #20]
 8002ac0:	f003 0303 	and.w	r3, r3, #3
 8002ac4:	009b      	lsls	r3, r3, #2
 8002ac6:	220f      	movs	r2, #15
 8002ac8:	fa02 f303 	lsl.w	r3, r2, r3
 8002acc:	43db      	mvns	r3, r3
 8002ace:	693a      	ldr	r2, [r7, #16]
 8002ad0:	4013      	ands	r3, r2
 8002ad2:	613b      	str	r3, [r7, #16]
        temp |= (GPIO_GET_INDEX(GPIOx) << (4u * (position & 0x03u)));
 8002ad4:	687b      	ldr	r3, [r7, #4]
 8002ad6:	f1b3 4f90 	cmp.w	r3, #1207959552	@ 0x48000000
 8002ada:	d013      	beq.n	8002b04 <HAL_GPIO_Init+0x1e0>
 8002adc:	687b      	ldr	r3, [r7, #4]
 8002ade:	4a46      	ldr	r2, [pc, #280]	@ (8002bf8 <HAL_GPIO_Init+0x2d4>)
 8002ae0:	4293      	cmp	r3, r2
 8002ae2:	d00d      	beq.n	8002b00 <HAL_GPIO_Init+0x1dc>
 8002ae4:	687b      	ldr	r3, [r7, #4]
 8002ae6:	4a45      	ldr	r2, [pc, #276]	@ (8002bfc <HAL_GPIO_Init+0x2d8>)
 8002ae8:	4293      	cmp	r3, r2
 8002aea:	d007      	beq.n	8002afc <HAL_GPIO_Init+0x1d8>
 8002aec:	687b      	ldr	r3, [r7, #4]
 8002aee:	4a44      	ldr	r2, [pc, #272]	@ (8002c00 <HAL_GPIO_Init+0x2dc>)
 8002af0:	4293      	cmp	r3, r2
 8002af2:	d101      	bne.n	8002af8 <HAL_GPIO_Init+0x1d4>
 8002af4:	2303      	movs	r3, #3
 8002af6:	e006      	b.n	8002b06 <HAL_GPIO_Init+0x1e2>
 8002af8:	2305      	movs	r3, #5
 8002afa:	e004      	b.n	8002b06 <HAL_GPIO_Init+0x1e2>
 8002afc:	2302      	movs	r3, #2
 8002afe:	e002      	b.n	8002b06 <HAL_GPIO_Init+0x1e2>
 8002b00:	2301      	movs	r3, #1
 8002b02:	e000      	b.n	8002b06 <HAL_GPIO_Init+0x1e2>
 8002b04:	2300      	movs	r3, #0
 8002b06:	697a      	ldr	r2, [r7, #20]
 8002b08:	f002 0203 	and.w	r2, r2, #3
 8002b0c:	0092      	lsls	r2, r2, #2
 8002b0e:	4093      	lsls	r3, r2
 8002b10:	693a      	ldr	r2, [r7, #16]
 8002b12:	4313      	orrs	r3, r2
 8002b14:	613b      	str	r3, [r7, #16]
        SYSCFG->EXTICR[position >> 2u] = temp;
 8002b16:	4937      	ldr	r1, [pc, #220]	@ (8002bf4 <HAL_GPIO_Init+0x2d0>)
 8002b18:	697b      	ldr	r3, [r7, #20]
 8002b1a:	089b      	lsrs	r3, r3, #2
 8002b1c:	3302      	adds	r3, #2
 8002b1e:	693a      	ldr	r2, [r7, #16]
 8002b20:	f841 2023 	str.w	r2, [r1, r3, lsl #2]

        /* Clear Rising Falling edge configuration */
        temp = EXTI->RTSR;
 8002b24:	4b37      	ldr	r3, [pc, #220]	@ (8002c04 <HAL_GPIO_Init+0x2e0>)
 8002b26:	689b      	ldr	r3, [r3, #8]
 8002b28:	613b      	str	r3, [r7, #16]
        temp &= ~(iocurrent);
 8002b2a:	68fb      	ldr	r3, [r7, #12]
 8002b2c:	43db      	mvns	r3, r3
 8002b2e:	693a      	ldr	r2, [r7, #16]
 8002b30:	4013      	ands	r3, r2
 8002b32:	613b      	str	r3, [r7, #16]
        if((GPIO_Init->Mode & TRIGGER_RISING) != 0x00u)
 8002b34:	683b      	ldr	r3, [r7, #0]
 8002b36:	685b      	ldr	r3, [r3, #4]
 8002b38:	f403 1380 	and.w	r3, r3, #1048576	@ 0x100000
 8002b3c:	2b00      	cmp	r3, #0
 8002b3e:	d003      	beq.n	8002b48 <HAL_GPIO_Init+0x224>
        {
          temp |= iocurrent;
 8002b40:	693a      	ldr	r2, [r7, #16]
 8002b42:	68fb      	ldr	r3, [r7, #12]
 8002b44:	4313      	orrs	r3, r2
 8002b46:	613b      	str	r3, [r7, #16]
        }
        EXTI->RTSR = temp;
 8002b48:	4a2e      	ldr	r2, [pc, #184]	@ (8002c04 <HAL_GPIO_Init+0x2e0>)
 8002b4a:	693b      	ldr	r3, [r7, #16]
 8002b4c:	6093      	str	r3, [r2, #8]

        temp = EXTI->FTSR;
 8002b4e:	4b2d      	ldr	r3, [pc, #180]	@ (8002c04 <HAL_GPIO_Init+0x2e0>)
 8002b50:	68db      	ldr	r3, [r3, #12]
 8002b52:	613b      	str	r3, [r7, #16]
        temp &= ~(iocurrent);
 8002b54:	68fb      	ldr	r3, [r7, #12]
 8002b56:	43db      	mvns	r3, r3
 8002b58:	693a      	ldr	r2, [r7, #16]
 8002b5a:	4013      	ands	r3, r2
 8002b5c:	613b      	str	r3, [r7, #16]
        if((GPIO_Init->Mode & TRIGGER_FALLING) != 0x00u)
 8002b5e:	683b      	ldr	r3, [r7, #0]
 8002b60:	685b      	ldr	r3, [r3, #4]
 8002b62:	f403 1300 	and.w	r3, r3, #2097152	@ 0x200000
 8002b66:	2b00      	cmp	r3, #0
 8002b68:	d003      	beq.n	8002b72 <HAL_GPIO_Init+0x24e>
        {
          temp |= iocurrent;
 8002b6a:	693a      	ldr	r2, [r7, #16]
 8002b6c:	68fb      	ldr	r3, [r7, #12]
 8002b6e:	4313      	orrs	r3, r2
 8002b70:	613b      	str	r3, [r7, #16]
        }
        EXTI->FTSR = temp;
 8002b72:	4a24      	ldr	r2, [pc, #144]	@ (8002c04 <HAL_GPIO_Init+0x2e0>)
 8002b74:	693b      	ldr	r3, [r7, #16]
 8002b76:	60d3      	str	r3, [r2, #12]

        temp = EXTI->EMR;
 8002b78:	4b22      	ldr	r3, [pc, #136]	@ (8002c04 <HAL_GPIO_Init+0x2e0>)
 8002b7a:	685b      	ldr	r3, [r3, #4]
 8002b7c:	613b      	str	r3, [r7, #16]
        temp &= ~(iocurrent);
 8002b7e:	68fb      	ldr	r3, [r7, #12]
 8002b80:	43db      	mvns	r3, r3
 8002b82:	693a      	ldr	r2, [r7, #16]
 8002b84:	4013      	ands	r3, r2
 8002b86:	613b      	str	r3, [r7, #16]
        if((GPIO_Init->Mode & EXTI_EVT) != 0x00u)
 8002b88:	683b      	ldr	r3, [r7, #0]
 8002b8a:	685b      	ldr	r3, [r3, #4]
 8002b8c:	f403 3300 	and.w	r3, r3, #131072	@ 0x20000
 8002b90:	2b00      	cmp	r3, #0
 8002b92:	d003      	beq.n	8002b9c <HAL_GPIO_Init+0x278>
        {
          temp |= iocurrent;
 8002b94:	693a      	ldr	r2, [r7, #16]
 8002b96:	68fb      	ldr	r3, [r7, #12]
 8002b98:	4313      	orrs	r3, r2
 8002b9a:	613b      	str	r3, [r7, #16]
        }
        EXTI->EMR = temp;
 8002b9c:	4a19      	ldr	r2, [pc, #100]	@ (8002c04 <HAL_GPIO_Init+0x2e0>)
 8002b9e:	693b      	ldr	r3, [r7, #16]
 8002ba0:	6053      	str	r3, [r2, #4]

        /* Clear EXTI line configuration */
        temp = EXTI->IMR;
 8002ba2:	4b18      	ldr	r3, [pc, #96]	@ (8002c04 <HAL_GPIO_Init+0x2e0>)
 8002ba4:	681b      	ldr	r3, [r3, #0]
 8002ba6:	613b      	str	r3, [r7, #16]
        temp &= ~(iocurrent);
 8002ba8:	68fb      	ldr	r3, [r7, #12]
 8002baa:	43db      	mvns	r3, r3
 8002bac:	693a      	ldr	r2, [r7, #16]
 8002bae:	4013      	ands	r3, r2
 8002bb0:	613b      	str	r3, [r7, #16]
        if((GPIO_Init->Mode & EXTI_IT) != 0x00u)
 8002bb2:	683b      	ldr	r3, [r7, #0]
 8002bb4:	685b      	ldr	r3, [r3, #4]
 8002bb6:	f403 3380 	and.w	r3, r3, #65536	@ 0x10000
 8002bba:	2b00      	cmp	r3, #0
 8002bbc:	d003      	beq.n	8002bc6 <HAL_GPIO_Init+0x2a2>
        {
          temp |= iocurrent;
 8002bbe:	693a      	ldr	r2, [r7, #16]
 8002bc0:	68fb      	ldr	r3, [r7, #12]
 8002bc2:	4313      	orrs	r3, r2
 8002bc4:	613b      	str	r3, [r7, #16]
        }
        EXTI->IMR = temp;
 8002bc6:	4a0f      	ldr	r2, [pc, #60]	@ (8002c04 <HAL_GPIO_Init+0x2e0>)
 8002bc8:	693b      	ldr	r3, [r7, #16]
 8002bca:	6013      	str	r3, [r2, #0]
      }
    }

    position++;
 8002bcc:	697b      	ldr	r3, [r7, #20]
 8002bce:	3301      	adds	r3, #1
 8002bd0:	617b      	str	r3, [r7, #20]
  while (((GPIO_Init->Pin) >> position) != 0x00u)
 8002bd2:	683b      	ldr	r3, [r7, #0]
 8002bd4:	681a      	ldr	r2, [r3, #0]
 8002bd6:	697b      	ldr	r3, [r7, #20]
 8002bd8:	fa22 f303 	lsr.w	r3, r2, r3
 8002bdc:	2b00      	cmp	r3, #0
 8002bde:	f47f aea9 	bne.w	8002934 <HAL_GPIO_Init+0x10>
  }
}
 8002be2:	bf00      	nop
 8002be4:	bf00      	nop
 8002be6:	371c      	adds	r7, #28
 8002be8:	46bd      	mov	sp, r7
 8002bea:	f85d 7b04 	ldr.w	r7, [sp], #4
 8002bee:	4770      	bx	lr
 8002bf0:	40021000 	.word	0x40021000
 8002bf4:	40010000 	.word	0x40010000
 8002bf8:	48000400 	.word	0x48000400
 8002bfc:	48000800 	.word	0x48000800
 8002c00:	48000c00 	.word	0x48000c00
 8002c04:	40010400 	.word	0x40010400

08002c08 <HAL_GPIO_EXTI_IRQHandler>:
  * @brief  Handle EXTI interrupt request.
  * @param  GPIO_Pin Specifies the port pin connected to corresponding EXTI line.
  * @retval None
  */
void HAL_GPIO_EXTI_IRQHandler(uint16_t GPIO_Pin)
{
 8002c08:	b580      	push	{r7, lr}
 8002c0a:	b082      	sub	sp, #8
 8002c0c:	af00      	add	r7, sp, #0
 8002c0e:	4603      	mov	r3, r0
 8002c10:	80fb      	strh	r3, [r7, #6]
  /* EXTI line interrupt detected */
  if(__HAL_GPIO_EXTI_GET_IT(GPIO_Pin) != 0x00u)
 8002c12:	4b08      	ldr	r3, [pc, #32]	@ (8002c34 <HAL_GPIO_EXTI_IRQHandler+0x2c>)
 8002c14:	695a      	ldr	r2, [r3, #20]
 8002c16:	88fb      	ldrh	r3, [r7, #6]
 8002c18:	4013      	ands	r3, r2
 8002c1a:	2b00      	cmp	r3, #0
 8002c1c:	d006      	beq.n	8002c2c <HAL_GPIO_EXTI_IRQHandler+0x24>
  {
    __HAL_GPIO_EXTI_CLEAR_IT(GPIO_Pin);
 8002c1e:	4a05      	ldr	r2, [pc, #20]	@ (8002c34 <HAL_GPIO_EXTI_IRQHandler+0x2c>)
 8002c20:	88fb      	ldrh	r3, [r7, #6]
 8002c22:	6153      	str	r3, [r2, #20]
    HAL_GPIO_EXTI_Callback(GPIO_Pin);
 8002c24:	88fb      	ldrh	r3, [r7, #6]
 8002c26:	4618      	mov	r0, r3
 8002c28:	f7fe fa02 	bl	8001030 <HAL_GPIO_EXTI_Callback>
  }
}
 8002c2c:	bf00      	nop
 8002c2e:	3708      	adds	r7, #8
 8002c30:	46bd      	mov	sp, r7
 8002c32:	bd80      	pop	{r7, pc}
 8002c34:	40010400 	.word	0x40010400

08002c38 <HAL_RCC_OscConfig>:
  *         supported by this macro. User should request a transition to HSE Off
  *         first and then HSE On or HSE Bypass.
  * @retval HAL status
  */
HAL_StatusTypeDef HAL_RCC_OscConfig(RCC_OscInitTypeDef  *RCC_OscInitStruct)
{
 8002c38:	b580      	push	{r7, lr}
 8002c3a:	f5ad 7d00 	sub.w	sp, sp, #512	@ 0x200
 8002c3e:	af00      	add	r7, sp, #0
 8002c40:	f507 7300 	add.w	r3, r7, #512	@ 0x200
 8002c44:	f5a3 73fe 	sub.w	r3, r3, #508	@ 0x1fc
 8002c48:	6018      	str	r0, [r3, #0]
#if defined(RCC_CFGR_PLLSRC_HSI_PREDIV)
  uint32_t pll_config2;
#endif /* RCC_CFGR_PLLSRC_HSI_PREDIV */

  /* Check Null pointer */
  if(RCC_OscInitStruct == NULL)
 8002c4a:	f507 7300 	add.w	r3, r7, #512	@ 0x200
 8002c4e:	f5a3 73fe 	sub.w	r3, r3, #508	@ 0x1fc
 8002c52:	681b      	ldr	r3, [r3, #0]
 8002c54:	2b00      	cmp	r3, #0
 8002c56:	d102      	bne.n	8002c5e <HAL_RCC_OscConfig+0x26>
  {
    return HAL_ERROR;
 8002c58:	2301      	movs	r3, #1
 8002c5a:	f000 bff4 	b.w	8003c46 <HAL_RCC_OscConfig+0x100e>

  /* Check the parameters */
  assert_param(IS_RCC_OSCILLATORTYPE(RCC_OscInitStruct->OscillatorType));

  /*------------------------------- HSE Configuration ------------------------*/ 
  if(((RCC_OscInitStruct->OscillatorType) & RCC_OSCILLATORTYPE_HSE) == RCC_OSCILLATORTYPE_HSE)
 8002c5e:	f507 7300 	add.w	r3, r7, #512	@ 0x200
 8002c62:	f5a3 73fe 	sub.w	r3, r3, #508	@ 0x1fc
 8002c66:	681b      	ldr	r3, [r3, #0]
 8002c68:	681b      	ldr	r3, [r3, #0]
 8002c6a:	f003 0301 	and.w	r3, r3, #1
 8002c6e:	2b00      	cmp	r3, #0
 8002c70:	f000 816d 	beq.w	8002f4e <HAL_RCC_OscConfig+0x316>
  {
    /* Check the parameters */
    assert_param(IS_RCC_HSE(RCC_OscInitStruct->HSEState));

    /* When the HSE is used as system clock or clock source for PLL in these cases it is not allowed to be disabled */
    if((__HAL_RCC_GET_SYSCLK_SOURCE() == RCC_SYSCLKSOURCE_STATUS_HSE) 
 8002c74:	4bb4      	ldr	r3, [pc, #720]	@ (8002f48 <HAL_RCC_OscConfig+0x310>)
 8002c76:	685b      	ldr	r3, [r3, #4]
 8002c78:	f003 030c 	and.w	r3, r3, #12
 8002c7c:	2b04      	cmp	r3, #4
 8002c7e:	d00c      	beq.n	8002c9a <HAL_RCC_OscConfig+0x62>
       || ((__HAL_RCC_GET_SYSCLK_SOURCE() == RCC_SYSCLKSOURCE_STATUS_PLLCLK) && (__HAL_RCC_GET_PLL_OSCSOURCE() == RCC_PLLSOURCE_HSE)))
 8002c80:	4bb1      	ldr	r3, [pc, #708]	@ (8002f48 <HAL_RCC_OscConfig+0x310>)
 8002c82:	685b      	ldr	r3, [r3, #4]
 8002c84:	f003 030c 	and.w	r3, r3, #12
 8002c88:	2b08      	cmp	r3, #8
 8002c8a:	d157      	bne.n	8002d3c <HAL_RCC_OscConfig+0x104>
 8002c8c:	4bae      	ldr	r3, [pc, #696]	@ (8002f48 <HAL_RCC_OscConfig+0x310>)
 8002c8e:	685b      	ldr	r3, [r3, #4]
 8002c90:	f403 3380 	and.w	r3, r3, #65536	@ 0x10000
 8002c94:	f5b3 3f80 	cmp.w	r3, #65536	@ 0x10000
 8002c98:	d150      	bne.n	8002d3c <HAL_RCC_OscConfig+0x104>
 8002c9a:	f44f 3300 	mov.w	r3, #131072	@ 0x20000
 8002c9e:	f8c7 31f0 	str.w	r3, [r7, #496]	@ 0x1f0
  uint32_t result;

#if ((defined (__ARM_ARCH_7M__      ) && (__ARM_ARCH_7M__      == 1)) || \
     (defined (__ARM_ARCH_7EM__     ) && (__ARM_ARCH_7EM__     == 1)) || \
     (defined (__ARM_ARCH_8M_MAIN__ ) && (__ARM_ARCH_8M_MAIN__ == 1))    )
   __ASM volatile ("rbit %0, %1" : "=r" (result) : "r" (value) );
 8002ca2:	f8d7 31f0 	ldr.w	r3, [r7, #496]	@ 0x1f0
 8002ca6:	fa93 f3a3 	rbit	r3, r3
 8002caa:	f8c7 31ec 	str.w	r3, [r7, #492]	@ 0x1ec
    result |= value & 1U;
    s--;
  }
  result <<= s;                        /* shift when v's highest bits are zero */
#endif
  return result;
 8002cae:	f8d7 31ec 	ldr.w	r3, [r7, #492]	@ 0x1ec
    {
      if((__HAL_RCC_GET_FLAG(RCC_FLAG_HSERDY) != RESET) && (RCC_OscInitStruct->HSEState == RCC_HSE_OFF))
 8002cb2:	fab3 f383 	clz	r3, r3
 8002cb6:	b2db      	uxtb	r3, r3
 8002cb8:	2b3f      	cmp	r3, #63	@ 0x3f
 8002cba:	d802      	bhi.n	8002cc2 <HAL_RCC_OscConfig+0x8a>
 8002cbc:	4ba2      	ldr	r3, [pc, #648]	@ (8002f48 <HAL_RCC_OscConfig+0x310>)
 8002cbe:	681b      	ldr	r3, [r3, #0]
 8002cc0:	e015      	b.n	8002cee <HAL_RCC_OscConfig+0xb6>
 8002cc2:	f44f 3300 	mov.w	r3, #131072	@ 0x20000
 8002cc6:	f8c7 31e8 	str.w	r3, [r7, #488]	@ 0x1e8
   __ASM volatile ("rbit %0, %1" : "=r" (result) : "r" (value) );
 8002cca:	f8d7 31e8 	ldr.w	r3, [r7, #488]	@ 0x1e8
 8002cce:	fa93 f3a3 	rbit	r3, r3
 8002cd2:	f8c7 31e4 	str.w	r3, [r7, #484]	@ 0x1e4
 8002cd6:	f44f 3300 	mov.w	r3, #131072	@ 0x20000
 8002cda:	f8c7 31e0 	str.w	r3, [r7, #480]	@ 0x1e0
 8002cde:	f8d7 31e0 	ldr.w	r3, [r7, #480]	@ 0x1e0
 8002ce2:	fa93 f3a3 	rbit	r3, r3
 8002ce6:	f8c7 31dc 	str.w	r3, [r7, #476]	@ 0x1dc
 8002cea:	4b97      	ldr	r3, [pc, #604]	@ (8002f48 <HAL_RCC_OscConfig+0x310>)
 8002cec:	6a5b      	ldr	r3, [r3, #36]	@ 0x24
 8002cee:	f44f 3200 	mov.w	r2, #131072	@ 0x20000
 8002cf2:	f8c7 21d8 	str.w	r2, [r7, #472]	@ 0x1d8
 8002cf6:	f8d7 21d8 	ldr.w	r2, [r7, #472]	@ 0x1d8
 8002cfa:	fa92 f2a2 	rbit	r2, r2
 8002cfe:	f8c7 21d4 	str.w	r2, [r7, #468]	@ 0x1d4
  return result;
 8002d02:	f8d7 21d4 	ldr.w	r2, [r7, #468]	@ 0x1d4
 8002d06:	fab2 f282 	clz	r2, r2
 8002d0a:	b2d2      	uxtb	r2, r2
 8002d0c:	f042 0220 	orr.w	r2, r2, #32
 8002d10:	b2d2      	uxtb	r2, r2
 8002d12:	f002 021f 	and.w	r2, r2, #31
 8002d16:	2101      	movs	r1, #1
 8002d18:	fa01 f202 	lsl.w	r2, r1, r2
 8002d1c:	4013      	ands	r3, r2
 8002d1e:	2b00      	cmp	r3, #0
 8002d20:	f000 8114 	beq.w	8002f4c <HAL_RCC_OscConfig+0x314>
 8002d24:	f507 7300 	add.w	r3, r7, #512	@ 0x200
 8002d28:	f5a3 73fe 	sub.w	r3, r3, #508	@ 0x1fc
 8002d2c:	681b      	ldr	r3, [r3, #0]
 8002d2e:	685b      	ldr	r3, [r3, #4]
 8002d30:	2b00      	cmp	r3, #0
 8002d32:	f040 810b 	bne.w	8002f4c <HAL_RCC_OscConfig+0x314>
      {
        return HAL_ERROR;
 8002d36:	2301      	movs	r3, #1
 8002d38:	f000 bf85 	b.w	8003c46 <HAL_RCC_OscConfig+0x100e>
      }
    }
    else
    {
      /* Set the new HSE configuration ---------------------------------------*/
      __HAL_RCC_HSE_CONFIG(RCC_OscInitStruct->HSEState);
 8002d3c:	f507 7300 	add.w	r3, r7, #512	@ 0x200
 8002d40:	f5a3 73fe 	sub.w	r3, r3, #508	@ 0x1fc
 8002d44:	681b      	ldr	r3, [r3, #0]
 8002d46:	685b      	ldr	r3, [r3, #4]
 8002d48:	f5b3 3f80 	cmp.w	r3, #65536	@ 0x10000
 8002d4c:	d106      	bne.n	8002d5c <HAL_RCC_OscConfig+0x124>
 8002d4e:	4b7e      	ldr	r3, [pc, #504]	@ (8002f48 <HAL_RCC_OscConfig+0x310>)
 8002d50:	681b      	ldr	r3, [r3, #0]
 8002d52:	4a7d      	ldr	r2, [pc, #500]	@ (8002f48 <HAL_RCC_OscConfig+0x310>)
 8002d54:	f443 3380 	orr.w	r3, r3, #65536	@ 0x10000
 8002d58:	6013      	str	r3, [r2, #0]
 8002d5a:	e036      	b.n	8002dca <HAL_RCC_OscConfig+0x192>
 8002d5c:	f507 7300 	add.w	r3, r7, #512	@ 0x200
 8002d60:	f5a3 73fe 	sub.w	r3, r3, #508	@ 0x1fc
 8002d64:	681b      	ldr	r3, [r3, #0]
 8002d66:	685b      	ldr	r3, [r3, #4]
 8002d68:	2b00      	cmp	r3, #0
 8002d6a:	d10c      	bne.n	8002d86 <HAL_RCC_OscConfig+0x14e>
 8002d6c:	4b76      	ldr	r3, [pc, #472]	@ (8002f48 <HAL_RCC_OscConfig+0x310>)
 8002d6e:	681b      	ldr	r3, [r3, #0]
 8002d70:	4a75      	ldr	r2, [pc, #468]	@ (8002f48 <HAL_RCC_OscConfig+0x310>)
 8002d72:	f423 3380 	bic.w	r3, r3, #65536	@ 0x10000
 8002d76:	6013      	str	r3, [r2, #0]
 8002d78:	4b73      	ldr	r3, [pc, #460]	@ (8002f48 <HAL_RCC_OscConfig+0x310>)
 8002d7a:	681b      	ldr	r3, [r3, #0]
 8002d7c:	4a72      	ldr	r2, [pc, #456]	@ (8002f48 <HAL_RCC_OscConfig+0x310>)
 8002d7e:	f423 2380 	bic.w	r3, r3, #262144	@ 0x40000
 8002d82:	6013      	str	r3, [r2, #0]
 8002d84:	e021      	b.n	8002dca <HAL_RCC_OscConfig+0x192>
 8002d86:	f507 7300 	add.w	r3, r7, #512	@ 0x200
 8002d8a:	f5a3 73fe 	sub.w	r3, r3, #508	@ 0x1fc
 8002d8e:	681b      	ldr	r3, [r3, #0]
 8002d90:	685b      	ldr	r3, [r3, #4]
 8002d92:	f5b3 2fa0 	cmp.w	r3, #327680	@ 0x50000
 8002d96:	d10c      	bne.n	8002db2 <HAL_RCC_OscConfig+0x17a>
 8002d98:	4b6b      	ldr	r3, [pc, #428]	@ (8002f48 <HAL_RCC_OscConfig+0x310>)
 8002d9a:	681b      	ldr	r3, [r3, #0]
 8002d9c:	4a6a      	ldr	r2, [pc, #424]	@ (8002f48 <HAL_RCC_OscConfig+0x310>)
 8002d9e:	f443 2380 	orr.w	r3, r3, #262144	@ 0x40000
 8002da2:	6013      	str	r3, [r2, #0]
 8002da4:	4b68      	ldr	r3, [pc, #416]	@ (8002f48 <HAL_RCC_OscConfig+0x310>)
 8002da6:	681b      	ldr	r3, [r3, #0]
 8002da8:	4a67      	ldr	r2, [pc, #412]	@ (8002f48 <HAL_RCC_OscConfig+0x310>)
 8002daa:	f443 3380 	orr.w	r3, r3, #65536	@ 0x10000
 8002dae:	6013      	str	r3, [r2, #0]
 8002db0:	e00b      	b.n	8002dca <HAL_RCC_OscConfig+0x192>
 8002db2:	4b65      	ldr	r3, [pc, #404]	@ (8002f48 <HAL_RCC_OscConfig+0x310>)
 8002db4:	681b      	ldr	r3, [r3, #0]
 8002db6:	4a64      	ldr	r2, [pc, #400]	@ (8002f48 <HAL_RCC_OscConfig+0x310>)
 8002db8:	f423 3380 	bic.w	r3, r3, #65536	@ 0x10000
 8002dbc:	6013      	str	r3, [r2, #0]
 8002dbe:	4b62      	ldr	r3, [pc, #392]	@ (8002f48 <HAL_RCC_OscConfig+0x310>)
 8002dc0:	681b      	ldr	r3, [r3, #0]
 8002dc2:	4a61      	ldr	r2, [pc, #388]	@ (8002f48 <HAL_RCC_OscConfig+0x310>)
 8002dc4:	f423 2380 	bic.w	r3, r3, #262144	@ 0x40000
 8002dc8:	6013      	str	r3, [r2, #0]
      
#if defined(RCC_CFGR_PLLSRC_HSI_DIV2)
      /* Configure the HSE predivision factor --------------------------------*/
      __HAL_RCC_HSE_PREDIV_CONFIG(RCC_OscInitStruct->HSEPredivValue);
 8002dca:	4b5f      	ldr	r3, [pc, #380]	@ (8002f48 <HAL_RCC_OscConfig+0x310>)
 8002dcc:	6adb      	ldr	r3, [r3, #44]	@ 0x2c
 8002dce:	f023 020f 	bic.w	r2, r3, #15
 8002dd2:	f507 7300 	add.w	r3, r7, #512	@ 0x200
 8002dd6:	f5a3 73fe 	sub.w	r3, r3, #508	@ 0x1fc
 8002dda:	681b      	ldr	r3, [r3, #0]
 8002ddc:	689b      	ldr	r3, [r3, #8]
 8002dde:	495a      	ldr	r1, [pc, #360]	@ (8002f48 <HAL_RCC_OscConfig+0x310>)
 8002de0:	4313      	orrs	r3, r2
 8002de2:	62cb      	str	r3, [r1, #44]	@ 0x2c
#endif /* RCC_CFGR_PLLSRC_HSI_DIV2 */

       /* Check the HSE State */
      if(RCC_OscInitStruct->HSEState != RCC_HSE_OFF)
 8002de4:	f507 7300 	add.w	r3, r7, #512	@ 0x200
 8002de8:	f5a3 73fe 	sub.w	r3, r3, #508	@ 0x1fc
 8002dec:	681b      	ldr	r3, [r3, #0]
 8002dee:	685b      	ldr	r3, [r3, #4]
 8002df0:	2b00      	cmp	r3, #0
 8002df2:	d054      	beq.n	8002e9e <HAL_RCC_OscConfig+0x266>
      {
        /* Get Start Tick */
        tickstart = HAL_GetTick();
 8002df4:	f7fe fbf6 	bl	80015e4 <HAL_GetTick>
 8002df8:	f8c7 01f8 	str.w	r0, [r7, #504]	@ 0x1f8
        
        /* Wait till HSE is ready */
        while(__HAL_RCC_GET_FLAG(RCC_FLAG_HSERDY) == RESET)
 8002dfc:	e00a      	b.n	8002e14 <HAL_RCC_OscConfig+0x1dc>
        {
          if((HAL_GetTick() - tickstart ) > HSE_TIMEOUT_VALUE)
 8002dfe:	f7fe fbf1 	bl	80015e4 <HAL_GetTick>
 8002e02:	4602      	mov	r2, r0
 8002e04:	f8d7 31f8 	ldr.w	r3, [r7, #504]	@ 0x1f8
 8002e08:	1ad3      	subs	r3, r2, r3
 8002e0a:	2b64      	cmp	r3, #100	@ 0x64
 8002e0c:	d902      	bls.n	8002e14 <HAL_RCC_OscConfig+0x1dc>
          {
            return HAL_TIMEOUT;
 8002e0e:	2303      	movs	r3, #3
 8002e10:	f000 bf19 	b.w	8003c46 <HAL_RCC_OscConfig+0x100e>
 8002e14:	f44f 3300 	mov.w	r3, #131072	@ 0x20000
 8002e18:	f8c7 31d0 	str.w	r3, [r7, #464]	@ 0x1d0
   __ASM volatile ("rbit %0, %1" : "=r" (result) : "r" (value) );
 8002e1c:	f8d7 31d0 	ldr.w	r3, [r7, #464]	@ 0x1d0
 8002e20:	fa93 f3a3 	rbit	r3, r3
 8002e24:	f8c7 31cc 	str.w	r3, [r7, #460]	@ 0x1cc
  return result;
 8002e28:	f8d7 31cc 	ldr.w	r3, [r7, #460]	@ 0x1cc
        while(__HAL_RCC_GET_FLAG(RCC_FLAG_HSERDY) == RESET)
 8002e2c:	fab3 f383 	clz	r3, r3
 8002e30:	b2db      	uxtb	r3, r3
 8002e32:	2b3f      	cmp	r3, #63	@ 0x3f
 8002e34:	d802      	bhi.n	8002e3c <HAL_RCC_OscConfig+0x204>
 8002e36:	4b44      	ldr	r3, [pc, #272]	@ (8002f48 <HAL_RCC_OscConfig+0x310>)
 8002e38:	681b      	ldr	r3, [r3, #0]
 8002e3a:	e015      	b.n	8002e68 <HAL_RCC_OscConfig+0x230>
 8002e3c:	f44f 3300 	mov.w	r3, #131072	@ 0x20000
 8002e40:	f8c7 31c8 	str.w	r3, [r7, #456]	@ 0x1c8
   __ASM volatile ("rbit %0, %1" : "=r" (result) : "r" (value) );
 8002e44:	f8d7 31c8 	ldr.w	r3, [r7, #456]	@ 0x1c8
 8002e48:	fa93 f3a3 	rbit	r3, r3
 8002e4c:	f8c7 31c4 	str.w	r3, [r7, #452]	@ 0x1c4
 8002e50:	f44f 3300 	mov.w	r3, #131072	@ 0x20000
 8002e54:	f8c7 31c0 	str.w	r3, [r7, #448]	@ 0x1c0
 8002e58:	f8d7 31c0 	ldr.w	r3, [r7, #448]	@ 0x1c0
 8002e5c:	fa93 f3a3 	rbit	r3, r3
 8002e60:	f8c7 31bc 	str.w	r3, [r7, #444]	@ 0x1bc
 8002e64:	4b38      	ldr	r3, [pc, #224]	@ (8002f48 <HAL_RCC_OscConfig+0x310>)
 8002e66:	6a5b      	ldr	r3, [r3, #36]	@ 0x24
 8002e68:	f44f 3200 	mov.w	r2, #131072	@ 0x20000
 8002e6c:	f8c7 21b8 	str.w	r2, [r7, #440]	@ 0x1b8
 8002e70:	f8d7 21b8 	ldr.w	r2, [r7, #440]	@ 0x1b8
 8002e74:	fa92 f2a2 	rbit	r2, r2
 8002e78:	f8c7 21b4 	str.w	r2, [r7, #436]	@ 0x1b4
  return result;
 8002e7c:	f8d7 21b4 	ldr.w	r2, [r7, #436]	@ 0x1b4
 8002e80:	fab2 f282 	clz	r2, r2
 8002e84:	b2d2      	uxtb	r2, r2
 8002e86:	f042 0220 	orr.w	r2, r2, #32
 8002e8a:	b2d2      	uxtb	r2, r2
 8002e8c:	f002 021f 	and.w	r2, r2, #31
 8002e90:	2101      	movs	r1, #1
 8002e92:	fa01 f202 	lsl.w	r2, r1, r2
 8002e96:	4013      	ands	r3, r2
 8002e98:	2b00      	cmp	r3, #0
 8002e9a:	d0b0      	beq.n	8002dfe <HAL_RCC_OscConfig+0x1c6>
 8002e9c:	e057      	b.n	8002f4e <HAL_RCC_OscConfig+0x316>
        }
      }
      else
      {
        /* Get Start Tick */
        tickstart = HAL_GetTick();
 8002e9e:	f7fe fba1 	bl	80015e4 <HAL_GetTick>
 8002ea2:	f8c7 01f8 	str.w	r0, [r7, #504]	@ 0x1f8
        
        /* Wait till HSE is disabled */
        while(__HAL_RCC_GET_FLAG(RCC_FLAG_HSERDY) != RESET)
 8002ea6:	e00a      	b.n	8002ebe <HAL_RCC_OscConfig+0x286>
        {
           if((HAL_GetTick() - tickstart ) > HSE_TIMEOUT_VALUE)
 8002ea8:	f7fe fb9c 	bl	80015e4 <HAL_GetTick>
 8002eac:	4602      	mov	r2, r0
 8002eae:	f8d7 31f8 	ldr.w	r3, [r7, #504]	@ 0x1f8
 8002eb2:	1ad3      	subs	r3, r2, r3
 8002eb4:	2b64      	cmp	r3, #100	@ 0x64
 8002eb6:	d902      	bls.n	8002ebe <HAL_RCC_OscConfig+0x286>
          {
            return HAL_TIMEOUT;
 8002eb8:	2303      	movs	r3, #3
 8002eba:	f000 bec4 	b.w	8003c46 <HAL_RCC_OscConfig+0x100e>
 8002ebe:	f44f 3300 	mov.w	r3, #131072	@ 0x20000
 8002ec2:	f8c7 31b0 	str.w	r3, [r7, #432]	@ 0x1b0
   __ASM volatile ("rbit %0, %1" : "=r" (result) : "r" (value) );
 8002ec6:	f8d7 31b0 	ldr.w	r3, [r7, #432]	@ 0x1b0
 8002eca:	fa93 f3a3 	rbit	r3, r3
 8002ece:	f8c7 31ac 	str.w	r3, [r7, #428]	@ 0x1ac
  return result;
 8002ed2:	f8d7 31ac 	ldr.w	r3, [r7, #428]	@ 0x1ac
        while(__HAL_RCC_GET_FLAG(RCC_FLAG_HSERDY) != RESET)
 8002ed6:	fab3 f383 	clz	r3, r3
 8002eda:	b2db      	uxtb	r3, r3
 8002edc:	2b3f      	cmp	r3, #63	@ 0x3f
 8002ede:	d802      	bhi.n	8002ee6 <HAL_RCC_OscConfig+0x2ae>
 8002ee0:	4b19      	ldr	r3, [pc, #100]	@ (8002f48 <HAL_RCC_OscConfig+0x310>)
 8002ee2:	681b      	ldr	r3, [r3, #0]
 8002ee4:	e015      	b.n	8002f12 <HAL_RCC_OscConfig+0x2da>
 8002ee6:	f44f 3300 	mov.w	r3, #131072	@ 0x20000
 8002eea:	f8c7 31a8 	str.w	r3, [r7, #424]	@ 0x1a8
   __ASM volatile ("rbit %0, %1" : "=r" (result) : "r" (value) );
 8002eee:	f8d7 31a8 	ldr.w	r3, [r7, #424]	@ 0x1a8
 8002ef2:	fa93 f3a3 	rbit	r3, r3
 8002ef6:	f8c7 31a4 	str.w	r3, [r7, #420]	@ 0x1a4
 8002efa:	f44f 3300 	mov.w	r3, #131072	@ 0x20000
 8002efe:	f8c7 31a0 	str.w	r3, [r7, #416]	@ 0x1a0
 8002f02:	f8d7 31a0 	ldr.w	r3, [r7, #416]	@ 0x1a0
 8002f06:	fa93 f3a3 	rbit	r3, r3
 8002f0a:	f8c7 319c 	str.w	r3, [r7, #412]	@ 0x19c
 8002f0e:	4b0e      	ldr	r3, [pc, #56]	@ (8002f48 <HAL_RCC_OscConfig+0x310>)
 8002f10:	6a5b      	ldr	r3, [r3, #36]	@ 0x24
 8002f12:	f44f 3200 	mov.w	r2, #131072	@ 0x20000
 8002f16:	f8c7 2198 	str.w	r2, [r7, #408]	@ 0x198
 8002f1a:	f8d7 2198 	ldr.w	r2, [r7, #408]	@ 0x198
 8002f1e:	fa92 f2a2 	rbit	r2, r2
 8002f22:	f8c7 2194 	str.w	r2, [r7, #404]	@ 0x194
  return result;
 8002f26:	f8d7 2194 	ldr.w	r2, [r7, #404]	@ 0x194
 8002f2a:	fab2 f282 	clz	r2, r2
 8002f2e:	b2d2      	uxtb	r2, r2
 8002f30:	f042 0220 	orr.w	r2, r2, #32
 8002f34:	b2d2      	uxtb	r2, r2
 8002f36:	f002 021f 	and.w	r2, r2, #31
 8002f3a:	2101      	movs	r1, #1
 8002f3c:	fa01 f202 	lsl.w	r2, r1, r2
 8002f40:	4013      	ands	r3, r2
 8002f42:	2b00      	cmp	r3, #0
 8002f44:	d1b0      	bne.n	8002ea8 <HAL_RCC_OscConfig+0x270>
 8002f46:	e002      	b.n	8002f4e <HAL_RCC_OscConfig+0x316>
 8002f48:	40021000 	.word	0x40021000
      if((__HAL_RCC_GET_FLAG(RCC_FLAG_HSERDY) != RESET) && (RCC_OscInitStruct->HSEState == RCC_HSE_OFF))
 8002f4c:	bf00      	nop
        }
      }
    }
  }
  /*----------------------------- HSI Configuration --------------------------*/ 
  if(((RCC_OscInitStruct->OscillatorType) & RCC_OSCILLATORTYPE_HSI) == RCC_OSCILLATORTYPE_HSI)
 8002f4e:	f507 7300 	add.w	r3, r7, #512	@ 0x200
 8002f52:	f5a3 73fe 	sub.w	r3, r3, #508	@ 0x1fc
 8002f56:	681b      	ldr	r3, [r3, #0]
 8002f58:	681b      	ldr	r3, [r3, #0]
 8002f5a:	f003 0302 	and.w	r3, r3, #2
 8002f5e:	2b00      	cmp	r3, #0
 8002f60:	f000 816c 	beq.w	800323c <HAL_RCC_OscConfig+0x604>
    /* Check the parameters */
    assert_param(IS_RCC_HSI(RCC_OscInitStruct->HSIState));
    assert_param(IS_RCC_CALIBRATION_VALUE(RCC_OscInitStruct->HSICalibrationValue));
    
    /* Check if HSI is used as system clock or as PLL source when PLL is selected as system clock */ 
    if((__HAL_RCC_GET_SYSCLK_SOURCE() == RCC_SYSCLKSOURCE_STATUS_HSI) 
 8002f64:	4bcc      	ldr	r3, [pc, #816]	@ (8003298 <HAL_RCC_OscConfig+0x660>)
 8002f66:	685b      	ldr	r3, [r3, #4]
 8002f68:	f003 030c 	and.w	r3, r3, #12
 8002f6c:	2b00      	cmp	r3, #0
 8002f6e:	d00b      	beq.n	8002f88 <HAL_RCC_OscConfig+0x350>
       || ((__HAL_RCC_GET_SYSCLK_SOURCE() == RCC_SYSCLKSOURCE_STATUS_PLLCLK) && (__HAL_RCC_GET_PLL_OSCSOURCE() == RCC_PLLSOURCE_HSI)))
 8002f70:	4bc9      	ldr	r3, [pc, #804]	@ (8003298 <HAL_RCC_OscConfig+0x660>)
 8002f72:	685b      	ldr	r3, [r3, #4]
 8002f74:	f003 030c 	and.w	r3, r3, #12
 8002f78:	2b08      	cmp	r3, #8
 8002f7a:	d16d      	bne.n	8003058 <HAL_RCC_OscConfig+0x420>
 8002f7c:	4bc6      	ldr	r3, [pc, #792]	@ (8003298 <HAL_RCC_OscConfig+0x660>)
 8002f7e:	685b      	ldr	r3, [r3, #4]
 8002f80:	f403 3380 	and.w	r3, r3, #65536	@ 0x10000
 8002f84:	2b00      	cmp	r3, #0
 8002f86:	d167      	bne.n	8003058 <HAL_RCC_OscConfig+0x420>
 8002f88:	2302      	movs	r3, #2
 8002f8a:	f8c7 3190 	str.w	r3, [r7, #400]	@ 0x190
   __ASM volatile ("rbit %0, %1" : "=r" (result) : "r" (value) );
 8002f8e:	f8d7 3190 	ldr.w	r3, [r7, #400]	@ 0x190
 8002f92:	fa93 f3a3 	rbit	r3, r3
 8002f96:	f8c7 318c 	str.w	r3, [r7, #396]	@ 0x18c
  return result;
 8002f9a:	f8d7 318c 	ldr.w	r3, [r7, #396]	@ 0x18c
    {
      /* When HSI is used as system clock it will not disabled */
      if((__HAL_RCC_GET_FLAG(RCC_FLAG_HSIRDY) != RESET) && (RCC_OscInitStruct->HSIState != RCC_HSI_ON))
 8002f9e:	fab3 f383 	clz	r3, r3
 8002fa2:	b2db      	uxtb	r3, r3
 8002fa4:	2b3f      	cmp	r3, #63	@ 0x3f
 8002fa6:	d802      	bhi.n	8002fae <HAL_RCC_OscConfig+0x376>
 8002fa8:	4bbb      	ldr	r3, [pc, #748]	@ (8003298 <HAL_RCC_OscConfig+0x660>)
 8002faa:	681b      	ldr	r3, [r3, #0]
 8002fac:	e013      	b.n	8002fd6 <HAL_RCC_OscConfig+0x39e>
 8002fae:	2302      	movs	r3, #2
 8002fb0:	f8c7 3188 	str.w	r3, [r7, #392]	@ 0x188
   __ASM volatile ("rbit %0, %1" : "=r" (result) : "r" (value) );
 8002fb4:	f8d7 3188 	ldr.w	r3, [r7, #392]	@ 0x188
 8002fb8:	fa93 f3a3 	rbit	r3, r3
 8002fbc:	f8c7 3184 	str.w	r3, [r7, #388]	@ 0x184
 8002fc0:	2302      	movs	r3, #2
 8002fc2:	f8c7 3180 	str.w	r3, [r7, #384]	@ 0x180
 8002fc6:	f8d7 3180 	ldr.w	r3, [r7, #384]	@ 0x180
 8002fca:	fa93 f3a3 	rbit	r3, r3
 8002fce:	f8c7 317c 	str.w	r3, [r7, #380]	@ 0x17c
 8002fd2:	4bb1      	ldr	r3, [pc, #708]	@ (8003298 <HAL_RCC_OscConfig+0x660>)
 8002fd4:	6a5b      	ldr	r3, [r3, #36]	@ 0x24
 8002fd6:	2202      	movs	r2, #2
 8002fd8:	f8c7 2178 	str.w	r2, [r7, #376]	@ 0x178
 8002fdc:	f8d7 2178 	ldr.w	r2, [r7, #376]	@ 0x178
 8002fe0:	fa92 f2a2 	rbit	r2, r2
 8002fe4:	f8c7 2174 	str.w	r2, [r7, #372]	@ 0x174
  return result;
 8002fe8:	f8d7 2174 	ldr.w	r2, [r7, #372]	@ 0x174
 8002fec:	fab2 f282 	clz	r2, r2
 8002ff0:	b2d2      	uxtb	r2, r2
 8002ff2:	f042 0220 	orr.w	r2, r2, #32
 8002ff6:	b2d2      	uxtb	r2, r2
 8002ff8:	f002 021f 	and.w	r2, r2, #31
 8002ffc:	2101      	movs	r1, #1
 8002ffe:	fa01 f202 	lsl.w	r2, r1, r2
 8003002:	4013      	ands	r3, r2
 8003004:	2b00      	cmp	r3, #0
 8003006:	d00a      	beq.n	800301e <HAL_RCC_OscConfig+0x3e6>
 8003008:	f507 7300 	add.w	r3, r7, #512	@ 0x200
 800300c:	f5a3 73fe 	sub.w	r3, r3, #508	@ 0x1fc
 8003010:	681b      	ldr	r3, [r3, #0]
 8003012:	691b      	ldr	r3, [r3, #16]
 8003014:	2b01      	cmp	r3, #1
 8003016:	d002      	beq.n	800301e <HAL_RCC_OscConfig+0x3e6>
      {
        return HAL_ERROR;
 8003018:	2301      	movs	r3, #1
 800301a:	f000 be14 	b.w	8003c46 <HAL_RCC_OscConfig+0x100e>
      }
      /* Otherwise, just the calibration is allowed */
      else
      {
        /* Adjusts the Internal High Speed oscillator (HSI) calibration value.*/
        __HAL_RCC_HSI_CALIBRATIONVALUE_ADJUST(RCC_OscInitStruct->HSICalibrationValue);
 800301e:	4b9e      	ldr	r3, [pc, #632]	@ (8003298 <HAL_RCC_OscConfig+0x660>)
 8003020:	681b      	ldr	r3, [r3, #0]
 8003022:	f023 02f8 	bic.w	r2, r3, #248	@ 0xf8
 8003026:	f507 7300 	add.w	r3, r7, #512	@ 0x200
 800302a:	f5a3 73fe 	sub.w	r3, r3, #508	@ 0x1fc
 800302e:	681b      	ldr	r3, [r3, #0]
 8003030:	695b      	ldr	r3, [r3, #20]
 8003032:	21f8      	movs	r1, #248	@ 0xf8
 8003034:	f8c7 1170 	str.w	r1, [r7, #368]	@ 0x170
   __ASM volatile ("rbit %0, %1" : "=r" (result) : "r" (value) );
 8003038:	f8d7 1170 	ldr.w	r1, [r7, #368]	@ 0x170
 800303c:	fa91 f1a1 	rbit	r1, r1
 8003040:	f8c7 116c 	str.w	r1, [r7, #364]	@ 0x16c
  return result;
 8003044:	f8d7 116c 	ldr.w	r1, [r7, #364]	@ 0x16c
 8003048:	fab1 f181 	clz	r1, r1
 800304c:	b2c9      	uxtb	r1, r1
 800304e:	408b      	lsls	r3, r1
 8003050:	4991      	ldr	r1, [pc, #580]	@ (8003298 <HAL_RCC_OscConfig+0x660>)
 8003052:	4313      	orrs	r3, r2
 8003054:	600b      	str	r3, [r1, #0]
      if((__HAL_RCC_GET_FLAG(RCC_FLAG_HSIRDY) != RESET) && (RCC_OscInitStruct->HSIState != RCC_HSI_ON))
 8003056:	e0f1      	b.n	800323c <HAL_RCC_OscConfig+0x604>
      }
    }
    else
    {
      /* Check the HSI State */
      if(RCC_OscInitStruct->HSIState != RCC_HSI_OFF)
 8003058:	f507 7300 	add.w	r3, r7, #512	@ 0x200
 800305c:	f5a3 73fe 	sub.w	r3, r3, #508	@ 0x1fc
 8003060:	681b      	ldr	r3, [r3, #0]
 8003062:	691b      	ldr	r3, [r3, #16]
 8003064:	2b00      	cmp	r3, #0
 8003066:	f000 8083 	beq.w	8003170 <HAL_RCC_OscConfig+0x538>
 800306a:	2301      	movs	r3, #1
 800306c:	f8c7 3168 	str.w	r3, [r7, #360]	@ 0x168
   __ASM volatile ("rbit %0, %1" : "=r" (result) : "r" (value) );
 8003070:	f8d7 3168 	ldr.w	r3, [r7, #360]	@ 0x168
 8003074:	fa93 f3a3 	rbit	r3, r3
 8003078:	f8c7 3164 	str.w	r3, [r7, #356]	@ 0x164
  return result;
 800307c:	f8d7 3164 	ldr.w	r3, [r7, #356]	@ 0x164
      {
       /* Enable the Internal High Speed oscillator (HSI). */
        __HAL_RCC_HSI_ENABLE();
 8003080:	fab3 f383 	clz	r3, r3
 8003084:	b2db      	uxtb	r3, r3
 8003086:	f103 5384 	add.w	r3, r3, #276824064	@ 0x10800000
 800308a:	f503 1384 	add.w	r3, r3, #1081344	@ 0x108000
 800308e:	009b      	lsls	r3, r3, #2
 8003090:	461a      	mov	r2, r3
 8003092:	2301      	movs	r3, #1
 8003094:	6013      	str	r3, [r2, #0]
        
        /* Get Start Tick */
        tickstart = HAL_GetTick();
 8003096:	f7fe faa5 	bl	80015e4 <HAL_GetTick>
 800309a:	f8c7 01f8 	str.w	r0, [r7, #504]	@ 0x1f8
        
        /* Wait till HSI is ready */
        while(__HAL_RCC_GET_FLAG(RCC_FLAG_HSIRDY) == RESET)
 800309e:	e00a      	b.n	80030b6 <HAL_RCC_OscConfig+0x47e>
        {
          if((HAL_GetTick() - tickstart ) > HSI_TIMEOUT_VALUE)
 80030a0:	f7fe faa0 	bl	80015e4 <HAL_GetTick>
 80030a4:	4602      	mov	r2, r0
 80030a6:	f8d7 31f8 	ldr.w	r3, [r7, #504]	@ 0x1f8
 80030aa:	1ad3      	subs	r3, r2, r3
 80030ac:	2b02      	cmp	r3, #2
 80030ae:	d902      	bls.n	80030b6 <HAL_RCC_OscConfig+0x47e>
          {
            return HAL_TIMEOUT;
 80030b0:	2303      	movs	r3, #3
 80030b2:	f000 bdc8 	b.w	8003c46 <HAL_RCC_OscConfig+0x100e>
 80030b6:	2302      	movs	r3, #2
 80030b8:	f8c7 3160 	str.w	r3, [r7, #352]	@ 0x160
   __ASM volatile ("rbit %0, %1" : "=r" (result) : "r" (value) );
 80030bc:	f8d7 3160 	ldr.w	r3, [r7, #352]	@ 0x160
 80030c0:	fa93 f3a3 	rbit	r3, r3
 80030c4:	f8c7 315c 	str.w	r3, [r7, #348]	@ 0x15c
  return result;
 80030c8:	f8d7 315c 	ldr.w	r3, [r7, #348]	@ 0x15c
        while(__HAL_RCC_GET_FLAG(RCC_FLAG_HSIRDY) == RESET)
 80030cc:	fab3 f383 	clz	r3, r3
 80030d0:	b2db      	uxtb	r3, r3
 80030d2:	2b3f      	cmp	r3, #63	@ 0x3f
 80030d4:	d802      	bhi.n	80030dc <HAL_RCC_OscConfig+0x4a4>
 80030d6:	4b70      	ldr	r3, [pc, #448]	@ (8003298 <HAL_RCC_OscConfig+0x660>)
 80030d8:	681b      	ldr	r3, [r3, #0]
 80030da:	e013      	b.n	8003104 <HAL_RCC_OscConfig+0x4cc>
 80030dc:	2302      	movs	r3, #2
 80030de:	f8c7 3158 	str.w	r3, [r7, #344]	@ 0x158
   __ASM volatile ("rbit %0, %1" : "=r" (result) : "r" (value) );
 80030e2:	f8d7 3158 	ldr.w	r3, [r7, #344]	@ 0x158
 80030e6:	fa93 f3a3 	rbit	r3, r3
 80030ea:	f8c7 3154 	str.w	r3, [r7, #340]	@ 0x154
 80030ee:	2302      	movs	r3, #2
 80030f0:	f8c7 3150 	str.w	r3, [r7, #336]	@ 0x150
 80030f4:	f8d7 3150 	ldr.w	r3, [r7, #336]	@ 0x150
 80030f8:	fa93 f3a3 	rbit	r3, r3
 80030fc:	f8c7 314c 	str.w	r3, [r7, #332]	@ 0x14c
 8003100:	4b65      	ldr	r3, [pc, #404]	@ (8003298 <HAL_RCC_OscConfig+0x660>)
 8003102:	6a5b      	ldr	r3, [r3, #36]	@ 0x24
 8003104:	2202      	movs	r2, #2
 8003106:	f8c7 2148 	str.w	r2, [r7, #328]	@ 0x148
 800310a:	f8d7 2148 	ldr.w	r2, [r7, #328]	@ 0x148
 800310e:	fa92 f2a2 	rbit	r2, r2
 8003112:	f8c7 2144 	str.w	r2, [r7, #324]	@ 0x144
  return result;
 8003116:	f8d7 2144 	ldr.w	r2, [r7, #324]	@ 0x144
 800311a:	fab2 f282 	clz	r2, r2
 800311e:	b2d2      	uxtb	r2, r2
 8003120:	f042 0220 	orr.w	r2, r2, #32
 8003124:	b2d2      	uxtb	r2, r2
 8003126:	f002 021f 	and.w	r2, r2, #31
 800312a:	2101      	movs	r1, #1
 800312c:	fa01 f202 	lsl.w	r2, r1, r2
 8003130:	4013      	ands	r3, r2
 8003132:	2b00      	cmp	r3, #0
 8003134:	d0b4      	beq.n	80030a0 <HAL_RCC_OscConfig+0x468>
          }
        }
                
        /* Adjusts the Internal High Speed oscillator (HSI) calibration value.*/
        __HAL_RCC_HSI_CALIBRATIONVALUE_ADJUST(RCC_OscInitStruct->HSICalibrationValue);
 8003136:	4b58      	ldr	r3, [pc, #352]	@ (8003298 <HAL_RCC_OscConfig+0x660>)
 8003138:	681b      	ldr	r3, [r3, #0]
 800313a:	f023 02f8 	bic.w	r2, r3, #248	@ 0xf8
 800313e:	f507 7300 	add.w	r3, r7, #512	@ 0x200
 8003142:	f5a3 73fe 	sub.w	r3, r3, #508	@ 0x1fc
 8003146:	681b      	ldr	r3, [r3, #0]
 8003148:	695b      	ldr	r3, [r3, #20]
 800314a:	21f8      	movs	r1, #248	@ 0xf8
 800314c:	f8c7 1140 	str.w	r1, [r7, #320]	@ 0x140
   __ASM volatile ("rbit %0, %1" : "=r" (result) : "r" (value) );
 8003150:	f8d7 1140 	ldr.w	r1, [r7, #320]	@ 0x140
 8003154:	fa91 f1a1 	rbit	r1, r1
 8003158:	f8c7 113c 	str.w	r1, [r7, #316]	@ 0x13c
  return result;
 800315c:	f8d7 113c 	ldr.w	r1, [r7, #316]	@ 0x13c
 8003160:	fab1 f181 	clz	r1, r1
 8003164:	b2c9      	uxtb	r1, r1
 8003166:	408b      	lsls	r3, r1
 8003168:	494b      	ldr	r1, [pc, #300]	@ (8003298 <HAL_RCC_OscConfig+0x660>)
 800316a:	4313      	orrs	r3, r2
 800316c:	600b      	str	r3, [r1, #0]
 800316e:	e065      	b.n	800323c <HAL_RCC_OscConfig+0x604>
 8003170:	2301      	movs	r3, #1
 8003172:	f8c7 3138 	str.w	r3, [r7, #312]	@ 0x138
   __ASM volatile ("rbit %0, %1" : "=r" (result) : "r" (value) );
 8003176:	f8d7 3138 	ldr.w	r3, [r7, #312]	@ 0x138
 800317a:	fa93 f3a3 	rbit	r3, r3
 800317e:	f8c7 3134 	str.w	r3, [r7, #308]	@ 0x134
  return result;
 8003182:	f8d7 3134 	ldr.w	r3, [r7, #308]	@ 0x134
      }
      else
      {
        /* Disable the Internal High Speed oscillator (HSI). */
        __HAL_RCC_HSI_DISABLE();
 8003186:	fab3 f383 	clz	r3, r3
 800318a:	b2db      	uxtb	r3, r3
 800318c:	f103 5384 	add.w	r3, r3, #276824064	@ 0x10800000
 8003190:	f503 1384 	add.w	r3, r3, #1081344	@ 0x108000
 8003194:	009b      	lsls	r3, r3, #2
 8003196:	461a      	mov	r2, r3
 8003198:	2300      	movs	r3, #0
 800319a:	6013      	str	r3, [r2, #0]
        
        /* Get Start Tick */
        tickstart = HAL_GetTick();
 800319c:	f7fe fa22 	bl	80015e4 <HAL_GetTick>
 80031a0:	f8c7 01f8 	str.w	r0, [r7, #504]	@ 0x1f8
        
        /* Wait till HSI is disabled */
        while(__HAL_RCC_GET_FLAG(RCC_FLAG_HSIRDY) != RESET)
 80031a4:	e00a      	b.n	80031bc <HAL_RCC_OscConfig+0x584>
        {
          if((HAL_GetTick() - tickstart ) > HSI_TIMEOUT_VALUE)
 80031a6:	f7fe fa1d 	bl	80015e4 <HAL_GetTick>
 80031aa:	4602      	mov	r2, r0
 80031ac:	f8d7 31f8 	ldr.w	r3, [r7, #504]	@ 0x1f8
 80031b0:	1ad3      	subs	r3, r2, r3
 80031b2:	2b02      	cmp	r3, #2
 80031b4:	d902      	bls.n	80031bc <HAL_RCC_OscConfig+0x584>
          {
            return HAL_TIMEOUT;
 80031b6:	2303      	movs	r3, #3
 80031b8:	f000 bd45 	b.w	8003c46 <HAL_RCC_OscConfig+0x100e>
 80031bc:	2302      	movs	r3, #2
 80031be:	f8c7 3130 	str.w	r3, [r7, #304]	@ 0x130
   __ASM volatile ("rbit %0, %1" : "=r" (result) : "r" (value) );
 80031c2:	f8d7 3130 	ldr.w	r3, [r7, #304]	@ 0x130
 80031c6:	fa93 f3a3 	rbit	r3, r3
 80031ca:	f8c7 312c 	str.w	r3, [r7, #300]	@ 0x12c
  return result;
 80031ce:	f8d7 312c 	ldr.w	r3, [r7, #300]	@ 0x12c
        while(__HAL_RCC_GET_FLAG(RCC_FLAG_HSIRDY) != RESET)
 80031d2:	fab3 f383 	clz	r3, r3
 80031d6:	b2db      	uxtb	r3, r3
 80031d8:	2b3f      	cmp	r3, #63	@ 0x3f
 80031da:	d802      	bhi.n	80031e2 <HAL_RCC_OscConfig+0x5aa>
 80031dc:	4b2e      	ldr	r3, [pc, #184]	@ (8003298 <HAL_RCC_OscConfig+0x660>)
 80031de:	681b      	ldr	r3, [r3, #0]
 80031e0:	e013      	b.n	800320a <HAL_RCC_OscConfig+0x5d2>
 80031e2:	2302      	movs	r3, #2
 80031e4:	f8c7 3128 	str.w	r3, [r7, #296]	@ 0x128
   __ASM volatile ("rbit %0, %1" : "=r" (result) : "r" (value) );
 80031e8:	f8d7 3128 	ldr.w	r3, [r7, #296]	@ 0x128
 80031ec:	fa93 f3a3 	rbit	r3, r3
 80031f0:	f8c7 3124 	str.w	r3, [r7, #292]	@ 0x124
 80031f4:	2302      	movs	r3, #2
 80031f6:	f8c7 3120 	str.w	r3, [r7, #288]	@ 0x120
 80031fa:	f8d7 3120 	ldr.w	r3, [r7, #288]	@ 0x120
 80031fe:	fa93 f3a3 	rbit	r3, r3
 8003202:	f8c7 311c 	str.w	r3, [r7, #284]	@ 0x11c
 8003206:	4b24      	ldr	r3, [pc, #144]	@ (8003298 <HAL_RCC_OscConfig+0x660>)
 8003208:	6a5b      	ldr	r3, [r3, #36]	@ 0x24
 800320a:	2202      	movs	r2, #2
 800320c:	f8c7 2118 	str.w	r2, [r7, #280]	@ 0x118
 8003210:	f8d7 2118 	ldr.w	r2, [r7, #280]	@ 0x118
 8003214:	fa92 f2a2 	rbit	r2, r2
 8003218:	f8c7 2114 	str.w	r2, [r7, #276]	@ 0x114
  return result;
 800321c:	f8d7 2114 	ldr.w	r2, [r7, #276]	@ 0x114
 8003220:	fab2 f282 	clz	r2, r2
 8003224:	b2d2      	uxtb	r2, r2
 8003226:	f042 0220 	orr.w	r2, r2, #32
 800322a:	b2d2      	uxtb	r2, r2
 800322c:	f002 021f 	and.w	r2, r2, #31
 8003230:	2101      	movs	r1, #1
 8003232:	fa01 f202 	lsl.w	r2, r1, r2
 8003236:	4013      	ands	r3, r2
 8003238:	2b00      	cmp	r3, #0
 800323a:	d1b4      	bne.n	80031a6 <HAL_RCC_OscConfig+0x56e>
        }
      }
    }
  }
  /*------------------------------ LSI Configuration -------------------------*/ 
  if(((RCC_OscInitStruct->OscillatorType) & RCC_OSCILLATORTYPE_LSI) == RCC_OSCILLATORTYPE_LSI)
 800323c:	f507 7300 	add.w	r3, r7, #512	@ 0x200
 8003240:	f5a3 73fe 	sub.w	r3, r3, #508	@ 0x1fc
 8003244:	681b      	ldr	r3, [r3, #0]
 8003246:	681b      	ldr	r3, [r3, #0]
 8003248:	f003 0308 	and.w	r3, r3, #8
 800324c:	2b00      	cmp	r3, #0
 800324e:	f000 8115 	beq.w	800347c <HAL_RCC_OscConfig+0x844>
  {
    /* Check the parameters */
    assert_param(IS_RCC_LSI(RCC_OscInitStruct->LSIState));
    
    /* Check the LSI State */
    if(RCC_OscInitStruct->LSIState != RCC_LSI_OFF)
 8003252:	f507 7300 	add.w	r3, r7, #512	@ 0x200
 8003256:	f5a3 73fe 	sub.w	r3, r3, #508	@ 0x1fc
 800325a:	681b      	ldr	r3, [r3, #0]
 800325c:	699b      	ldr	r3, [r3, #24]
 800325e:	2b00      	cmp	r3, #0
 8003260:	d07e      	beq.n	8003360 <HAL_RCC_OscConfig+0x728>
 8003262:	2301      	movs	r3, #1
 8003264:	f8c7 3110 	str.w	r3, [r7, #272]	@ 0x110
   __ASM volatile ("rbit %0, %1" : "=r" (result) : "r" (value) );
 8003268:	f8d7 3110 	ldr.w	r3, [r7, #272]	@ 0x110
 800326c:	fa93 f3a3 	rbit	r3, r3
 8003270:	f8c7 310c 	str.w	r3, [r7, #268]	@ 0x10c
  return result;
 8003274:	f8d7 310c 	ldr.w	r3, [r7, #268]	@ 0x10c
    {
      /* Enable the Internal Low Speed oscillator (LSI). */
      __HAL_RCC_LSI_ENABLE();
 8003278:	fab3 f383 	clz	r3, r3
 800327c:	b2db      	uxtb	r3, r3
 800327e:	461a      	mov	r2, r3
 8003280:	4b06      	ldr	r3, [pc, #24]	@ (800329c <HAL_RCC_OscConfig+0x664>)
 8003282:	4413      	add	r3, r2
 8003284:	009b      	lsls	r3, r3, #2
 8003286:	461a      	mov	r2, r3
 8003288:	2301      	movs	r3, #1
 800328a:	6013      	str	r3, [r2, #0]
      
      /* Get Start Tick */
      tickstart = HAL_GetTick();
 800328c:	f7fe f9aa 	bl	80015e4 <HAL_GetTick>
 8003290:	f8c7 01f8 	str.w	r0, [r7, #504]	@ 0x1f8
      
      /* Wait till LSI is ready */  
      while(__HAL_RCC_GET_FLAG(RCC_FLAG_LSIRDY) == RESET)
 8003294:	e00f      	b.n	80032b6 <HAL_RCC_OscConfig+0x67e>
 8003296:	bf00      	nop
 8003298:	40021000 	.word	0x40021000
 800329c:	10908120 	.word	0x10908120
      {
        if((HAL_GetTick() - tickstart ) > LSI_TIMEOUT_VALUE)
 80032a0:	f7fe f9a0 	bl	80015e4 <HAL_GetTick>
 80032a4:	4602      	mov	r2, r0
 80032a6:	f8d7 31f8 	ldr.w	r3, [r7, #504]	@ 0x1f8
 80032aa:	1ad3      	subs	r3, r2, r3
 80032ac:	2b02      	cmp	r3, #2
 80032ae:	d902      	bls.n	80032b6 <HAL_RCC_OscConfig+0x67e>
        {
          return HAL_TIMEOUT;
 80032b0:	2303      	movs	r3, #3
 80032b2:	f000 bcc8 	b.w	8003c46 <HAL_RCC_OscConfig+0x100e>
 80032b6:	2302      	movs	r3, #2
 80032b8:	f8c7 3108 	str.w	r3, [r7, #264]	@ 0x108
   __ASM volatile ("rbit %0, %1" : "=r" (result) : "r" (value) );
 80032bc:	f8d7 3108 	ldr.w	r3, [r7, #264]	@ 0x108
 80032c0:	fa93 f3a3 	rbit	r3, r3
 80032c4:	f8c7 3104 	str.w	r3, [r7, #260]	@ 0x104
 80032c8:	f507 7300 	add.w	r3, r7, #512	@ 0x200
 80032cc:	f5a3 7380 	sub.w	r3, r3, #256	@ 0x100
 80032d0:	2202      	movs	r2, #2
 80032d2:	601a      	str	r2, [r3, #0]
 80032d4:	f507 7300 	add.w	r3, r7, #512	@ 0x200
 80032d8:	f5a3 7380 	sub.w	r3, r3, #256	@ 0x100
 80032dc:	681b      	ldr	r3, [r3, #0]
 80032de:	fa93 f2a3 	rbit	r2, r3
 80032e2:	f507 7300 	add.w	r3, r7, #512	@ 0x200
 80032e6:	f5a3 7382 	sub.w	r3, r3, #260	@ 0x104
 80032ea:	601a      	str	r2, [r3, #0]
 80032ec:	f507 7300 	add.w	r3, r7, #512	@ 0x200
 80032f0:	f5a3 7384 	sub.w	r3, r3, #264	@ 0x108
 80032f4:	2202      	movs	r2, #2
 80032f6:	601a      	str	r2, [r3, #0]
 80032f8:	f507 7300 	add.w	r3, r7, #512	@ 0x200
 80032fc:	f5a3 7384 	sub.w	r3, r3, #264	@ 0x108
 8003300:	681b      	ldr	r3, [r3, #0]
 8003302:	fa93 f2a3 	rbit	r2, r3
 8003306:	f507 7300 	add.w	r3, r7, #512	@ 0x200
 800330a:	f5a3 7386 	sub.w	r3, r3, #268	@ 0x10c
 800330e:	601a      	str	r2, [r3, #0]
      while(__HAL_RCC_GET_FLAG(RCC_FLAG_LSIRDY) == RESET)
 8003310:	4bb0      	ldr	r3, [pc, #704]	@ (80035d4 <HAL_RCC_OscConfig+0x99c>)
 8003312:	6a5a      	ldr	r2, [r3, #36]	@ 0x24
 8003314:	f507 7300 	add.w	r3, r7, #512	@ 0x200
 8003318:	f5a3 7388 	sub.w	r3, r3, #272	@ 0x110
 800331c:	2102      	movs	r1, #2
 800331e:	6019      	str	r1, [r3, #0]
 8003320:	f507 7300 	add.w	r3, r7, #512	@ 0x200
 8003324:	f5a3 7388 	sub.w	r3, r3, #272	@ 0x110
 8003328:	681b      	ldr	r3, [r3, #0]
 800332a:	fa93 f1a3 	rbit	r1, r3
 800332e:	f507 7300 	add.w	r3, r7, #512	@ 0x200
 8003332:	f5a3 738a 	sub.w	r3, r3, #276	@ 0x114
 8003336:	6019      	str	r1, [r3, #0]
  return result;
 8003338:	f507 7300 	add.w	r3, r7, #512	@ 0x200
 800333c:	f5a3 738a 	sub.w	r3, r3, #276	@ 0x114
 8003340:	681b      	ldr	r3, [r3, #0]
 8003342:	fab3 f383 	clz	r3, r3
 8003346:	b2db      	uxtb	r3, r3
 8003348:	f043 0360 	orr.w	r3, r3, #96	@ 0x60
 800334c:	b2db      	uxtb	r3, r3
 800334e:	f003 031f 	and.w	r3, r3, #31
 8003352:	2101      	movs	r1, #1
 8003354:	fa01 f303 	lsl.w	r3, r1, r3
 8003358:	4013      	ands	r3, r2
 800335a:	2b00      	cmp	r3, #0
 800335c:	d0a0      	beq.n	80032a0 <HAL_RCC_OscConfig+0x668>
 800335e:	e08d      	b.n	800347c <HAL_RCC_OscConfig+0x844>
 8003360:	f507 7300 	add.w	r3, r7, #512	@ 0x200
 8003364:	f5a3 738c 	sub.w	r3, r3, #280	@ 0x118
 8003368:	2201      	movs	r2, #1
 800336a:	601a      	str	r2, [r3, #0]
   __ASM volatile ("rbit %0, %1" : "=r" (result) : "r" (value) );
 800336c:	f507 7300 	add.w	r3, r7, #512	@ 0x200
 8003370:	f5a3 738c 	sub.w	r3, r3, #280	@ 0x118
 8003374:	681b      	ldr	r3, [r3, #0]
 8003376:	fa93 f2a3 	rbit	r2, r3
 800337a:	f507 7300 	add.w	r3, r7, #512	@ 0x200
 800337e:	f5a3 738e 	sub.w	r3, r3, #284	@ 0x11c
 8003382:	601a      	str	r2, [r3, #0]
  return result;
 8003384:	f507 7300 	add.w	r3, r7, #512	@ 0x200
 8003388:	f5a3 738e 	sub.w	r3, r3, #284	@ 0x11c
 800338c:	681b      	ldr	r3, [r3, #0]
      }
    }
    else
    {
      /* Disable the Internal Low Speed oscillator (LSI). */
      __HAL_RCC_LSI_DISABLE();
 800338e:	fab3 f383 	clz	r3, r3
 8003392:	b2db      	uxtb	r3, r3
 8003394:	461a      	mov	r2, r3
 8003396:	4b90      	ldr	r3, [pc, #576]	@ (80035d8 <HAL_RCC_OscConfig+0x9a0>)
 8003398:	4413      	add	r3, r2
 800339a:	009b      	lsls	r3, r3, #2
 800339c:	461a      	mov	r2, r3
 800339e:	2300      	movs	r3, #0
 80033a0:	6013      	str	r3, [r2, #0]
      
      /* Get Start Tick */
      tickstart = HAL_GetTick();
 80033a2:	f7fe f91f 	bl	80015e4 <HAL_GetTick>
 80033a6:	f8c7 01f8 	str.w	r0, [r7, #504]	@ 0x1f8
      
      /* Wait till LSI is disabled */  
      while(__HAL_RCC_GET_FLAG(RCC_FLAG_LSIRDY) != RESET)
 80033aa:	e00a      	b.n	80033c2 <HAL_RCC_OscConfig+0x78a>
      {
        if((HAL_GetTick() - tickstart ) > LSI_TIMEOUT_VALUE)
 80033ac:	f7fe f91a 	bl	80015e4 <HAL_GetTick>
 80033b0:	4602      	mov	r2, r0
 80033b2:	f8d7 31f8 	ldr.w	r3, [r7, #504]	@ 0x1f8
 80033b6:	1ad3      	subs	r3, r2, r3
 80033b8:	2b02      	cmp	r3, #2
 80033ba:	d902      	bls.n	80033c2 <HAL_RCC_OscConfig+0x78a>
        {
          return HAL_TIMEOUT;
 80033bc:	2303      	movs	r3, #3
 80033be:	f000 bc42 	b.w	8003c46 <HAL_RCC_OscConfig+0x100e>
 80033c2:	f507 7300 	add.w	r3, r7, #512	@ 0x200
 80033c6:	f5a3 7390 	sub.w	r3, r3, #288	@ 0x120
 80033ca:	2202      	movs	r2, #2
 80033cc:	601a      	str	r2, [r3, #0]
   __ASM volatile ("rbit %0, %1" : "=r" (result) : "r" (value) );
 80033ce:	f507 7300 	add.w	r3, r7, #512	@ 0x200
 80033d2:	f5a3 7390 	sub.w	r3, r3, #288	@ 0x120
 80033d6:	681b      	ldr	r3, [r3, #0]
 80033d8:	fa93 f2a3 	rbit	r2, r3
 80033dc:	f507 7300 	add.w	r3, r7, #512	@ 0x200
 80033e0:	f5a3 7392 	sub.w	r3, r3, #292	@ 0x124
 80033e4:	601a      	str	r2, [r3, #0]
 80033e6:	f507 7300 	add.w	r3, r7, #512	@ 0x200
 80033ea:	f5a3 7394 	sub.w	r3, r3, #296	@ 0x128
 80033ee:	2202      	movs	r2, #2
 80033f0:	601a      	str	r2, [r3, #0]
 80033f2:	f507 7300 	add.w	r3, r7, #512	@ 0x200
 80033f6:	f5a3 7394 	sub.w	r3, r3, #296	@ 0x128
 80033fa:	681b      	ldr	r3, [r3, #0]
 80033fc:	fa93 f2a3 	rbit	r2, r3
 8003400:	f507 7300 	add.w	r3, r7, #512	@ 0x200
 8003404:	f5a3 7396 	sub.w	r3, r3, #300	@ 0x12c
 8003408:	601a      	str	r2, [r3, #0]
 800340a:	f507 7300 	add.w	r3, r7, #512	@ 0x200
 800340e:	f5a3 7398 	sub.w	r3, r3, #304	@ 0x130
 8003412:	2202      	movs	r2, #2
 8003414:	601a      	str	r2, [r3, #0]
 8003416:	f507 7300 	add.w	r3, r7, #512	@ 0x200
 800341a:	f5a3 7398 	sub.w	r3, r3, #304	@ 0x130
 800341e:	681b      	ldr	r3, [r3, #0]
 8003420:	fa93 f2a3 	rbit	r2, r3
 8003424:	f507 7300 	add.w	r3, r7, #512	@ 0x200
 8003428:	f5a3 739a 	sub.w	r3, r3, #308	@ 0x134
 800342c:	601a      	str	r2, [r3, #0]
      while(__HAL_RCC_GET_FLAG(RCC_FLAG_LSIRDY) != RESET)
 800342e:	4b69      	ldr	r3, [pc, #420]	@ (80035d4 <HAL_RCC_OscConfig+0x99c>)
 8003430:	6a5a      	ldr	r2, [r3, #36]	@ 0x24
 8003432:	f507 7300 	add.w	r3, r7, #512	@ 0x200
 8003436:	f5a3 739c 	sub.w	r3, r3, #312	@ 0x138
 800343a:	2102      	movs	r1, #2
 800343c:	6019      	str	r1, [r3, #0]
 800343e:	f507 7300 	add.w	r3, r7, #512	@ 0x200
 8003442:	f5a3 739c 	sub.w	r3, r3, #312	@ 0x138
 8003446:	681b      	ldr	r3, [r3, #0]
 8003448:	fa93 f1a3 	rbit	r1, r3
 800344c:	f507 7300 	add.w	r3, r7, #512	@ 0x200
 8003450:	f5a3 739e 	sub.w	r3, r3, #316	@ 0x13c
 8003454:	6019      	str	r1, [r3, #0]
  return result;
 8003456:	f507 7300 	add.w	r3, r7, #512	@ 0x200
 800345a:	f5a3 739e 	sub.w	r3, r3, #316	@ 0x13c
 800345e:	681b      	ldr	r3, [r3, #0]
 8003460:	fab3 f383 	clz	r3, r3
 8003464:	b2db      	uxtb	r3, r3
 8003466:	f043 0360 	orr.w	r3, r3, #96	@ 0x60
 800346a:	b2db      	uxtb	r3, r3
 800346c:	f003 031f 	and.w	r3, r3, #31
 8003470:	2101      	movs	r1, #1
 8003472:	fa01 f303 	lsl.w	r3, r1, r3
 8003476:	4013      	ands	r3, r2
 8003478:	2b00      	cmp	r3, #0
 800347a:	d197      	bne.n	80033ac <HAL_RCC_OscConfig+0x774>
        }
      }
    }
  }
  /*------------------------------ LSE Configuration -------------------------*/ 
  if(((RCC_OscInitStruct->OscillatorType) & RCC_OSCILLATORTYPE_LSE) == RCC_OSCILLATORTYPE_LSE)
 800347c:	f507 7300 	add.w	r3, r7, #512	@ 0x200
 8003480:	f5a3 73fe 	sub.w	r3, r3, #508	@ 0x1fc
 8003484:	681b      	ldr	r3, [r3, #0]
 8003486:	681b      	ldr	r3, [r3, #0]
 8003488:	f003 0304 	and.w	r3, r3, #4
 800348c:	2b00      	cmp	r3, #0
 800348e:	f000 819e 	beq.w	80037ce <HAL_RCC_OscConfig+0xb96>
  {
    FlagStatus       pwrclkchanged = RESET;
 8003492:	2300      	movs	r3, #0
 8003494:	f887 31ff 	strb.w	r3, [r7, #511]	@ 0x1ff
    /* Check the parameters */
    assert_param(IS_RCC_LSE(RCC_OscInitStruct->LSEState));

    /* Update LSE configuration in Backup Domain control register    */
    /* Requires to enable write access to Backup Domain of necessary */
    if(__HAL_RCC_PWR_IS_CLK_DISABLED())
 8003498:	4b4e      	ldr	r3, [pc, #312]	@ (80035d4 <HAL_RCC_OscConfig+0x99c>)
 800349a:	69db      	ldr	r3, [r3, #28]
 800349c:	f003 5380 	and.w	r3, r3, #268435456	@ 0x10000000
 80034a0:	2b00      	cmp	r3, #0
 80034a2:	d116      	bne.n	80034d2 <HAL_RCC_OscConfig+0x89a>
    {
      __HAL_RCC_PWR_CLK_ENABLE();
 80034a4:	4b4b      	ldr	r3, [pc, #300]	@ (80035d4 <HAL_RCC_OscConfig+0x99c>)
 80034a6:	69db      	ldr	r3, [r3, #28]
 80034a8:	4a4a      	ldr	r2, [pc, #296]	@ (80035d4 <HAL_RCC_OscConfig+0x99c>)
 80034aa:	f043 5380 	orr.w	r3, r3, #268435456	@ 0x10000000
 80034ae:	61d3      	str	r3, [r2, #28]
 80034b0:	4b48      	ldr	r3, [pc, #288]	@ (80035d4 <HAL_RCC_OscConfig+0x99c>)
 80034b2:	69db      	ldr	r3, [r3, #28]
 80034b4:	f003 5280 	and.w	r2, r3, #268435456	@ 0x10000000
 80034b8:	f507 7300 	add.w	r3, r7, #512	@ 0x200
 80034bc:	f5a3 73fc 	sub.w	r3, r3, #504	@ 0x1f8
 80034c0:	601a      	str	r2, [r3, #0]
 80034c2:	f507 7300 	add.w	r3, r7, #512	@ 0x200
 80034c6:	f5a3 73fc 	sub.w	r3, r3, #504	@ 0x1f8
 80034ca:	681b      	ldr	r3, [r3, #0]
      pwrclkchanged = SET;
 80034cc:	2301      	movs	r3, #1
 80034ce:	f887 31ff 	strb.w	r3, [r7, #511]	@ 0x1ff
    }
    
    if(HAL_IS_BIT_CLR(PWR->CR, PWR_CR_DBP))
 80034d2:	4b42      	ldr	r3, [pc, #264]	@ (80035dc <HAL_RCC_OscConfig+0x9a4>)
 80034d4:	681b      	ldr	r3, [r3, #0]
 80034d6:	f403 7380 	and.w	r3, r3, #256	@ 0x100
 80034da:	2b00      	cmp	r3, #0
 80034dc:	d11a      	bne.n	8003514 <HAL_RCC_OscConfig+0x8dc>
    {
      /* Enable write access to Backup domain */
      SET_BIT(PWR->CR, PWR_CR_DBP);
 80034de:	4b3f      	ldr	r3, [pc, #252]	@ (80035dc <HAL_RCC_OscConfig+0x9a4>)
 80034e0:	681b      	ldr	r3, [r3, #0]
 80034e2:	4a3e      	ldr	r2, [pc, #248]	@ (80035dc <HAL_RCC_OscConfig+0x9a4>)
 80034e4:	f443 7380 	orr.w	r3, r3, #256	@ 0x100
 80034e8:	6013      	str	r3, [r2, #0]
      
      /* Wait for Backup domain Write protection disable */
      tickstart = HAL_GetTick();
 80034ea:	f7fe f87b 	bl	80015e4 <HAL_GetTick>
 80034ee:	f8c7 01f8 	str.w	r0, [r7, #504]	@ 0x1f8

      while(HAL_IS_BIT_CLR(PWR->CR, PWR_CR_DBP))
 80034f2:	e009      	b.n	8003508 <HAL_RCC_OscConfig+0x8d0>
      {
        if((HAL_GetTick() - tickstart) > RCC_DBP_TIMEOUT_VALUE)
 80034f4:	f7fe f876 	bl	80015e4 <HAL_GetTick>
 80034f8:	4602      	mov	r2, r0
 80034fa:	f8d7 31f8 	ldr.w	r3, [r7, #504]	@ 0x1f8
 80034fe:	1ad3      	subs	r3, r2, r3
 8003500:	2b64      	cmp	r3, #100	@ 0x64
 8003502:	d901      	bls.n	8003508 <HAL_RCC_OscConfig+0x8d0>
        {
          return HAL_TIMEOUT;
 8003504:	2303      	movs	r3, #3
 8003506:	e39e      	b.n	8003c46 <HAL_RCC_OscConfig+0x100e>
      while(HAL_IS_BIT_CLR(PWR->CR, PWR_CR_DBP))
 8003508:	4b34      	ldr	r3, [pc, #208]	@ (80035dc <HAL_RCC_OscConfig+0x9a4>)
 800350a:	681b      	ldr	r3, [r3, #0]
 800350c:	f403 7380 	and.w	r3, r3, #256	@ 0x100
 8003510:	2b00      	cmp	r3, #0
 8003512:	d0ef      	beq.n	80034f4 <HAL_RCC_OscConfig+0x8bc>
        }
      }
    }

    /* Set the new LSE configuration -----------------------------------------*/
    __HAL_RCC_LSE_CONFIG(RCC_OscInitStruct->LSEState);
 8003514:	f507 7300 	add.w	r3, r7, #512	@ 0x200
 8003518:	f5a3 73fe 	sub.w	r3, r3, #508	@ 0x1fc
 800351c:	681b      	ldr	r3, [r3, #0]
 800351e:	68db      	ldr	r3, [r3, #12]
 8003520:	2b01      	cmp	r3, #1
 8003522:	d106      	bne.n	8003532 <HAL_RCC_OscConfig+0x8fa>
 8003524:	4b2b      	ldr	r3, [pc, #172]	@ (80035d4 <HAL_RCC_OscConfig+0x99c>)
 8003526:	6a1b      	ldr	r3, [r3, #32]
 8003528:	4a2a      	ldr	r2, [pc, #168]	@ (80035d4 <HAL_RCC_OscConfig+0x99c>)
 800352a:	f043 0301 	orr.w	r3, r3, #1
 800352e:	6213      	str	r3, [r2, #32]
 8003530:	e035      	b.n	800359e <HAL_RCC_OscConfig+0x966>
 8003532:	f507 7300 	add.w	r3, r7, #512	@ 0x200
 8003536:	f5a3 73fe 	sub.w	r3, r3, #508	@ 0x1fc
 800353a:	681b      	ldr	r3, [r3, #0]
 800353c:	68db      	ldr	r3, [r3, #12]
 800353e:	2b00      	cmp	r3, #0
 8003540:	d10c      	bne.n	800355c <HAL_RCC_OscConfig+0x924>
 8003542:	4b24      	ldr	r3, [pc, #144]	@ (80035d4 <HAL_RCC_OscConfig+0x99c>)
 8003544:	6a1b      	ldr	r3, [r3, #32]
 8003546:	4a23      	ldr	r2, [pc, #140]	@ (80035d4 <HAL_RCC_OscConfig+0x99c>)
 8003548:	f023 0301 	bic.w	r3, r3, #1
 800354c:	6213      	str	r3, [r2, #32]
 800354e:	4b21      	ldr	r3, [pc, #132]	@ (80035d4 <HAL_RCC_OscConfig+0x99c>)
 8003550:	6a1b      	ldr	r3, [r3, #32]
 8003552:	4a20      	ldr	r2, [pc, #128]	@ (80035d4 <HAL_RCC_OscConfig+0x99c>)
 8003554:	f023 0304 	bic.w	r3, r3, #4
 8003558:	6213      	str	r3, [r2, #32]
 800355a:	e020      	b.n	800359e <HAL_RCC_OscConfig+0x966>
 800355c:	f507 7300 	add.w	r3, r7, #512	@ 0x200
 8003560:	f5a3 73fe 	sub.w	r3, r3, #508	@ 0x1fc
 8003564:	681b      	ldr	r3, [r3, #0]
 8003566:	68db      	ldr	r3, [r3, #12]
 8003568:	2b05      	cmp	r3, #5
 800356a:	d10c      	bne.n	8003586 <HAL_RCC_OscConfig+0x94e>
 800356c:	4b19      	ldr	r3, [pc, #100]	@ (80035d4 <HAL_RCC_OscConfig+0x99c>)
 800356e:	6a1b      	ldr	r3, [r3, #32]
 8003570:	4a18      	ldr	r2, [pc, #96]	@ (80035d4 <HAL_RCC_OscConfig+0x99c>)
 8003572:	f043 0304 	orr.w	r3, r3, #4
 8003576:	6213      	str	r3, [r2, #32]
 8003578:	4b16      	ldr	r3, [pc, #88]	@ (80035d4 <HAL_RCC_OscConfig+0x99c>)
 800357a:	6a1b      	ldr	r3, [r3, #32]
 800357c:	4a15      	ldr	r2, [pc, #84]	@ (80035d4 <HAL_RCC_OscConfig+0x99c>)
 800357e:	f043 0301 	orr.w	r3, r3, #1
 8003582:	6213      	str	r3, [r2, #32]
 8003584:	e00b      	b.n	800359e <HAL_RCC_OscConfig+0x966>
 8003586:	4b13      	ldr	r3, [pc, #76]	@ (80035d4 <HAL_RCC_OscConfig+0x99c>)
 8003588:	6a1b      	ldr	r3, [r3, #32]
 800358a:	4a12      	ldr	r2, [pc, #72]	@ (80035d4 <HAL_RCC_OscConfig+0x99c>)
 800358c:	f023 0301 	bic.w	r3, r3, #1
 8003590:	6213      	str	r3, [r2, #32]
 8003592:	4b10      	ldr	r3, [pc, #64]	@ (80035d4 <HAL_RCC_OscConfig+0x99c>)
 8003594:	6a1b      	ldr	r3, [r3, #32]
 8003596:	4a0f      	ldr	r2, [pc, #60]	@ (80035d4 <HAL_RCC_OscConfig+0x99c>)
 8003598:	f023 0304 	bic.w	r3, r3, #4
 800359c:	6213      	str	r3, [r2, #32]
    /* Check the LSE State */
    if(RCC_OscInitStruct->LSEState != RCC_LSE_OFF)
 800359e:	f507 7300 	add.w	r3, r7, #512	@ 0x200
 80035a2:	f5a3 73fe 	sub.w	r3, r3, #508	@ 0x1fc
 80035a6:	681b      	ldr	r3, [r3, #0]
 80035a8:	68db      	ldr	r3, [r3, #12]
 80035aa:	2b00      	cmp	r3, #0
 80035ac:	f000 8087 	beq.w	80036be <HAL_RCC_OscConfig+0xa86>
    {
      /* Get Start Tick */
      tickstart = HAL_GetTick();
 80035b0:	f7fe f818 	bl	80015e4 <HAL_GetTick>
 80035b4:	f8c7 01f8 	str.w	r0, [r7, #504]	@ 0x1f8
      
      /* Wait till LSE is ready */  
      while(__HAL_RCC_GET_FLAG(RCC_FLAG_LSERDY) == RESET)
 80035b8:	e012      	b.n	80035e0 <HAL_RCC_OscConfig+0x9a8>
      {
        if((HAL_GetTick() - tickstart ) > RCC_LSE_TIMEOUT_VALUE)
 80035ba:	f7fe f813 	bl	80015e4 <HAL_GetTick>
 80035be:	4602      	mov	r2, r0
 80035c0:	f8d7 31f8 	ldr.w	r3, [r7, #504]	@ 0x1f8
 80035c4:	1ad3      	subs	r3, r2, r3
 80035c6:	f241 3288 	movw	r2, #5000	@ 0x1388
 80035ca:	4293      	cmp	r3, r2
 80035cc:	d908      	bls.n	80035e0 <HAL_RCC_OscConfig+0x9a8>
        {
          return HAL_TIMEOUT;
 80035ce:	2303      	movs	r3, #3
 80035d0:	e339      	b.n	8003c46 <HAL_RCC_OscConfig+0x100e>
 80035d2:	bf00      	nop
 80035d4:	40021000 	.word	0x40021000
 80035d8:	10908120 	.word	0x10908120
 80035dc:	40007000 	.word	0x40007000
 80035e0:	f507 7300 	add.w	r3, r7, #512	@ 0x200
 80035e4:	f5a3 73a0 	sub.w	r3, r3, #320	@ 0x140
 80035e8:	2202      	movs	r2, #2
 80035ea:	601a      	str	r2, [r3, #0]
   __ASM volatile ("rbit %0, %1" : "=r" (result) : "r" (value) );
 80035ec:	f507 7300 	add.w	r3, r7, #512	@ 0x200
 80035f0:	f5a3 73a0 	sub.w	r3, r3, #320	@ 0x140
 80035f4:	681b      	ldr	r3, [r3, #0]
 80035f6:	fa93 f2a3 	rbit	r2, r3
 80035fa:	f507 7300 	add.w	r3, r7, #512	@ 0x200
 80035fe:	f5a3 73a2 	sub.w	r3, r3, #324	@ 0x144
 8003602:	601a      	str	r2, [r3, #0]
 8003604:	f507 7300 	add.w	r3, r7, #512	@ 0x200
 8003608:	f5a3 73a4 	sub.w	r3, r3, #328	@ 0x148
 800360c:	2202      	movs	r2, #2
 800360e:	601a      	str	r2, [r3, #0]
 8003610:	f507 7300 	add.w	r3, r7, #512	@ 0x200
 8003614:	f5a3 73a4 	sub.w	r3, r3, #328	@ 0x148
 8003618:	681b      	ldr	r3, [r3, #0]
 800361a:	fa93 f2a3 	rbit	r2, r3
 800361e:	f507 7300 	add.w	r3, r7, #512	@ 0x200
 8003622:	f5a3 73a6 	sub.w	r3, r3, #332	@ 0x14c
 8003626:	601a      	str	r2, [r3, #0]
  return result;
 8003628:	f507 7300 	add.w	r3, r7, #512	@ 0x200
 800362c:	f5a3 73a6 	sub.w	r3, r3, #332	@ 0x14c
 8003630:	681b      	ldr	r3, [r3, #0]
      while(__HAL_RCC_GET_FLAG(RCC_FLAG_LSERDY) == RESET)
 8003632:	fab3 f383 	clz	r3, r3
 8003636:	b2db      	uxtb	r3, r3
 8003638:	f023 035f 	bic.w	r3, r3, #95	@ 0x5f
 800363c:	b2db      	uxtb	r3, r3
 800363e:	2b00      	cmp	r3, #0
 8003640:	d102      	bne.n	8003648 <HAL_RCC_OscConfig+0xa10>
 8003642:	4b98      	ldr	r3, [pc, #608]	@ (80038a4 <HAL_RCC_OscConfig+0xc6c>)
 8003644:	6a1b      	ldr	r3, [r3, #32]
 8003646:	e013      	b.n	8003670 <HAL_RCC_OscConfig+0xa38>
 8003648:	f507 7300 	add.w	r3, r7, #512	@ 0x200
 800364c:	f5a3 73a8 	sub.w	r3, r3, #336	@ 0x150
 8003650:	2202      	movs	r2, #2
 8003652:	601a      	str	r2, [r3, #0]
   __ASM volatile ("rbit %0, %1" : "=r" (result) : "r" (value) );
 8003654:	f507 7300 	add.w	r3, r7, #512	@ 0x200
 8003658:	f5a3 73a8 	sub.w	r3, r3, #336	@ 0x150
 800365c:	681b      	ldr	r3, [r3, #0]
 800365e:	fa93 f2a3 	rbit	r2, r3
 8003662:	f507 7300 	add.w	r3, r7, #512	@ 0x200
 8003666:	f5a3 73aa 	sub.w	r3, r3, #340	@ 0x154
 800366a:	601a      	str	r2, [r3, #0]
 800366c:	4b8d      	ldr	r3, [pc, #564]	@ (80038a4 <HAL_RCC_OscConfig+0xc6c>)
 800366e:	6a5b      	ldr	r3, [r3, #36]	@ 0x24
 8003670:	f507 7200 	add.w	r2, r7, #512	@ 0x200
 8003674:	f5a2 72ac 	sub.w	r2, r2, #344	@ 0x158
 8003678:	2102      	movs	r1, #2
 800367a:	6011      	str	r1, [r2, #0]
 800367c:	f507 7200 	add.w	r2, r7, #512	@ 0x200
 8003680:	f5a2 72ac 	sub.w	r2, r2, #344	@ 0x158
 8003684:	6812      	ldr	r2, [r2, #0]
 8003686:	fa92 f1a2 	rbit	r1, r2
 800368a:	f507 7200 	add.w	r2, r7, #512	@ 0x200
 800368e:	f5a2 72ae 	sub.w	r2, r2, #348	@ 0x15c
 8003692:	6011      	str	r1, [r2, #0]
  return result;
 8003694:	f507 7200 	add.w	r2, r7, #512	@ 0x200
 8003698:	f5a2 72ae 	sub.w	r2, r2, #348	@ 0x15c
 800369c:	6812      	ldr	r2, [r2, #0]
 800369e:	fab2 f282 	clz	r2, r2
 80036a2:	b2d2      	uxtb	r2, r2
 80036a4:	f042 0240 	orr.w	r2, r2, #64	@ 0x40
 80036a8:	b2d2      	uxtb	r2, r2
 80036aa:	f002 021f 	and.w	r2, r2, #31
 80036ae:	2101      	movs	r1, #1
 80036b0:	fa01 f202 	lsl.w	r2, r1, r2
 80036b4:	4013      	ands	r3, r2
 80036b6:	2b00      	cmp	r3, #0
 80036b8:	f43f af7f 	beq.w	80035ba <HAL_RCC_OscConfig+0x982>
 80036bc:	e07d      	b.n	80037ba <HAL_RCC_OscConfig+0xb82>
      }
    }
    else
    {
      /* Get Start Tick */
      tickstart = HAL_GetTick();
 80036be:	f7fd ff91 	bl	80015e4 <HAL_GetTick>
 80036c2:	f8c7 01f8 	str.w	r0, [r7, #504]	@ 0x1f8
      
      /* Wait till LSE is disabled */  
      while(__HAL_RCC_GET_FLAG(RCC_FLAG_LSERDY) != RESET)
 80036c6:	e00b      	b.n	80036e0 <HAL_RCC_OscConfig+0xaa8>
      {
        if((HAL_GetTick() - tickstart ) > RCC_LSE_TIMEOUT_VALUE)
 80036c8:	f7fd ff8c 	bl	80015e4 <HAL_GetTick>
 80036cc:	4602      	mov	r2, r0
 80036ce:	f8d7 31f8 	ldr.w	r3, [r7, #504]	@ 0x1f8
 80036d2:	1ad3      	subs	r3, r2, r3
 80036d4:	f241 3288 	movw	r2, #5000	@ 0x1388
 80036d8:	4293      	cmp	r3, r2
 80036da:	d901      	bls.n	80036e0 <HAL_RCC_OscConfig+0xaa8>
        {
          return HAL_TIMEOUT;
 80036dc:	2303      	movs	r3, #3
 80036de:	e2b2      	b.n	8003c46 <HAL_RCC_OscConfig+0x100e>
 80036e0:	f507 7300 	add.w	r3, r7, #512	@ 0x200
 80036e4:	f5a3 73b0 	sub.w	r3, r3, #352	@ 0x160
 80036e8:	2202      	movs	r2, #2
 80036ea:	601a      	str	r2, [r3, #0]
   __ASM volatile ("rbit %0, %1" : "=r" (result) : "r" (value) );
 80036ec:	f507 7300 	add.w	r3, r7, #512	@ 0x200
 80036f0:	f5a3 73b0 	sub.w	r3, r3, #352	@ 0x160
 80036f4:	681b      	ldr	r3, [r3, #0]
 80036f6:	fa93 f2a3 	rbit	r2, r3
 80036fa:	f507 7300 	add.w	r3, r7, #512	@ 0x200
 80036fe:	f5a3 73b2 	sub.w	r3, r3, #356	@ 0x164
 8003702:	601a      	str	r2, [r3, #0]
 8003704:	f507 7300 	add.w	r3, r7, #512	@ 0x200
 8003708:	f5a3 73b4 	sub.w	r3, r3, #360	@ 0x168
 800370c:	2202      	movs	r2, #2
 800370e:	601a      	str	r2, [r3, #0]
 8003710:	f507 7300 	add.w	r3, r7, #512	@ 0x200
 8003714:	f5a3 73b4 	sub.w	r3, r3, #360	@ 0x168
 8003718:	681b      	ldr	r3, [r3, #0]
 800371a:	fa93 f2a3 	rbit	r2, r3
 800371e:	f507 7300 	add.w	r3, r7, #512	@ 0x200
 8003722:	f5a3 73b6 	sub.w	r3, r3, #364	@ 0x16c
 8003726:	601a      	str	r2, [r3, #0]
  return result;
 8003728:	f507 7300 	add.w	r3, r7, #512	@ 0x200
 800372c:	f5a3 73b6 	sub.w	r3, r3, #364	@ 0x16c
 8003730:	681b      	ldr	r3, [r3, #0]
      while(__HAL_RCC_GET_FLAG(RCC_FLAG_LSERDY) != RESET)
 8003732:	fab3 f383 	clz	r3, r3
 8003736:	b2db      	uxtb	r3, r3
 8003738:	f023 035f 	bic.w	r3, r3, #95	@ 0x5f
 800373c:	b2db      	uxtb	r3, r3
 800373e:	2b00      	cmp	r3, #0
 8003740:	d102      	bne.n	8003748 <HAL_RCC_OscConfig+0xb10>
 8003742:	4b58      	ldr	r3, [pc, #352]	@ (80038a4 <HAL_RCC_OscConfig+0xc6c>)
 8003744:	6a1b      	ldr	r3, [r3, #32]
 8003746:	e013      	b.n	8003770 <HAL_RCC_OscConfig+0xb38>
 8003748:	f507 7300 	add.w	r3, r7, #512	@ 0x200
 800374c:	f5a3 73b8 	sub.w	r3, r3, #368	@ 0x170
 8003750:	2202      	movs	r2, #2
 8003752:	601a      	str	r2, [r3, #0]
   __ASM volatile ("rbit %0, %1" : "=r" (result) : "r" (value) );
 8003754:	f507 7300 	add.w	r3, r7, #512	@ 0x200
 8003758:	f5a3 73b8 	sub.w	r3, r3, #368	@ 0x170
 800375c:	681b      	ldr	r3, [r3, #0]
 800375e:	fa93 f2a3 	rbit	r2, r3
 8003762:	f507 7300 	add.w	r3, r7, #512	@ 0x200
 8003766:	f5a3 73ba 	sub.w	r3, r3, #372	@ 0x174
 800376a:	601a      	str	r2, [r3, #0]
 800376c:	4b4d      	ldr	r3, [pc, #308]	@ (80038a4 <HAL_RCC_OscConfig+0xc6c>)
 800376e:	6a5b      	ldr	r3, [r3, #36]	@ 0x24
 8003770:	f507 7200 	add.w	r2, r7, #512	@ 0x200
 8003774:	f5a2 72bc 	sub.w	r2, r2, #376	@ 0x178
 8003778:	2102      	movs	r1, #2
 800377a:	6011      	str	r1, [r2, #0]
 800377c:	f507 7200 	add.w	r2, r7, #512	@ 0x200
 8003780:	f5a2 72bc 	sub.w	r2, r2, #376	@ 0x178
 8003784:	6812      	ldr	r2, [r2, #0]
 8003786:	fa92 f1a2 	rbit	r1, r2
 800378a:	f507 7200 	add.w	r2, r7, #512	@ 0x200
 800378e:	f5a2 72be 	sub.w	r2, r2, #380	@ 0x17c
 8003792:	6011      	str	r1, [r2, #0]
  return result;
 8003794:	f507 7200 	add.w	r2, r7, #512	@ 0x200
 8003798:	f5a2 72be 	sub.w	r2, r2, #380	@ 0x17c
 800379c:	6812      	ldr	r2, [r2, #0]
 800379e:	fab2 f282 	clz	r2, r2
 80037a2:	b2d2      	uxtb	r2, r2
 80037a4:	f042 0240 	orr.w	r2, r2, #64	@ 0x40
 80037a8:	b2d2      	uxtb	r2, r2
 80037aa:	f002 021f 	and.w	r2, r2, #31
 80037ae:	2101      	movs	r1, #1
 80037b0:	fa01 f202 	lsl.w	r2, r1, r2
 80037b4:	4013      	ands	r3, r2
 80037b6:	2b00      	cmp	r3, #0
 80037b8:	d186      	bne.n	80036c8 <HAL_RCC_OscConfig+0xa90>
        }
      }
    }

    /* Require to disable power clock if necessary */
    if(pwrclkchanged == SET)
 80037ba:	f897 31ff 	ldrb.w	r3, [r7, #511]	@ 0x1ff
 80037be:	2b01      	cmp	r3, #1
 80037c0:	d105      	bne.n	80037ce <HAL_RCC_OscConfig+0xb96>
    {
      __HAL_RCC_PWR_CLK_DISABLE();
 80037c2:	4b38      	ldr	r3, [pc, #224]	@ (80038a4 <HAL_RCC_OscConfig+0xc6c>)
 80037c4:	69db      	ldr	r3, [r3, #28]
 80037c6:	4a37      	ldr	r2, [pc, #220]	@ (80038a4 <HAL_RCC_OscConfig+0xc6c>)
 80037c8:	f023 5380 	bic.w	r3, r3, #268435456	@ 0x10000000
 80037cc:	61d3      	str	r3, [r2, #28]
  }

  /*-------------------------------- PLL Configuration -----------------------*/
  /* Check the parameters */
  assert_param(IS_RCC_PLL(RCC_OscInitStruct->PLL.PLLState));
  if ((RCC_OscInitStruct->PLL.PLLState) != RCC_PLL_NONE)
 80037ce:	f507 7300 	add.w	r3, r7, #512	@ 0x200
 80037d2:	f5a3 73fe 	sub.w	r3, r3, #508	@ 0x1fc
 80037d6:	681b      	ldr	r3, [r3, #0]
 80037d8:	69db      	ldr	r3, [r3, #28]
 80037da:	2b00      	cmp	r3, #0
 80037dc:	f000 8232 	beq.w	8003c44 <HAL_RCC_OscConfig+0x100c>
  {
    /* Check if the PLL is used as system clock or not */
    if(__HAL_RCC_GET_SYSCLK_SOURCE() != RCC_SYSCLKSOURCE_STATUS_PLLCLK)
 80037e0:	4b30      	ldr	r3, [pc, #192]	@ (80038a4 <HAL_RCC_OscConfig+0xc6c>)
 80037e2:	685b      	ldr	r3, [r3, #4]
 80037e4:	f003 030c 	and.w	r3, r3, #12
 80037e8:	2b08      	cmp	r3, #8
 80037ea:	f000 8201 	beq.w	8003bf0 <HAL_RCC_OscConfig+0xfb8>
    { 
      if((RCC_OscInitStruct->PLL.PLLState) == RCC_PLL_ON)
 80037ee:	f507 7300 	add.w	r3, r7, #512	@ 0x200
 80037f2:	f5a3 73fe 	sub.w	r3, r3, #508	@ 0x1fc
 80037f6:	681b      	ldr	r3, [r3, #0]
 80037f8:	69db      	ldr	r3, [r3, #28]
 80037fa:	2b02      	cmp	r3, #2
 80037fc:	f040 8157 	bne.w	8003aae <HAL_RCC_OscConfig+0xe76>
 8003800:	f507 7300 	add.w	r3, r7, #512	@ 0x200
 8003804:	f5a3 73c0 	sub.w	r3, r3, #384	@ 0x180
 8003808:	f04f 7280 	mov.w	r2, #16777216	@ 0x1000000
 800380c:	601a      	str	r2, [r3, #0]
   __ASM volatile ("rbit %0, %1" : "=r" (result) : "r" (value) );
 800380e:	f507 7300 	add.w	r3, r7, #512	@ 0x200
 8003812:	f5a3 73c0 	sub.w	r3, r3, #384	@ 0x180
 8003816:	681b      	ldr	r3, [r3, #0]
 8003818:	fa93 f2a3 	rbit	r2, r3
 800381c:	f507 7300 	add.w	r3, r7, #512	@ 0x200
 8003820:	f5a3 73c2 	sub.w	r3, r3, #388	@ 0x184
 8003824:	601a      	str	r2, [r3, #0]
  return result;
 8003826:	f507 7300 	add.w	r3, r7, #512	@ 0x200
 800382a:	f5a3 73c2 	sub.w	r3, r3, #388	@ 0x184
 800382e:	681b      	ldr	r3, [r3, #0]
#if   defined(RCC_CFGR_PLLSRC_HSI_PREDIV)
        assert_param(IS_RCC_PREDIV(RCC_OscInitStruct->PLL.PREDIV));
#endif
  
        /* Disable the main PLL. */
        __HAL_RCC_PLL_DISABLE();
 8003830:	fab3 f383 	clz	r3, r3
 8003834:	b2db      	uxtb	r3, r3
 8003836:	f103 5384 	add.w	r3, r3, #276824064	@ 0x10800000
 800383a:	f503 1384 	add.w	r3, r3, #1081344	@ 0x108000
 800383e:	009b      	lsls	r3, r3, #2
 8003840:	461a      	mov	r2, r3
 8003842:	2300      	movs	r3, #0
 8003844:	6013      	str	r3, [r2, #0]
        
        /* Get Start Tick */
        tickstart = HAL_GetTick();
 8003846:	f7fd fecd 	bl	80015e4 <HAL_GetTick>
 800384a:	f8c7 01f8 	str.w	r0, [r7, #504]	@ 0x1f8
        
        /* Wait till PLL is disabled */
        while(__HAL_RCC_GET_FLAG(RCC_FLAG_PLLRDY)  != RESET)
 800384e:	e009      	b.n	8003864 <HAL_RCC_OscConfig+0xc2c>
        {
          if((HAL_GetTick() - tickstart ) > PLL_TIMEOUT_VALUE)
 8003850:	f7fd fec8 	bl	80015e4 <HAL_GetTick>
 8003854:	4602      	mov	r2, r0
 8003856:	f8d7 31f8 	ldr.w	r3, [r7, #504]	@ 0x1f8
 800385a:	1ad3      	subs	r3, r2, r3
 800385c:	2b02      	cmp	r3, #2
 800385e:	d901      	bls.n	8003864 <HAL_RCC_OscConfig+0xc2c>
          {
            return HAL_TIMEOUT;
 8003860:	2303      	movs	r3, #3
 8003862:	e1f0      	b.n	8003c46 <HAL_RCC_OscConfig+0x100e>
 8003864:	f507 7300 	add.w	r3, r7, #512	@ 0x200
 8003868:	f5a3 73c4 	sub.w	r3, r3, #392	@ 0x188
 800386c:	f04f 7200 	mov.w	r2, #33554432	@ 0x2000000
 8003870:	601a      	str	r2, [r3, #0]
   __ASM volatile ("rbit %0, %1" : "=r" (result) : "r" (value) );
 8003872:	f507 7300 	add.w	r3, r7, #512	@ 0x200
 8003876:	f5a3 73c4 	sub.w	r3, r3, #392	@ 0x188
 800387a:	681b      	ldr	r3, [r3, #0]
 800387c:	fa93 f2a3 	rbit	r2, r3
 8003880:	f507 7300 	add.w	r3, r7, #512	@ 0x200
 8003884:	f5a3 73c6 	sub.w	r3, r3, #396	@ 0x18c
 8003888:	601a      	str	r2, [r3, #0]
  return result;
 800388a:	f507 7300 	add.w	r3, r7, #512	@ 0x200
 800388e:	f5a3 73c6 	sub.w	r3, r3, #396	@ 0x18c
 8003892:	681b      	ldr	r3, [r3, #0]
        while(__HAL_RCC_GET_FLAG(RCC_FLAG_PLLRDY)  != RESET)
 8003894:	fab3 f383 	clz	r3, r3
 8003898:	b2db      	uxtb	r3, r3
 800389a:	2b3f      	cmp	r3, #63	@ 0x3f
 800389c:	d804      	bhi.n	80038a8 <HAL_RCC_OscConfig+0xc70>
 800389e:	4b01      	ldr	r3, [pc, #4]	@ (80038a4 <HAL_RCC_OscConfig+0xc6c>)
 80038a0:	681b      	ldr	r3, [r3, #0]
 80038a2:	e029      	b.n	80038f8 <HAL_RCC_OscConfig+0xcc0>
 80038a4:	40021000 	.word	0x40021000
 80038a8:	f507 7300 	add.w	r3, r7, #512	@ 0x200
 80038ac:	f5a3 73c8 	sub.w	r3, r3, #400	@ 0x190
 80038b0:	f04f 7200 	mov.w	r2, #33554432	@ 0x2000000
 80038b4:	601a      	str	r2, [r3, #0]
   __ASM volatile ("rbit %0, %1" : "=r" (result) : "r" (value) );
 80038b6:	f507 7300 	add.w	r3, r7, #512	@ 0x200
 80038ba:	f5a3 73c8 	sub.w	r3, r3, #400	@ 0x190
 80038be:	681b      	ldr	r3, [r3, #0]
 80038c0:	fa93 f2a3 	rbit	r2, r3
 80038c4:	f507 7300 	add.w	r3, r7, #512	@ 0x200
 80038c8:	f5a3 73ca 	sub.w	r3, r3, #404	@ 0x194
 80038cc:	601a      	str	r2, [r3, #0]
 80038ce:	f507 7300 	add.w	r3, r7, #512	@ 0x200
 80038d2:	f5a3 73cc 	sub.w	r3, r3, #408	@ 0x198
 80038d6:	f04f 7200 	mov.w	r2, #33554432	@ 0x2000000
 80038da:	601a      	str	r2, [r3, #0]
 80038dc:	f507 7300 	add.w	r3, r7, #512	@ 0x200
 80038e0:	f5a3 73cc 	sub.w	r3, r3, #408	@ 0x198
 80038e4:	681b      	ldr	r3, [r3, #0]
 80038e6:	fa93 f2a3 	rbit	r2, r3
 80038ea:	f507 7300 	add.w	r3, r7, #512	@ 0x200
 80038ee:	f5a3 73ce 	sub.w	r3, r3, #412	@ 0x19c
 80038f2:	601a      	str	r2, [r3, #0]
 80038f4:	4bc3      	ldr	r3, [pc, #780]	@ (8003c04 <HAL_RCC_OscConfig+0xfcc>)
 80038f6:	6a5b      	ldr	r3, [r3, #36]	@ 0x24
 80038f8:	f507 7200 	add.w	r2, r7, #512	@ 0x200
 80038fc:	f5a2 72d0 	sub.w	r2, r2, #416	@ 0x1a0
 8003900:	f04f 7100 	mov.w	r1, #33554432	@ 0x2000000
 8003904:	6011      	str	r1, [r2, #0]
 8003906:	f507 7200 	add.w	r2, r7, #512	@ 0x200
 800390a:	f5a2 72d0 	sub.w	r2, r2, #416	@ 0x1a0
 800390e:	6812      	ldr	r2, [r2, #0]
 8003910:	fa92 f1a2 	rbit	r1, r2
 8003914:	f507 7200 	add.w	r2, r7, #512	@ 0x200
 8003918:	f5a2 72d2 	sub.w	r2, r2, #420	@ 0x1a4
 800391c:	6011      	str	r1, [r2, #0]
  return result;
 800391e:	f507 7200 	add.w	r2, r7, #512	@ 0x200
 8003922:	f5a2 72d2 	sub.w	r2, r2, #420	@ 0x1a4
 8003926:	6812      	ldr	r2, [r2, #0]
 8003928:	fab2 f282 	clz	r2, r2
 800392c:	b2d2      	uxtb	r2, r2
 800392e:	f042 0220 	orr.w	r2, r2, #32
 8003932:	b2d2      	uxtb	r2, r2
 8003934:	f002 021f 	and.w	r2, r2, #31
 8003938:	2101      	movs	r1, #1
 800393a:	fa01 f202 	lsl.w	r2, r1, r2
 800393e:	4013      	ands	r3, r2
 8003940:	2b00      	cmp	r3, #0
 8003942:	d185      	bne.n	8003850 <HAL_RCC_OscConfig+0xc18>
        __HAL_RCC_PLL_CONFIG(RCC_OscInitStruct->PLL.PLLSource,
                             RCC_OscInitStruct->PLL.PREDIV,
                             RCC_OscInitStruct->PLL.PLLMUL);
#else
      /* Configure the main PLL clock source and multiplication factor. */
      __HAL_RCC_PLL_CONFIG(RCC_OscInitStruct->PLL.PLLSource,
 8003944:	4baf      	ldr	r3, [pc, #700]	@ (8003c04 <HAL_RCC_OscConfig+0xfcc>)
 8003946:	685b      	ldr	r3, [r3, #4]
 8003948:	f423 1274 	bic.w	r2, r3, #3997696	@ 0x3d0000
 800394c:	f507 7300 	add.w	r3, r7, #512	@ 0x200
 8003950:	f5a3 73fe 	sub.w	r3, r3, #508	@ 0x1fc
 8003954:	681b      	ldr	r3, [r3, #0]
 8003956:	6a59      	ldr	r1, [r3, #36]	@ 0x24
 8003958:	f507 7300 	add.w	r3, r7, #512	@ 0x200
 800395c:	f5a3 73fe 	sub.w	r3, r3, #508	@ 0x1fc
 8003960:	681b      	ldr	r3, [r3, #0]
 8003962:	6a1b      	ldr	r3, [r3, #32]
 8003964:	430b      	orrs	r3, r1
 8003966:	49a7      	ldr	r1, [pc, #668]	@ (8003c04 <HAL_RCC_OscConfig+0xfcc>)
 8003968:	4313      	orrs	r3, r2
 800396a:	604b      	str	r3, [r1, #4]
 800396c:	f507 7300 	add.w	r3, r7, #512	@ 0x200
 8003970:	f5a3 73d4 	sub.w	r3, r3, #424	@ 0x1a8
 8003974:	f04f 7280 	mov.w	r2, #16777216	@ 0x1000000
 8003978:	601a      	str	r2, [r3, #0]
   __ASM volatile ("rbit %0, %1" : "=r" (result) : "r" (value) );
 800397a:	f507 7300 	add.w	r3, r7, #512	@ 0x200
 800397e:	f5a3 73d4 	sub.w	r3, r3, #424	@ 0x1a8
 8003982:	681b      	ldr	r3, [r3, #0]
 8003984:	fa93 f2a3 	rbit	r2, r3
 8003988:	f507 7300 	add.w	r3, r7, #512	@ 0x200
 800398c:	f5a3 73d6 	sub.w	r3, r3, #428	@ 0x1ac
 8003990:	601a      	str	r2, [r3, #0]
  return result;
 8003992:	f507 7300 	add.w	r3, r7, #512	@ 0x200
 8003996:	f5a3 73d6 	sub.w	r3, r3, #428	@ 0x1ac
 800399a:	681b      	ldr	r3, [r3, #0]
                           RCC_OscInitStruct->PLL.PLLMUL);
#endif /* RCC_CFGR_PLLSRC_HSI_PREDIV */
        /* Enable the main PLL. */
        __HAL_RCC_PLL_ENABLE();
 800399c:	fab3 f383 	clz	r3, r3
 80039a0:	b2db      	uxtb	r3, r3
 80039a2:	f103 5384 	add.w	r3, r3, #276824064	@ 0x10800000
 80039a6:	f503 1384 	add.w	r3, r3, #1081344	@ 0x108000
 80039aa:	009b      	lsls	r3, r3, #2
 80039ac:	461a      	mov	r2, r3
 80039ae:	2301      	movs	r3, #1
 80039b0:	6013      	str	r3, [r2, #0]
        
        /* Get Start Tick */
        tickstart = HAL_GetTick();
 80039b2:	f7fd fe17 	bl	80015e4 <HAL_GetTick>
 80039b6:	f8c7 01f8 	str.w	r0, [r7, #504]	@ 0x1f8
        
        /* Wait till PLL is ready */
        while(__HAL_RCC_GET_FLAG(RCC_FLAG_PLLRDY)  == RESET)
 80039ba:	e009      	b.n	80039d0 <HAL_RCC_OscConfig+0xd98>
        {
          if((HAL_GetTick() - tickstart ) > PLL_TIMEOUT_VALUE)
 80039bc:	f7fd fe12 	bl	80015e4 <HAL_GetTick>
 80039c0:	4602      	mov	r2, r0
 80039c2:	f8d7 31f8 	ldr.w	r3, [r7, #504]	@ 0x1f8
 80039c6:	1ad3      	subs	r3, r2, r3
 80039c8:	2b02      	cmp	r3, #2
 80039ca:	d901      	bls.n	80039d0 <HAL_RCC_OscConfig+0xd98>
          {
            return HAL_TIMEOUT;
 80039cc:	2303      	movs	r3, #3
 80039ce:	e13a      	b.n	8003c46 <HAL_RCC_OscConfig+0x100e>
 80039d0:	f507 7300 	add.w	r3, r7, #512	@ 0x200
 80039d4:	f5a3 73d8 	sub.w	r3, r3, #432	@ 0x1b0
 80039d8:	f04f 7200 	mov.w	r2, #33554432	@ 0x2000000
 80039dc:	601a      	str	r2, [r3, #0]
   __ASM volatile ("rbit %0, %1" : "=r" (result) : "r" (value) );
 80039de:	f507 7300 	add.w	r3, r7, #512	@ 0x200
 80039e2:	f5a3 73d8 	sub.w	r3, r3, #432	@ 0x1b0
 80039e6:	681b      	ldr	r3, [r3, #0]
 80039e8:	fa93 f2a3 	rbit	r2, r3
 80039ec:	f507 7300 	add.w	r3, r7, #512	@ 0x200
 80039f0:	f5a3 73da 	sub.w	r3, r3, #436	@ 0x1b4
 80039f4:	601a      	str	r2, [r3, #0]
  return result;
 80039f6:	f507 7300 	add.w	r3, r7, #512	@ 0x200
 80039fa:	f5a3 73da 	sub.w	r3, r3, #436	@ 0x1b4
 80039fe:	681b      	ldr	r3, [r3, #0]
        while(__HAL_RCC_GET_FLAG(RCC_FLAG_PLLRDY)  == RESET)
 8003a00:	fab3 f383 	clz	r3, r3
 8003a04:	b2db      	uxtb	r3, r3
 8003a06:	2b3f      	cmp	r3, #63	@ 0x3f
 8003a08:	d802      	bhi.n	8003a10 <HAL_RCC_OscConfig+0xdd8>
 8003a0a:	4b7e      	ldr	r3, [pc, #504]	@ (8003c04 <HAL_RCC_OscConfig+0xfcc>)
 8003a0c:	681b      	ldr	r3, [r3, #0]
 8003a0e:	e027      	b.n	8003a60 <HAL_RCC_OscConfig+0xe28>
 8003a10:	f507 7300 	add.w	r3, r7, #512	@ 0x200
 8003a14:	f5a3 73dc 	sub.w	r3, r3, #440	@ 0x1b8
 8003a18:	f04f 7200 	mov.w	r2, #33554432	@ 0x2000000
 8003a1c:	601a      	str	r2, [r3, #0]
   __ASM volatile ("rbit %0, %1" : "=r" (result) : "r" (value) );
 8003a1e:	f507 7300 	add.w	r3, r7, #512	@ 0x200
 8003a22:	f5a3 73dc 	sub.w	r3, r3, #440	@ 0x1b8
 8003a26:	681b      	ldr	r3, [r3, #0]
 8003a28:	fa93 f2a3 	rbit	r2, r3
 8003a2c:	f507 7300 	add.w	r3, r7, #512	@ 0x200
 8003a30:	f5a3 73de 	sub.w	r3, r3, #444	@ 0x1bc
 8003a34:	601a      	str	r2, [r3, #0]
 8003a36:	f507 7300 	add.w	r3, r7, #512	@ 0x200
 8003a3a:	f5a3 73e0 	sub.w	r3, r3, #448	@ 0x1c0
 8003a3e:	f04f 7200 	mov.w	r2, #33554432	@ 0x2000000
 8003a42:	601a      	str	r2, [r3, #0]
 8003a44:	f507 7300 	add.w	r3, r7, #512	@ 0x200
 8003a48:	f5a3 73e0 	sub.w	r3, r3, #448	@ 0x1c0
 8003a4c:	681b      	ldr	r3, [r3, #0]
 8003a4e:	fa93 f2a3 	rbit	r2, r3
 8003a52:	f507 7300 	add.w	r3, r7, #512	@ 0x200
 8003a56:	f5a3 73e2 	sub.w	r3, r3, #452	@ 0x1c4
 8003a5a:	601a      	str	r2, [r3, #0]
 8003a5c:	4b69      	ldr	r3, [pc, #420]	@ (8003c04 <HAL_RCC_OscConfig+0xfcc>)
 8003a5e:	6a5b      	ldr	r3, [r3, #36]	@ 0x24
 8003a60:	f507 7200 	add.w	r2, r7, #512	@ 0x200
 8003a64:	f5a2 72e4 	sub.w	r2, r2, #456	@ 0x1c8
 8003a68:	f04f 7100 	mov.w	r1, #33554432	@ 0x2000000
 8003a6c:	6011      	str	r1, [r2, #0]
 8003a6e:	f507 7200 	add.w	r2, r7, #512	@ 0x200
 8003a72:	f5a2 72e4 	sub.w	r2, r2, #456	@ 0x1c8
 8003a76:	6812      	ldr	r2, [r2, #0]
 8003a78:	fa92 f1a2 	rbit	r1, r2
 8003a7c:	f507 7200 	add.w	r2, r7, #512	@ 0x200
 8003a80:	f5a2 72e6 	sub.w	r2, r2, #460	@ 0x1cc
 8003a84:	6011      	str	r1, [r2, #0]
  return result;
 8003a86:	f507 7200 	add.w	r2, r7, #512	@ 0x200
 8003a8a:	f5a2 72e6 	sub.w	r2, r2, #460	@ 0x1cc
 8003a8e:	6812      	ldr	r2, [r2, #0]
 8003a90:	fab2 f282 	clz	r2, r2
 8003a94:	b2d2      	uxtb	r2, r2
 8003a96:	f042 0220 	orr.w	r2, r2, #32
 8003a9a:	b2d2      	uxtb	r2, r2
 8003a9c:	f002 021f 	and.w	r2, r2, #31
 8003aa0:	2101      	movs	r1, #1
 8003aa2:	fa01 f202 	lsl.w	r2, r1, r2
 8003aa6:	4013      	ands	r3, r2
 8003aa8:	2b00      	cmp	r3, #0
 8003aaa:	d087      	beq.n	80039bc <HAL_RCC_OscConfig+0xd84>
 8003aac:	e0ca      	b.n	8003c44 <HAL_RCC_OscConfig+0x100c>
 8003aae:	f507 7300 	add.w	r3, r7, #512	@ 0x200
 8003ab2:	f5a3 73e8 	sub.w	r3, r3, #464	@ 0x1d0
 8003ab6:	f04f 7280 	mov.w	r2, #16777216	@ 0x1000000
 8003aba:	601a      	str	r2, [r3, #0]
   __ASM volatile ("rbit %0, %1" : "=r" (result) : "r" (value) );
 8003abc:	f507 7300 	add.w	r3, r7, #512	@ 0x200
 8003ac0:	f5a3 73e8 	sub.w	r3, r3, #464	@ 0x1d0
 8003ac4:	681b      	ldr	r3, [r3, #0]
 8003ac6:	fa93 f2a3 	rbit	r2, r3
 8003aca:	f507 7300 	add.w	r3, r7, #512	@ 0x200
 8003ace:	f5a3 73ea 	sub.w	r3, r3, #468	@ 0x1d4
 8003ad2:	601a      	str	r2, [r3, #0]
  return result;
 8003ad4:	f507 7300 	add.w	r3, r7, #512	@ 0x200
 8003ad8:	f5a3 73ea 	sub.w	r3, r3, #468	@ 0x1d4
 8003adc:	681b      	ldr	r3, [r3, #0]
        }
      }
      else
      {
        /* Disable the main PLL. */
        __HAL_RCC_PLL_DISABLE();
 8003ade:	fab3 f383 	clz	r3, r3
 8003ae2:	b2db      	uxtb	r3, r3
 8003ae4:	f103 5384 	add.w	r3, r3, #276824064	@ 0x10800000
 8003ae8:	f503 1384 	add.w	r3, r3, #1081344	@ 0x108000
 8003aec:	009b      	lsls	r3, r3, #2
 8003aee:	461a      	mov	r2, r3
 8003af0:	2300      	movs	r3, #0
 8003af2:	6013      	str	r3, [r2, #0]
 
        /* Get Start Tick */
        tickstart = HAL_GetTick();
 8003af4:	f7fd fd76 	bl	80015e4 <HAL_GetTick>
 8003af8:	f8c7 01f8 	str.w	r0, [r7, #504]	@ 0x1f8
        
        /* Wait till PLL is disabled */  
        while(__HAL_RCC_GET_FLAG(RCC_FLAG_PLLRDY)  != RESET)
 8003afc:	e009      	b.n	8003b12 <HAL_RCC_OscConfig+0xeda>
        {
          if((HAL_GetTick() - tickstart ) > PLL_TIMEOUT_VALUE)
 8003afe:	f7fd fd71 	bl	80015e4 <HAL_GetTick>
 8003b02:	4602      	mov	r2, r0
 8003b04:	f8d7 31f8 	ldr.w	r3, [r7, #504]	@ 0x1f8
 8003b08:	1ad3      	subs	r3, r2, r3
 8003b0a:	2b02      	cmp	r3, #2
 8003b0c:	d901      	bls.n	8003b12 <HAL_RCC_OscConfig+0xeda>
          {
            return HAL_TIMEOUT;
 8003b0e:	2303      	movs	r3, #3
 8003b10:	e099      	b.n	8003c46 <HAL_RCC_OscConfig+0x100e>
 8003b12:	f507 7300 	add.w	r3, r7, #512	@ 0x200
 8003b16:	f5a3 73ec 	sub.w	r3, r3, #472	@ 0x1d8
 8003b1a:	f04f 7200 	mov.w	r2, #33554432	@ 0x2000000
 8003b1e:	601a      	str	r2, [r3, #0]
   __ASM volatile ("rbit %0, %1" : "=r" (result) : "r" (value) );
 8003b20:	f507 7300 	add.w	r3, r7, #512	@ 0x200
 8003b24:	f5a3 73ec 	sub.w	r3, r3, #472	@ 0x1d8
 8003b28:	681b      	ldr	r3, [r3, #0]
 8003b2a:	fa93 f2a3 	rbit	r2, r3
 8003b2e:	f507 7300 	add.w	r3, r7, #512	@ 0x200
 8003b32:	f5a3 73ee 	sub.w	r3, r3, #476	@ 0x1dc
 8003b36:	601a      	str	r2, [r3, #0]
  return result;
 8003b38:	f507 7300 	add.w	r3, r7, #512	@ 0x200
 8003b3c:	f5a3 73ee 	sub.w	r3, r3, #476	@ 0x1dc
 8003b40:	681b      	ldr	r3, [r3, #0]
        while(__HAL_RCC_GET_FLAG(RCC_FLAG_PLLRDY)  != RESET)
 8003b42:	fab3 f383 	clz	r3, r3
 8003b46:	b2db      	uxtb	r3, r3
 8003b48:	2b3f      	cmp	r3, #63	@ 0x3f
 8003b4a:	d802      	bhi.n	8003b52 <HAL_RCC_OscConfig+0xf1a>
 8003b4c:	4b2d      	ldr	r3, [pc, #180]	@ (8003c04 <HAL_RCC_OscConfig+0xfcc>)
 8003b4e:	681b      	ldr	r3, [r3, #0]
 8003b50:	e027      	b.n	8003ba2 <HAL_RCC_OscConfig+0xf6a>
 8003b52:	f507 7300 	add.w	r3, r7, #512	@ 0x200
 8003b56:	f5a3 73f0 	sub.w	r3, r3, #480	@ 0x1e0
 8003b5a:	f04f 7200 	mov.w	r2, #33554432	@ 0x2000000
 8003b5e:	601a      	str	r2, [r3, #0]
   __ASM volatile ("rbit %0, %1" : "=r" (result) : "r" (value) );
 8003b60:	f507 7300 	add.w	r3, r7, #512	@ 0x200
 8003b64:	f5a3 73f0 	sub.w	r3, r3, #480	@ 0x1e0
 8003b68:	681b      	ldr	r3, [r3, #0]
 8003b6a:	fa93 f2a3 	rbit	r2, r3
 8003b6e:	f507 7300 	add.w	r3, r7, #512	@ 0x200
 8003b72:	f5a3 73f2 	sub.w	r3, r3, #484	@ 0x1e4
 8003b76:	601a      	str	r2, [r3, #0]
 8003b78:	f507 7300 	add.w	r3, r7, #512	@ 0x200
 8003b7c:	f5a3 73f4 	sub.w	r3, r3, #488	@ 0x1e8
 8003b80:	f04f 7200 	mov.w	r2, #33554432	@ 0x2000000
 8003b84:	601a      	str	r2, [r3, #0]
 8003b86:	f507 7300 	add.w	r3, r7, #512	@ 0x200
 8003b8a:	f5a3 73f4 	sub.w	r3, r3, #488	@ 0x1e8
 8003b8e:	681b      	ldr	r3, [r3, #0]
 8003b90:	fa93 f2a3 	rbit	r2, r3
 8003b94:	f507 7300 	add.w	r3, r7, #512	@ 0x200
 8003b98:	f5a3 73f6 	sub.w	r3, r3, #492	@ 0x1ec
 8003b9c:	601a      	str	r2, [r3, #0]
 8003b9e:	4b19      	ldr	r3, [pc, #100]	@ (8003c04 <HAL_RCC_OscConfig+0xfcc>)
 8003ba0:	6a5b      	ldr	r3, [r3, #36]	@ 0x24
 8003ba2:	f507 7200 	add.w	r2, r7, #512	@ 0x200
 8003ba6:	f5a2 72f8 	sub.w	r2, r2, #496	@ 0x1f0
 8003baa:	f04f 7100 	mov.w	r1, #33554432	@ 0x2000000
 8003bae:	6011      	str	r1, [r2, #0]
 8003bb0:	f507 7200 	add.w	r2, r7, #512	@ 0x200
 8003bb4:	f5a2 72f8 	sub.w	r2, r2, #496	@ 0x1f0
 8003bb8:	6812      	ldr	r2, [r2, #0]
 8003bba:	fa92 f1a2 	rbit	r1, r2
 8003bbe:	f507 7200 	add.w	r2, r7, #512	@ 0x200
 8003bc2:	f5a2 72fa 	sub.w	r2, r2, #500	@ 0x1f4
 8003bc6:	6011      	str	r1, [r2, #0]
  return result;
 8003bc8:	f507 7200 	add.w	r2, r7, #512	@ 0x200
 8003bcc:	f5a2 72fa 	sub.w	r2, r2, #500	@ 0x1f4
 8003bd0:	6812      	ldr	r2, [r2, #0]
 8003bd2:	fab2 f282 	clz	r2, r2
 8003bd6:	b2d2      	uxtb	r2, r2
 8003bd8:	f042 0220 	orr.w	r2, r2, #32
 8003bdc:	b2d2      	uxtb	r2, r2
 8003bde:	f002 021f 	and.w	r2, r2, #31
 8003be2:	2101      	movs	r1, #1
 8003be4:	fa01 f202 	lsl.w	r2, r1, r2
 8003be8:	4013      	ands	r3, r2
 8003bea:	2b00      	cmp	r3, #0
 8003bec:	d187      	bne.n	8003afe <HAL_RCC_OscConfig+0xec6>
 8003bee:	e029      	b.n	8003c44 <HAL_RCC_OscConfig+0x100c>
      }
    }
    else
    {
      /* Check if there is a request to disable the PLL used as System clock source */
      if((RCC_OscInitStruct->PLL.PLLState) == RCC_PLL_OFF)
 8003bf0:	f507 7300 	add.w	r3, r7, #512	@ 0x200
 8003bf4:	f5a3 73fe 	sub.w	r3, r3, #508	@ 0x1fc
 8003bf8:	681b      	ldr	r3, [r3, #0]
 8003bfa:	69db      	ldr	r3, [r3, #28]
 8003bfc:	2b01      	cmp	r3, #1
 8003bfe:	d103      	bne.n	8003c08 <HAL_RCC_OscConfig+0xfd0>
      {
        return HAL_ERROR;
 8003c00:	2301      	movs	r3, #1
 8003c02:	e020      	b.n	8003c46 <HAL_RCC_OscConfig+0x100e>
 8003c04:	40021000 	.word	0x40021000
      }
      else
      {
        /* Do not return HAL_ERROR if request repeats the current configuration */
        pll_config = RCC->CFGR;
 8003c08:	4b11      	ldr	r3, [pc, #68]	@ (8003c50 <HAL_RCC_OscConfig+0x1018>)
 8003c0a:	685b      	ldr	r3, [r3, #4]
 8003c0c:	f8c7 31f4 	str.w	r3, [r7, #500]	@ 0x1f4
        pll_config2 = RCC->CFGR2;
        if((READ_BIT(pll_config, RCC_CFGR_PLLSRC)   != RCC_OscInitStruct->PLL.PLLSource) ||      
           (READ_BIT(pll_config, RCC_CFGR_PLLMUL)   != RCC_OscInitStruct->PLL.PLLMUL)    ||      
           (READ_BIT(pll_config2, RCC_CFGR2_PREDIV)  != RCC_OscInitStruct->PLL.PREDIV))     
#else
        if((READ_BIT(pll_config, RCC_CFGR_PLLSRC)   != RCC_OscInitStruct->PLL.PLLSource) ||      
 8003c10:	f8d7 31f4 	ldr.w	r3, [r7, #500]	@ 0x1f4
 8003c14:	f403 3280 	and.w	r2, r3, #65536	@ 0x10000
 8003c18:	f507 7300 	add.w	r3, r7, #512	@ 0x200
 8003c1c:	f5a3 73fe 	sub.w	r3, r3, #508	@ 0x1fc
 8003c20:	681b      	ldr	r3, [r3, #0]
 8003c22:	6a1b      	ldr	r3, [r3, #32]
 8003c24:	429a      	cmp	r2, r3
 8003c26:	d10b      	bne.n	8003c40 <HAL_RCC_OscConfig+0x1008>
           (READ_BIT(pll_config, RCC_CFGR_PLLMUL)   != RCC_OscInitStruct->PLL.PLLMUL))
 8003c28:	f8d7 31f4 	ldr.w	r3, [r7, #500]	@ 0x1f4
 8003c2c:	f403 1270 	and.w	r2, r3, #3932160	@ 0x3c0000
 8003c30:	f507 7300 	add.w	r3, r7, #512	@ 0x200
 8003c34:	f5a3 73fe 	sub.w	r3, r3, #508	@ 0x1fc
 8003c38:	681b      	ldr	r3, [r3, #0]
 8003c3a:	6a5b      	ldr	r3, [r3, #36]	@ 0x24
        if((READ_BIT(pll_config, RCC_CFGR_PLLSRC)   != RCC_OscInitStruct->PLL.PLLSource) ||      
 8003c3c:	429a      	cmp	r2, r3
 8003c3e:	d001      	beq.n	8003c44 <HAL_RCC_OscConfig+0x100c>
#endif
        {
          return HAL_ERROR;
 8003c40:	2301      	movs	r3, #1
 8003c42:	e000      	b.n	8003c46 <HAL_RCC_OscConfig+0x100e>
        }
      }
    }
  }

  return HAL_OK;
 8003c44:	2300      	movs	r3, #0
}
 8003c46:	4618      	mov	r0, r3
 8003c48:	f507 7700 	add.w	r7, r7, #512	@ 0x200
 8003c4c:	46bd      	mov	sp, r7
 8003c4e:	bd80      	pop	{r7, pc}
 8003c50:	40021000 	.word	0x40021000

08003c54 <HAL_RCC_ClockConfig>:
  *         You can use @ref HAL_RCC_GetClockConfig() function to know which clock is
  *         currently used as system clock source.
  * @retval HAL status
  */
HAL_StatusTypeDef HAL_RCC_ClockConfig(RCC_ClkInitTypeDef  *RCC_ClkInitStruct, uint32_t FLatency)
{
 8003c54:	b580      	push	{r7, lr}
 8003c56:	b09e      	sub	sp, #120	@ 0x78
 8003c58:	af00      	add	r7, sp, #0
 8003c5a:	6078      	str	r0, [r7, #4]
 8003c5c:	6039      	str	r1, [r7, #0]
  uint32_t tickstart = 0U;
 8003c5e:	2300      	movs	r3, #0
 8003c60:	677b      	str	r3, [r7, #116]	@ 0x74

  /* Check Null pointer */
  if(RCC_ClkInitStruct == NULL)
 8003c62:	687b      	ldr	r3, [r7, #4]
 8003c64:	2b00      	cmp	r3, #0
 8003c66:	d101      	bne.n	8003c6c <HAL_RCC_ClockConfig+0x18>
  {
    return HAL_ERROR;
 8003c68:	2301      	movs	r3, #1
 8003c6a:	e154      	b.n	8003f16 <HAL_RCC_ClockConfig+0x2c2>
  /* To correctly read data from FLASH memory, the number of wait states (LATENCY) 
  must be correctly programmed according to the frequency of the CPU clock 
    (HCLK) of the device. */

  /* Increasing the number of wait states because of higher CPU frequency */
  if(FLatency > __HAL_FLASH_GET_LATENCY())
 8003c6c:	4b89      	ldr	r3, [pc, #548]	@ (8003e94 <HAL_RCC_ClockConfig+0x240>)
 8003c6e:	681b      	ldr	r3, [r3, #0]
 8003c70:	f003 0307 	and.w	r3, r3, #7
 8003c74:	683a      	ldr	r2, [r7, #0]
 8003c76:	429a      	cmp	r2, r3
 8003c78:	d910      	bls.n	8003c9c <HAL_RCC_ClockConfig+0x48>
  {    
    /* Program the new number of wait states to the LATENCY bits in the FLASH_ACR register */
    __HAL_FLASH_SET_LATENCY(FLatency);
 8003c7a:	4b86      	ldr	r3, [pc, #536]	@ (8003e94 <HAL_RCC_ClockConfig+0x240>)
 8003c7c:	681b      	ldr	r3, [r3, #0]
 8003c7e:	f023 0207 	bic.w	r2, r3, #7
 8003c82:	4984      	ldr	r1, [pc, #528]	@ (8003e94 <HAL_RCC_ClockConfig+0x240>)
 8003c84:	683b      	ldr	r3, [r7, #0]
 8003c86:	4313      	orrs	r3, r2
 8003c88:	600b      	str	r3, [r1, #0]
    
    /* Check that the new number of wait states is taken into account to access the Flash
    memory by reading the FLASH_ACR register */
    if(__HAL_FLASH_GET_LATENCY() != FLatency)
 8003c8a:	4b82      	ldr	r3, [pc, #520]	@ (8003e94 <HAL_RCC_ClockConfig+0x240>)
 8003c8c:	681b      	ldr	r3, [r3, #0]
 8003c8e:	f003 0307 	and.w	r3, r3, #7
 8003c92:	683a      	ldr	r2, [r7, #0]
 8003c94:	429a      	cmp	r2, r3
 8003c96:	d001      	beq.n	8003c9c <HAL_RCC_ClockConfig+0x48>
    {
      return HAL_ERROR;
 8003c98:	2301      	movs	r3, #1
 8003c9a:	e13c      	b.n	8003f16 <HAL_RCC_ClockConfig+0x2c2>
    }
  }

  /*-------------------------- HCLK Configuration --------------------------*/
  if(((RCC_ClkInitStruct->ClockType) & RCC_CLOCKTYPE_HCLK) == RCC_CLOCKTYPE_HCLK)
 8003c9c:	687b      	ldr	r3, [r7, #4]
 8003c9e:	681b      	ldr	r3, [r3, #0]
 8003ca0:	f003 0302 	and.w	r3, r3, #2
 8003ca4:	2b00      	cmp	r3, #0
 8003ca6:	d008      	beq.n	8003cba <HAL_RCC_ClockConfig+0x66>
  {
    assert_param(IS_RCC_HCLK(RCC_ClkInitStruct->AHBCLKDivider));
    MODIFY_REG(RCC->CFGR, RCC_CFGR_HPRE, RCC_ClkInitStruct->AHBCLKDivider);
 8003ca8:	4b7b      	ldr	r3, [pc, #492]	@ (8003e98 <HAL_RCC_ClockConfig+0x244>)
 8003caa:	685b      	ldr	r3, [r3, #4]
 8003cac:	f023 02f0 	bic.w	r2, r3, #240	@ 0xf0
 8003cb0:	687b      	ldr	r3, [r7, #4]
 8003cb2:	689b      	ldr	r3, [r3, #8]
 8003cb4:	4978      	ldr	r1, [pc, #480]	@ (8003e98 <HAL_RCC_ClockConfig+0x244>)
 8003cb6:	4313      	orrs	r3, r2
 8003cb8:	604b      	str	r3, [r1, #4]
  }

  /*------------------------- SYSCLK Configuration ---------------------------*/ 
  if(((RCC_ClkInitStruct->ClockType) & RCC_CLOCKTYPE_SYSCLK) == RCC_CLOCKTYPE_SYSCLK)
 8003cba:	687b      	ldr	r3, [r7, #4]
 8003cbc:	681b      	ldr	r3, [r3, #0]
 8003cbe:	f003 0301 	and.w	r3, r3, #1
 8003cc2:	2b00      	cmp	r3, #0
 8003cc4:	f000 80cd 	beq.w	8003e62 <HAL_RCC_ClockConfig+0x20e>
  {    
    assert_param(IS_RCC_SYSCLKSOURCE(RCC_ClkInitStruct->SYSCLKSource));
    
    /* HSE is selected as System Clock Source */
    if(RCC_ClkInitStruct->SYSCLKSource == RCC_SYSCLKSOURCE_HSE)
 8003cc8:	687b      	ldr	r3, [r7, #4]
 8003cca:	685b      	ldr	r3, [r3, #4]
 8003ccc:	2b01      	cmp	r3, #1
 8003cce:	d137      	bne.n	8003d40 <HAL_RCC_ClockConfig+0xec>
 8003cd0:	f44f 3300 	mov.w	r3, #131072	@ 0x20000
 8003cd4:	66fb      	str	r3, [r7, #108]	@ 0x6c
   __ASM volatile ("rbit %0, %1" : "=r" (result) : "r" (value) );
 8003cd6:	6efb      	ldr	r3, [r7, #108]	@ 0x6c
 8003cd8:	fa93 f3a3 	rbit	r3, r3
 8003cdc:	673b      	str	r3, [r7, #112]	@ 0x70
  return result;
 8003cde:	6f3b      	ldr	r3, [r7, #112]	@ 0x70
    {
      /* Check the HSE ready flag */  
      if(__HAL_RCC_GET_FLAG(RCC_FLAG_HSERDY) == RESET)
 8003ce0:	fab3 f383 	clz	r3, r3
 8003ce4:	b2db      	uxtb	r3, r3
 8003ce6:	2b3f      	cmp	r3, #63	@ 0x3f
 8003ce8:	d802      	bhi.n	8003cf0 <HAL_RCC_ClockConfig+0x9c>
 8003cea:	4b6b      	ldr	r3, [pc, #428]	@ (8003e98 <HAL_RCC_ClockConfig+0x244>)
 8003cec:	681b      	ldr	r3, [r3, #0]
 8003cee:	e00f      	b.n	8003d10 <HAL_RCC_ClockConfig+0xbc>
 8003cf0:	f44f 3300 	mov.w	r3, #131072	@ 0x20000
 8003cf4:	66bb      	str	r3, [r7, #104]	@ 0x68
   __ASM volatile ("rbit %0, %1" : "=r" (result) : "r" (value) );
 8003cf6:	6ebb      	ldr	r3, [r7, #104]	@ 0x68
 8003cf8:	fa93 f3a3 	rbit	r3, r3
 8003cfc:	667b      	str	r3, [r7, #100]	@ 0x64
 8003cfe:	f44f 3300 	mov.w	r3, #131072	@ 0x20000
 8003d02:	663b      	str	r3, [r7, #96]	@ 0x60
 8003d04:	6e3b      	ldr	r3, [r7, #96]	@ 0x60
 8003d06:	fa93 f3a3 	rbit	r3, r3
 8003d0a:	65fb      	str	r3, [r7, #92]	@ 0x5c
 8003d0c:	4b62      	ldr	r3, [pc, #392]	@ (8003e98 <HAL_RCC_ClockConfig+0x244>)
 8003d0e:	6a5b      	ldr	r3, [r3, #36]	@ 0x24
 8003d10:	f44f 3200 	mov.w	r2, #131072	@ 0x20000
 8003d14:	65ba      	str	r2, [r7, #88]	@ 0x58
 8003d16:	6dba      	ldr	r2, [r7, #88]	@ 0x58
 8003d18:	fa92 f2a2 	rbit	r2, r2
 8003d1c:	657a      	str	r2, [r7, #84]	@ 0x54
  return result;
 8003d1e:	6d7a      	ldr	r2, [r7, #84]	@ 0x54
 8003d20:	fab2 f282 	clz	r2, r2
 8003d24:	b2d2      	uxtb	r2, r2
 8003d26:	f042 0220 	orr.w	r2, r2, #32
 8003d2a:	b2d2      	uxtb	r2, r2
 8003d2c:	f002 021f 	and.w	r2, r2, #31
 8003d30:	2101      	movs	r1, #1
 8003d32:	fa01 f202 	lsl.w	r2, r1, r2
 8003d36:	4013      	ands	r3, r2
 8003d38:	2b00      	cmp	r3, #0
 8003d3a:	d171      	bne.n	8003e20 <HAL_RCC_ClockConfig+0x1cc>
      {
        return HAL_ERROR;
 8003d3c:	2301      	movs	r3, #1
 8003d3e:	e0ea      	b.n	8003f16 <HAL_RCC_ClockConfig+0x2c2>
      }
    }
    /* PLL is selected as System Clock Source */
    else if(RCC_ClkInitStruct->SYSCLKSource == RCC_SYSCLKSOURCE_PLLCLK)
 8003d40:	687b      	ldr	r3, [r7, #4]
 8003d42:	685b      	ldr	r3, [r3, #4]
 8003d44:	2b02      	cmp	r3, #2
 8003d46:	d137      	bne.n	8003db8 <HAL_RCC_ClockConfig+0x164>
 8003d48:	f04f 7300 	mov.w	r3, #33554432	@ 0x2000000
 8003d4c:	653b      	str	r3, [r7, #80]	@ 0x50
   __ASM volatile ("rbit %0, %1" : "=r" (result) : "r" (value) );
 8003d4e:	6d3b      	ldr	r3, [r7, #80]	@ 0x50
 8003d50:	fa93 f3a3 	rbit	r3, r3
 8003d54:	64fb      	str	r3, [r7, #76]	@ 0x4c
  return result;
 8003d56:	6cfb      	ldr	r3, [r7, #76]	@ 0x4c
    {
      /* Check the PLL ready flag */  
      if(__HAL_RCC_GET_FLAG(RCC_FLAG_PLLRDY) == RESET)
 8003d58:	fab3 f383 	clz	r3, r3
 8003d5c:	b2db      	uxtb	r3, r3
 8003d5e:	2b3f      	cmp	r3, #63	@ 0x3f
 8003d60:	d802      	bhi.n	8003d68 <HAL_RCC_ClockConfig+0x114>
 8003d62:	4b4d      	ldr	r3, [pc, #308]	@ (8003e98 <HAL_RCC_ClockConfig+0x244>)
 8003d64:	681b      	ldr	r3, [r3, #0]
 8003d66:	e00f      	b.n	8003d88 <HAL_RCC_ClockConfig+0x134>
 8003d68:	f04f 7300 	mov.w	r3, #33554432	@ 0x2000000
 8003d6c:	64bb      	str	r3, [r7, #72]	@ 0x48
   __ASM volatile ("rbit %0, %1" : "=r" (result) : "r" (value) );
 8003d6e:	6cbb      	ldr	r3, [r7, #72]	@ 0x48
 8003d70:	fa93 f3a3 	rbit	r3, r3
 8003d74:	647b      	str	r3, [r7, #68]	@ 0x44
 8003d76:	f04f 7300 	mov.w	r3, #33554432	@ 0x2000000
 8003d7a:	643b      	str	r3, [r7, #64]	@ 0x40
 8003d7c:	6c3b      	ldr	r3, [r7, #64]	@ 0x40
 8003d7e:	fa93 f3a3 	rbit	r3, r3
 8003d82:	63fb      	str	r3, [r7, #60]	@ 0x3c
 8003d84:	4b44      	ldr	r3, [pc, #272]	@ (8003e98 <HAL_RCC_ClockConfig+0x244>)
 8003d86:	6a5b      	ldr	r3, [r3, #36]	@ 0x24
 8003d88:	f04f 7200 	mov.w	r2, #33554432	@ 0x2000000
 8003d8c:	63ba      	str	r2, [r7, #56]	@ 0x38
 8003d8e:	6bba      	ldr	r2, [r7, #56]	@ 0x38
 8003d90:	fa92 f2a2 	rbit	r2, r2
 8003d94:	637a      	str	r2, [r7, #52]	@ 0x34
  return result;
 8003d96:	6b7a      	ldr	r2, [r7, #52]	@ 0x34
 8003d98:	fab2 f282 	clz	r2, r2
 8003d9c:	b2d2      	uxtb	r2, r2
 8003d9e:	f042 0220 	orr.w	r2, r2, #32
 8003da2:	b2d2      	uxtb	r2, r2
 8003da4:	f002 021f 	and.w	r2, r2, #31
 8003da8:	2101      	movs	r1, #1
 8003daa:	fa01 f202 	lsl.w	r2, r1, r2
 8003dae:	4013      	ands	r3, r2
 8003db0:	2b00      	cmp	r3, #0
 8003db2:	d135      	bne.n	8003e20 <HAL_RCC_ClockConfig+0x1cc>
      {
        return HAL_ERROR;
 8003db4:	2301      	movs	r3, #1
 8003db6:	e0ae      	b.n	8003f16 <HAL_RCC_ClockConfig+0x2c2>
 8003db8:	2302      	movs	r3, #2
 8003dba:	633b      	str	r3, [r7, #48]	@ 0x30
   __ASM volatile ("rbit %0, %1" : "=r" (result) : "r" (value) );
 8003dbc:	6b3b      	ldr	r3, [r7, #48]	@ 0x30
 8003dbe:	fa93 f3a3 	rbit	r3, r3
 8003dc2:	62fb      	str	r3, [r7, #44]	@ 0x2c
  return result;
 8003dc4:	6afb      	ldr	r3, [r7, #44]	@ 0x2c
    }
    /* HSI is selected as System Clock Source */
    else
    {
      /* Check the HSI ready flag */  
      if(__HAL_RCC_GET_FLAG(RCC_FLAG_HSIRDY) == RESET)
 8003dc6:	fab3 f383 	clz	r3, r3
 8003dca:	b2db      	uxtb	r3, r3
 8003dcc:	2b3f      	cmp	r3, #63	@ 0x3f
 8003dce:	d802      	bhi.n	8003dd6 <HAL_RCC_ClockConfig+0x182>
 8003dd0:	4b31      	ldr	r3, [pc, #196]	@ (8003e98 <HAL_RCC_ClockConfig+0x244>)
 8003dd2:	681b      	ldr	r3, [r3, #0]
 8003dd4:	e00d      	b.n	8003df2 <HAL_RCC_ClockConfig+0x19e>
 8003dd6:	2302      	movs	r3, #2
 8003dd8:	62bb      	str	r3, [r7, #40]	@ 0x28
   __ASM volatile ("rbit %0, %1" : "=r" (result) : "r" (value) );
 8003dda:	6abb      	ldr	r3, [r7, #40]	@ 0x28
 8003ddc:	fa93 f3a3 	rbit	r3, r3
 8003de0:	627b      	str	r3, [r7, #36]	@ 0x24
 8003de2:	2302      	movs	r3, #2
 8003de4:	623b      	str	r3, [r7, #32]
 8003de6:	6a3b      	ldr	r3, [r7, #32]
 8003de8:	fa93 f3a3 	rbit	r3, r3
 8003dec:	61fb      	str	r3, [r7, #28]
 8003dee:	4b2a      	ldr	r3, [pc, #168]	@ (8003e98 <HAL_RCC_ClockConfig+0x244>)
 8003df0:	6a5b      	ldr	r3, [r3, #36]	@ 0x24
 8003df2:	2202      	movs	r2, #2
 8003df4:	61ba      	str	r2, [r7, #24]
 8003df6:	69ba      	ldr	r2, [r7, #24]
 8003df8:	fa92 f2a2 	rbit	r2, r2
 8003dfc:	617a      	str	r2, [r7, #20]
  return result;
 8003dfe:	697a      	ldr	r2, [r7, #20]
 8003e00:	fab2 f282 	clz	r2, r2
 8003e04:	b2d2      	uxtb	r2, r2
 8003e06:	f042 0220 	orr.w	r2, r2, #32
 8003e0a:	b2d2      	uxtb	r2, r2
 8003e0c:	f002 021f 	and.w	r2, r2, #31
 8003e10:	2101      	movs	r1, #1
 8003e12:	fa01 f202 	lsl.w	r2, r1, r2
 8003e16:	4013      	ands	r3, r2
 8003e18:	2b00      	cmp	r3, #0
 8003e1a:	d101      	bne.n	8003e20 <HAL_RCC_ClockConfig+0x1cc>
      {
        return HAL_ERROR;
 8003e1c:	2301      	movs	r3, #1
 8003e1e:	e07a      	b.n	8003f16 <HAL_RCC_ClockConfig+0x2c2>
      }
    }

    __HAL_RCC_SYSCLK_CONFIG(RCC_ClkInitStruct->SYSCLKSource);
 8003e20:	4b1d      	ldr	r3, [pc, #116]	@ (8003e98 <HAL_RCC_ClockConfig+0x244>)
 8003e22:	685b      	ldr	r3, [r3, #4]
 8003e24:	f023 0203 	bic.w	r2, r3, #3
 8003e28:	687b      	ldr	r3, [r7, #4]
 8003e2a:	685b      	ldr	r3, [r3, #4]
 8003e2c:	491a      	ldr	r1, [pc, #104]	@ (8003e98 <HAL_RCC_ClockConfig+0x244>)
 8003e2e:	4313      	orrs	r3, r2
 8003e30:	604b      	str	r3, [r1, #4]

    /* Get Start Tick */
    tickstart = HAL_GetTick();
 8003e32:	f7fd fbd7 	bl	80015e4 <HAL_GetTick>
 8003e36:	6778      	str	r0, [r7, #116]	@ 0x74
    
    while (__HAL_RCC_GET_SYSCLK_SOURCE() != (RCC_ClkInitStruct->SYSCLKSource << RCC_CFGR_SWS_Pos))
 8003e38:	e00a      	b.n	8003e50 <HAL_RCC_ClockConfig+0x1fc>
    {
      if ((HAL_GetTick() - tickstart) > CLOCKSWITCH_TIMEOUT_VALUE)
 8003e3a:	f7fd fbd3 	bl	80015e4 <HAL_GetTick>
 8003e3e:	4602      	mov	r2, r0
 8003e40:	6f7b      	ldr	r3, [r7, #116]	@ 0x74
 8003e42:	1ad3      	subs	r3, r2, r3
 8003e44:	f241 3288 	movw	r2, #5000	@ 0x1388
 8003e48:	4293      	cmp	r3, r2
 8003e4a:	d901      	bls.n	8003e50 <HAL_RCC_ClockConfig+0x1fc>
      {
        return HAL_TIMEOUT;
 8003e4c:	2303      	movs	r3, #3
 8003e4e:	e062      	b.n	8003f16 <HAL_RCC_ClockConfig+0x2c2>
    while (__HAL_RCC_GET_SYSCLK_SOURCE() != (RCC_ClkInitStruct->SYSCLKSource << RCC_CFGR_SWS_Pos))
 8003e50:	4b11      	ldr	r3, [pc, #68]	@ (8003e98 <HAL_RCC_ClockConfig+0x244>)
 8003e52:	685b      	ldr	r3, [r3, #4]
 8003e54:	f003 020c 	and.w	r2, r3, #12
 8003e58:	687b      	ldr	r3, [r7, #4]
 8003e5a:	685b      	ldr	r3, [r3, #4]
 8003e5c:	009b      	lsls	r3, r3, #2
 8003e5e:	429a      	cmp	r2, r3
 8003e60:	d1eb      	bne.n	8003e3a <HAL_RCC_ClockConfig+0x1e6>
      }
    }
  }
  /* Decreasing the number of wait states because of lower CPU frequency */
  if(FLatency < __HAL_FLASH_GET_LATENCY())
 8003e62:	4b0c      	ldr	r3, [pc, #48]	@ (8003e94 <HAL_RCC_ClockConfig+0x240>)
 8003e64:	681b      	ldr	r3, [r3, #0]
 8003e66:	f003 0307 	and.w	r3, r3, #7
 8003e6a:	683a      	ldr	r2, [r7, #0]
 8003e6c:	429a      	cmp	r2, r3
 8003e6e:	d215      	bcs.n	8003e9c <HAL_RCC_ClockConfig+0x248>
  {    
    /* Program the new number of wait states to the LATENCY bits in the FLASH_ACR register */
    __HAL_FLASH_SET_LATENCY(FLatency);
 8003e70:	4b08      	ldr	r3, [pc, #32]	@ (8003e94 <HAL_RCC_ClockConfig+0x240>)
 8003e72:	681b      	ldr	r3, [r3, #0]
 8003e74:	f023 0207 	bic.w	r2, r3, #7
 8003e78:	4906      	ldr	r1, [pc, #24]	@ (8003e94 <HAL_RCC_ClockConfig+0x240>)
 8003e7a:	683b      	ldr	r3, [r7, #0]
 8003e7c:	4313      	orrs	r3, r2
 8003e7e:	600b      	str	r3, [r1, #0]
    
    /* Check that the new number of wait states is taken into account to access the Flash
    memory by reading the FLASH_ACR register */
    if(__HAL_FLASH_GET_LATENCY() != FLatency)
 8003e80:	4b04      	ldr	r3, [pc, #16]	@ (8003e94 <HAL_RCC_ClockConfig+0x240>)
 8003e82:	681b      	ldr	r3, [r3, #0]
 8003e84:	f003 0307 	and.w	r3, r3, #7
 8003e88:	683a      	ldr	r2, [r7, #0]
 8003e8a:	429a      	cmp	r2, r3
 8003e8c:	d006      	beq.n	8003e9c <HAL_RCC_ClockConfig+0x248>
    {
      return HAL_ERROR;
 8003e8e:	2301      	movs	r3, #1
 8003e90:	e041      	b.n	8003f16 <HAL_RCC_ClockConfig+0x2c2>
 8003e92:	bf00      	nop
 8003e94:	40022000 	.word	0x40022000
 8003e98:	40021000 	.word	0x40021000
    }
  }    

  /*-------------------------- PCLK1 Configuration ---------------------------*/ 
  if(((RCC_ClkInitStruct->ClockType) & RCC_CLOCKTYPE_PCLK1) == RCC_CLOCKTYPE_PCLK1)
 8003e9c:	687b      	ldr	r3, [r7, #4]
 8003e9e:	681b      	ldr	r3, [r3, #0]
 8003ea0:	f003 0304 	and.w	r3, r3, #4
 8003ea4:	2b00      	cmp	r3, #0
 8003ea6:	d008      	beq.n	8003eba <HAL_RCC_ClockConfig+0x266>
  {
    assert_param(IS_RCC_PCLK(RCC_ClkInitStruct->APB1CLKDivider));
    MODIFY_REG(RCC->CFGR, RCC_CFGR_PPRE1, RCC_ClkInitStruct->APB1CLKDivider);
 8003ea8:	4b1d      	ldr	r3, [pc, #116]	@ (8003f20 <HAL_RCC_ClockConfig+0x2cc>)
 8003eaa:	685b      	ldr	r3, [r3, #4]
 8003eac:	f423 62e0 	bic.w	r2, r3, #1792	@ 0x700
 8003eb0:	687b      	ldr	r3, [r7, #4]
 8003eb2:	68db      	ldr	r3, [r3, #12]
 8003eb4:	491a      	ldr	r1, [pc, #104]	@ (8003f20 <HAL_RCC_ClockConfig+0x2cc>)
 8003eb6:	4313      	orrs	r3, r2
 8003eb8:	604b      	str	r3, [r1, #4]
  }
  
  /*-------------------------- PCLK2 Configuration ---------------------------*/ 
  if(((RCC_ClkInitStruct->ClockType) & RCC_CLOCKTYPE_PCLK2) == RCC_CLOCKTYPE_PCLK2)
 8003eba:	687b      	ldr	r3, [r7, #4]
 8003ebc:	681b      	ldr	r3, [r3, #0]
 8003ebe:	f003 0308 	and.w	r3, r3, #8
 8003ec2:	2b00      	cmp	r3, #0
 8003ec4:	d009      	beq.n	8003eda <HAL_RCC_ClockConfig+0x286>
  {
    assert_param(IS_RCC_PCLK(RCC_ClkInitStruct->APB2CLKDivider));
    MODIFY_REG(RCC->CFGR, RCC_CFGR_PPRE2, ((RCC_ClkInitStruct->APB2CLKDivider) << 3U));
 8003ec6:	4b16      	ldr	r3, [pc, #88]	@ (8003f20 <HAL_RCC_ClockConfig+0x2cc>)
 8003ec8:	685b      	ldr	r3, [r3, #4]
 8003eca:	f423 5260 	bic.w	r2, r3, #14336	@ 0x3800
 8003ece:	687b      	ldr	r3, [r7, #4]
 8003ed0:	691b      	ldr	r3, [r3, #16]
 8003ed2:	00db      	lsls	r3, r3, #3
 8003ed4:	4912      	ldr	r1, [pc, #72]	@ (8003f20 <HAL_RCC_ClockConfig+0x2cc>)
 8003ed6:	4313      	orrs	r3, r2
 8003ed8:	604b      	str	r3, [r1, #4]
  }
 
  /* Update the SystemCoreClock global variable */
  SystemCoreClock = HAL_RCC_GetSysClockFreq() >> AHBPrescTable[(RCC->CFGR & RCC_CFGR_HPRE)>> RCC_CFGR_HPRE_BITNUMBER];
 8003eda:	f000 f829 	bl	8003f30 <HAL_RCC_GetSysClockFreq>
 8003ede:	4601      	mov	r1, r0
 8003ee0:	4b0f      	ldr	r3, [pc, #60]	@ (8003f20 <HAL_RCC_ClockConfig+0x2cc>)
 8003ee2:	685b      	ldr	r3, [r3, #4]
 8003ee4:	f003 03f0 	and.w	r3, r3, #240	@ 0xf0
 8003ee8:	22f0      	movs	r2, #240	@ 0xf0
 8003eea:	613a      	str	r2, [r7, #16]
   __ASM volatile ("rbit %0, %1" : "=r" (result) : "r" (value) );
 8003eec:	693a      	ldr	r2, [r7, #16]
 8003eee:	fa92 f2a2 	rbit	r2, r2
 8003ef2:	60fa      	str	r2, [r7, #12]
  return result;
 8003ef4:	68fa      	ldr	r2, [r7, #12]
 8003ef6:	fab2 f282 	clz	r2, r2
 8003efa:	b2d2      	uxtb	r2, r2
 8003efc:	40d3      	lsrs	r3, r2
 8003efe:	4a09      	ldr	r2, [pc, #36]	@ (8003f24 <HAL_RCC_ClockConfig+0x2d0>)
 8003f00:	5cd3      	ldrb	r3, [r2, r3]
 8003f02:	fa21 f303 	lsr.w	r3, r1, r3
 8003f06:	4a08      	ldr	r2, [pc, #32]	@ (8003f28 <HAL_RCC_ClockConfig+0x2d4>)
 8003f08:	6013      	str	r3, [r2, #0]

  /* Configure the source of time base considering new system clocks settings*/
  HAL_InitTick (uwTickPrio);
 8003f0a:	4b08      	ldr	r3, [pc, #32]	@ (8003f2c <HAL_RCC_ClockConfig+0x2d8>)
 8003f0c:	681b      	ldr	r3, [r3, #0]
 8003f0e:	4618      	mov	r0, r3
 8003f10:	f7fd fb24 	bl	800155c <HAL_InitTick>
  
  return HAL_OK;
 8003f14:	2300      	movs	r3, #0
}
 8003f16:	4618      	mov	r0, r3
 8003f18:	3778      	adds	r7, #120	@ 0x78
 8003f1a:	46bd      	mov	sp, r7
 8003f1c:	bd80      	pop	{r7, pc}
 8003f1e:	bf00      	nop
 8003f20:	40021000 	.word	0x40021000
 8003f24:	08008ac0 	.word	0x08008ac0
 8003f28:	20000000 	.word	0x20000000
 8003f2c:	20000004 	.word	0x20000004

08003f30 <HAL_RCC_GetSysClockFreq>:
  *         right SYSCLK value. Otherwise, any configuration based on this function will be incorrect.
  *         
  * @retval SYSCLK frequency
  */
uint32_t HAL_RCC_GetSysClockFreq(void)
{
 8003f30:	b480      	push	{r7}
 8003f32:	b087      	sub	sp, #28
 8003f34:	af00      	add	r7, sp, #0
  uint32_t tmpreg = 0U, prediv = 0U, pllclk = 0U, pllmul = 0U;
 8003f36:	2300      	movs	r3, #0
 8003f38:	60fb      	str	r3, [r7, #12]
 8003f3a:	2300      	movs	r3, #0
 8003f3c:	60bb      	str	r3, [r7, #8]
 8003f3e:	2300      	movs	r3, #0
 8003f40:	617b      	str	r3, [r7, #20]
 8003f42:	2300      	movs	r3, #0
 8003f44:	607b      	str	r3, [r7, #4]
  uint32_t sysclockfreq = 0U;
 8003f46:	2300      	movs	r3, #0
 8003f48:	613b      	str	r3, [r7, #16]
  
  tmpreg = RCC->CFGR;
 8003f4a:	4b1e      	ldr	r3, [pc, #120]	@ (8003fc4 <HAL_RCC_GetSysClockFreq+0x94>)
 8003f4c:	685b      	ldr	r3, [r3, #4]
 8003f4e:	60fb      	str	r3, [r7, #12]
  
  /* Get SYSCLK source -------------------------------------------------------*/
  switch (tmpreg & RCC_CFGR_SWS)
 8003f50:	68fb      	ldr	r3, [r7, #12]
 8003f52:	f003 030c 	and.w	r3, r3, #12
 8003f56:	2b04      	cmp	r3, #4
 8003f58:	d002      	beq.n	8003f60 <HAL_RCC_GetSysClockFreq+0x30>
 8003f5a:	2b08      	cmp	r3, #8
 8003f5c:	d003      	beq.n	8003f66 <HAL_RCC_GetSysClockFreq+0x36>
 8003f5e:	e026      	b.n	8003fae <HAL_RCC_GetSysClockFreq+0x7e>
  {
    case RCC_SYSCLKSOURCE_STATUS_HSE:  /* HSE used as system clock */
    {
      sysclockfreq = HSE_VALUE;
 8003f60:	4b19      	ldr	r3, [pc, #100]	@ (8003fc8 <HAL_RCC_GetSysClockFreq+0x98>)
 8003f62:	613b      	str	r3, [r7, #16]
      break;
 8003f64:	e026      	b.n	8003fb4 <HAL_RCC_GetSysClockFreq+0x84>
    }
    case RCC_SYSCLKSOURCE_STATUS_PLLCLK:  /* PLL used as system clock */
    {
      pllmul = aPLLMULFactorTable[(uint32_t)(tmpreg & RCC_CFGR_PLLMUL) >> RCC_CFGR_PLLMUL_Pos];
 8003f66:	68fb      	ldr	r3, [r7, #12]
 8003f68:	0c9b      	lsrs	r3, r3, #18
 8003f6a:	f003 030f 	and.w	r3, r3, #15
 8003f6e:	4a17      	ldr	r2, [pc, #92]	@ (8003fcc <HAL_RCC_GetSysClockFreq+0x9c>)
 8003f70:	5cd3      	ldrb	r3, [r2, r3]
 8003f72:	607b      	str	r3, [r7, #4]
      prediv = aPredivFactorTable[(uint32_t)(RCC->CFGR2 & RCC_CFGR2_PREDIV) >> RCC_CFGR2_PREDIV_Pos];
 8003f74:	4b13      	ldr	r3, [pc, #76]	@ (8003fc4 <HAL_RCC_GetSysClockFreq+0x94>)
 8003f76:	6adb      	ldr	r3, [r3, #44]	@ 0x2c
 8003f78:	f003 030f 	and.w	r3, r3, #15
 8003f7c:	4a14      	ldr	r2, [pc, #80]	@ (8003fd0 <HAL_RCC_GetSysClockFreq+0xa0>)
 8003f7e:	5cd3      	ldrb	r3, [r2, r3]
 8003f80:	60bb      	str	r3, [r7, #8]
#if defined(RCC_CFGR_PLLSRC_HSI_DIV2)
      if ((tmpreg & RCC_CFGR_PLLSRC) != RCC_PLLSOURCE_HSI)
 8003f82:	68fb      	ldr	r3, [r7, #12]
 8003f84:	f403 3380 	and.w	r3, r3, #65536	@ 0x10000
 8003f88:	2b00      	cmp	r3, #0
 8003f8a:	d008      	beq.n	8003f9e <HAL_RCC_GetSysClockFreq+0x6e>
      {
        /* HSE used as PLL clock source : PLLCLK = HSE/PREDIV * PLLMUL */
        pllclk = (uint32_t)((uint64_t) HSE_VALUE / (uint64_t) (prediv)) * ((uint64_t) pllmul);
 8003f8c:	4a0e      	ldr	r2, [pc, #56]	@ (8003fc8 <HAL_RCC_GetSysClockFreq+0x98>)
 8003f8e:	68bb      	ldr	r3, [r7, #8]
 8003f90:	fbb2 f2f3 	udiv	r2, r2, r3
 8003f94:	687b      	ldr	r3, [r7, #4]
 8003f96:	fb02 f303 	mul.w	r3, r2, r3
 8003f9a:	617b      	str	r3, [r7, #20]
 8003f9c:	e004      	b.n	8003fa8 <HAL_RCC_GetSysClockFreq+0x78>
      }
      else
      {
        /* HSI used as PLL clock source : PLLCLK = HSI/2 * PLLMUL */
        pllclk = (uint32_t)((uint64_t) (HSI_VALUE >> 1U) * ((uint64_t) pllmul));
 8003f9e:	687b      	ldr	r3, [r7, #4]
 8003fa0:	4a0c      	ldr	r2, [pc, #48]	@ (8003fd4 <HAL_RCC_GetSysClockFreq+0xa4>)
 8003fa2:	fb02 f303 	mul.w	r3, r2, r3
 8003fa6:	617b      	str	r3, [r7, #20]
      {
        /* HSI used as PLL clock source : PLLCLK = HSI/PREDIV * PLLMUL */
        pllclk = (uint32_t)((uint64_t) HSI_VALUE / (uint64_t) (prediv)) * ((uint64_t) pllmul);
      }
#endif /* RCC_CFGR_PLLSRC_HSI_DIV2 */
      sysclockfreq = pllclk;
 8003fa8:	697b      	ldr	r3, [r7, #20]
 8003faa:	613b      	str	r3, [r7, #16]
      break;
 8003fac:	e002      	b.n	8003fb4 <HAL_RCC_GetSysClockFreq+0x84>
    }
    case RCC_SYSCLKSOURCE_STATUS_HSI:  /* HSI used as system clock source */
    default: /* HSI used as system clock */
    {
      sysclockfreq = HSI_VALUE;
 8003fae:	4b06      	ldr	r3, [pc, #24]	@ (8003fc8 <HAL_RCC_GetSysClockFreq+0x98>)
 8003fb0:	613b      	str	r3, [r7, #16]
      break;
 8003fb2:	bf00      	nop
    }
  }
  return sysclockfreq;
 8003fb4:	693b      	ldr	r3, [r7, #16]
}
 8003fb6:	4618      	mov	r0, r3
 8003fb8:	371c      	adds	r7, #28
 8003fba:	46bd      	mov	sp, r7
 8003fbc:	f85d 7b04 	ldr.w	r7, [sp], #4
 8003fc0:	4770      	bx	lr
 8003fc2:	bf00      	nop
 8003fc4:	40021000 	.word	0x40021000
 8003fc8:	007a1200 	.word	0x007a1200
 8003fcc:	08008ad8 	.word	0x08008ad8
 8003fd0:	08008ae8 	.word	0x08008ae8
 8003fd4:	003d0900 	.word	0x003d0900

08003fd8 <HAL_RCC_GetHCLKFreq>:
  * @note   The SystemCoreClock CMSIS variable is used to store System Clock Frequency 
  *         and updated within this function
  * @retval HCLK frequency
  */
uint32_t HAL_RCC_GetHCLKFreq(void)
{
 8003fd8:	b480      	push	{r7}
 8003fda:	af00      	add	r7, sp, #0
  return SystemCoreClock;
 8003fdc:	4b03      	ldr	r3, [pc, #12]	@ (8003fec <HAL_RCC_GetHCLKFreq+0x14>)
 8003fde:	681b      	ldr	r3, [r3, #0]
}
 8003fe0:	4618      	mov	r0, r3
 8003fe2:	46bd      	mov	sp, r7
 8003fe4:	f85d 7b04 	ldr.w	r7, [sp], #4
 8003fe8:	4770      	bx	lr
 8003fea:	bf00      	nop
 8003fec:	20000000 	.word	0x20000000

08003ff0 <HAL_RCC_GetPCLK1Freq>:
  * @note   Each time PCLK1 changes, this function must be called to update the
  *         right PCLK1 value. Otherwise, any configuration based on this function will be incorrect.
  * @retval PCLK1 frequency
  */
uint32_t HAL_RCC_GetPCLK1Freq(void)
{
 8003ff0:	b580      	push	{r7, lr}
 8003ff2:	b082      	sub	sp, #8
 8003ff4:	af00      	add	r7, sp, #0
  /* Get HCLK source and Compute PCLK1 frequency ---------------------------*/
  return (HAL_RCC_GetHCLKFreq() >> APBPrescTable[(RCC->CFGR & RCC_CFGR_PPRE1) >> RCC_CFGR_PPRE1_BITNUMBER]);
 8003ff6:	f7ff ffef 	bl	8003fd8 <HAL_RCC_GetHCLKFreq>
 8003ffa:	4601      	mov	r1, r0
 8003ffc:	4b0b      	ldr	r3, [pc, #44]	@ (800402c <HAL_RCC_GetPCLK1Freq+0x3c>)
 8003ffe:	685b      	ldr	r3, [r3, #4]
 8004000:	f403 63e0 	and.w	r3, r3, #1792	@ 0x700
 8004004:	f44f 62e0 	mov.w	r2, #1792	@ 0x700
 8004008:	607a      	str	r2, [r7, #4]
   __ASM volatile ("rbit %0, %1" : "=r" (result) : "r" (value) );
 800400a:	687a      	ldr	r2, [r7, #4]
 800400c:	fa92 f2a2 	rbit	r2, r2
 8004010:	603a      	str	r2, [r7, #0]
  return result;
 8004012:	683a      	ldr	r2, [r7, #0]
 8004014:	fab2 f282 	clz	r2, r2
 8004018:	b2d2      	uxtb	r2, r2
 800401a:	40d3      	lsrs	r3, r2
 800401c:	4a04      	ldr	r2, [pc, #16]	@ (8004030 <HAL_RCC_GetPCLK1Freq+0x40>)
 800401e:	5cd3      	ldrb	r3, [r2, r3]
 8004020:	fa21 f303 	lsr.w	r3, r1, r3
}    
 8004024:	4618      	mov	r0, r3
 8004026:	3708      	adds	r7, #8
 8004028:	46bd      	mov	sp, r7
 800402a:	bd80      	pop	{r7, pc}
 800402c:	40021000 	.word	0x40021000
 8004030:	08008ad0 	.word	0x08008ad0

08004034 <HAL_RCC_GetPCLK2Freq>:
  * @note   Each time PCLK2 changes, this function must be called to update the
  *         right PCLK2 value. Otherwise, any configuration based on this function will be incorrect.
  * @retval PCLK2 frequency
  */
uint32_t HAL_RCC_GetPCLK2Freq(void)
{
 8004034:	b580      	push	{r7, lr}
 8004036:	b082      	sub	sp, #8
 8004038:	af00      	add	r7, sp, #0
  /* Get HCLK source and Compute PCLK2 frequency ---------------------------*/
  return (HAL_RCC_GetHCLKFreq()>> APBPrescTable[(RCC->CFGR & RCC_CFGR_PPRE2) >> RCC_CFGR_PPRE2_BITNUMBER]);
 800403a:	f7ff ffcd 	bl	8003fd8 <HAL_RCC_GetHCLKFreq>
 800403e:	4601      	mov	r1, r0
 8004040:	4b0b      	ldr	r3, [pc, #44]	@ (8004070 <HAL_RCC_GetPCLK2Freq+0x3c>)
 8004042:	685b      	ldr	r3, [r3, #4]
 8004044:	f403 5360 	and.w	r3, r3, #14336	@ 0x3800
 8004048:	f44f 5260 	mov.w	r2, #14336	@ 0x3800
 800404c:	607a      	str	r2, [r7, #4]
   __ASM volatile ("rbit %0, %1" : "=r" (result) : "r" (value) );
 800404e:	687a      	ldr	r2, [r7, #4]
 8004050:	fa92 f2a2 	rbit	r2, r2
 8004054:	603a      	str	r2, [r7, #0]
  return result;
 8004056:	683a      	ldr	r2, [r7, #0]
 8004058:	fab2 f282 	clz	r2, r2
 800405c:	b2d2      	uxtb	r2, r2
 800405e:	40d3      	lsrs	r3, r2
 8004060:	4a04      	ldr	r2, [pc, #16]	@ (8004074 <HAL_RCC_GetPCLK2Freq+0x40>)
 8004062:	5cd3      	ldrb	r3, [r2, r3]
 8004064:	fa21 f303 	lsr.w	r3, r1, r3
} 
 8004068:	4618      	mov	r0, r3
 800406a:	3708      	adds	r7, #8
 800406c:	46bd      	mov	sp, r7
 800406e:	bd80      	pop	{r7, pc}
 8004070:	40021000 	.word	0x40021000
 8004074:	08008ad0 	.word	0x08008ad0

08004078 <HAL_RCCEx_PeriphCLKConfig>:
  *         When the TIMx clock source is PLL clock, so the TIMx clock is PLL clock x 2.
  *
  * @retval HAL status
  */
HAL_StatusTypeDef HAL_RCCEx_PeriphCLKConfig(RCC_PeriphCLKInitTypeDef  *PeriphClkInit)
{
 8004078:	b580      	push	{r7, lr}
 800407a:	b092      	sub	sp, #72	@ 0x48
 800407c:	af00      	add	r7, sp, #0
 800407e:	6078      	str	r0, [r7, #4]
  uint32_t tickstart = 0U;
 8004080:	2300      	movs	r3, #0
 8004082:	643b      	str	r3, [r7, #64]	@ 0x40
  uint32_t temp_reg = 0U;
 8004084:	2300      	movs	r3, #0
 8004086:	63fb      	str	r3, [r7, #60]	@ 0x3c
  FlagStatus       pwrclkchanged = RESET;
 8004088:	2300      	movs	r3, #0
 800408a:	f887 3047 	strb.w	r3, [r7, #71]	@ 0x47
    
  /* Check the parameters */
  assert_param(IS_RCC_PERIPHCLOCK(PeriphClkInit->PeriphClockSelection));
  
  /*---------------------------- RTC configuration -------------------------------*/
  if(((PeriphClkInit->PeriphClockSelection) & RCC_PERIPHCLK_RTC) == (RCC_PERIPHCLK_RTC))
 800408e:	687b      	ldr	r3, [r7, #4]
 8004090:	681b      	ldr	r3, [r3, #0]
 8004092:	f403 3380 	and.w	r3, r3, #65536	@ 0x10000
 8004096:	2b00      	cmp	r3, #0
 8004098:	f000 80cb 	beq.w	8004232 <HAL_RCCEx_PeriphCLKConfig+0x1ba>


    /* As soon as function is called to change RTC clock source, activation of the 
       power domain is done. */
    /* Requires to enable write access to Backup Domain of necessary */
    if(__HAL_RCC_PWR_IS_CLK_DISABLED())
 800409c:	4b8d      	ldr	r3, [pc, #564]	@ (80042d4 <HAL_RCCEx_PeriphCLKConfig+0x25c>)
 800409e:	69db      	ldr	r3, [r3, #28]
 80040a0:	f003 5380 	and.w	r3, r3, #268435456	@ 0x10000000
 80040a4:	2b00      	cmp	r3, #0
 80040a6:	d10e      	bne.n	80040c6 <HAL_RCCEx_PeriphCLKConfig+0x4e>
    {
      __HAL_RCC_PWR_CLK_ENABLE();
 80040a8:	4b8a      	ldr	r3, [pc, #552]	@ (80042d4 <HAL_RCCEx_PeriphCLKConfig+0x25c>)
 80040aa:	69db      	ldr	r3, [r3, #28]
 80040ac:	4a89      	ldr	r2, [pc, #548]	@ (80042d4 <HAL_RCCEx_PeriphCLKConfig+0x25c>)
 80040ae:	f043 5380 	orr.w	r3, r3, #268435456	@ 0x10000000
 80040b2:	61d3      	str	r3, [r2, #28]
 80040b4:	4b87      	ldr	r3, [pc, #540]	@ (80042d4 <HAL_RCCEx_PeriphCLKConfig+0x25c>)
 80040b6:	69db      	ldr	r3, [r3, #28]
 80040b8:	f003 5380 	and.w	r3, r3, #268435456	@ 0x10000000
 80040bc:	60bb      	str	r3, [r7, #8]
 80040be:	68bb      	ldr	r3, [r7, #8]
      pwrclkchanged = SET;
 80040c0:	2301      	movs	r3, #1
 80040c2:	f887 3047 	strb.w	r3, [r7, #71]	@ 0x47
    }
    
    if(HAL_IS_BIT_CLR(PWR->CR, PWR_CR_DBP))
 80040c6:	4b84      	ldr	r3, [pc, #528]	@ (80042d8 <HAL_RCCEx_PeriphCLKConfig+0x260>)
 80040c8:	681b      	ldr	r3, [r3, #0]
 80040ca:	f403 7380 	and.w	r3, r3, #256	@ 0x100
 80040ce:	2b00      	cmp	r3, #0
 80040d0:	d118      	bne.n	8004104 <HAL_RCCEx_PeriphCLKConfig+0x8c>
    {
      /* Enable write access to Backup domain */
      SET_BIT(PWR->CR, PWR_CR_DBP);
 80040d2:	4b81      	ldr	r3, [pc, #516]	@ (80042d8 <HAL_RCCEx_PeriphCLKConfig+0x260>)
 80040d4:	681b      	ldr	r3, [r3, #0]
 80040d6:	4a80      	ldr	r2, [pc, #512]	@ (80042d8 <HAL_RCCEx_PeriphCLKConfig+0x260>)
 80040d8:	f443 7380 	orr.w	r3, r3, #256	@ 0x100
 80040dc:	6013      	str	r3, [r2, #0]
      
      /* Wait for Backup domain Write protection disable */
      tickstart = HAL_GetTick();
 80040de:	f7fd fa81 	bl	80015e4 <HAL_GetTick>
 80040e2:	6438      	str	r0, [r7, #64]	@ 0x40
      
      while(HAL_IS_BIT_CLR(PWR->CR, PWR_CR_DBP))
 80040e4:	e008      	b.n	80040f8 <HAL_RCCEx_PeriphCLKConfig+0x80>
      {
          if((HAL_GetTick() - tickstart) > RCC_DBP_TIMEOUT_VALUE)
 80040e6:	f7fd fa7d 	bl	80015e4 <HAL_GetTick>
 80040ea:	4602      	mov	r2, r0
 80040ec:	6c3b      	ldr	r3, [r7, #64]	@ 0x40
 80040ee:	1ad3      	subs	r3, r2, r3
 80040f0:	2b64      	cmp	r3, #100	@ 0x64
 80040f2:	d901      	bls.n	80040f8 <HAL_RCCEx_PeriphCLKConfig+0x80>
        {
          return HAL_TIMEOUT;
 80040f4:	2303      	movs	r3, #3
 80040f6:	e0e8      	b.n	80042ca <HAL_RCCEx_PeriphCLKConfig+0x252>
      while(HAL_IS_BIT_CLR(PWR->CR, PWR_CR_DBP))
 80040f8:	4b77      	ldr	r3, [pc, #476]	@ (80042d8 <HAL_RCCEx_PeriphCLKConfig+0x260>)
 80040fa:	681b      	ldr	r3, [r3, #0]
 80040fc:	f403 7380 	and.w	r3, r3, #256	@ 0x100
 8004100:	2b00      	cmp	r3, #0
 8004102:	d0f0      	beq.n	80040e6 <HAL_RCCEx_PeriphCLKConfig+0x6e>
        }
      }
    }
    
    /* Reset the Backup domain only if the RTC Clock source selection is modified from reset value */ 
    temp_reg = (RCC->BDCR & RCC_BDCR_RTCSEL);
 8004104:	4b73      	ldr	r3, [pc, #460]	@ (80042d4 <HAL_RCCEx_PeriphCLKConfig+0x25c>)
 8004106:	6a1b      	ldr	r3, [r3, #32]
 8004108:	f403 7340 	and.w	r3, r3, #768	@ 0x300
 800410c:	63fb      	str	r3, [r7, #60]	@ 0x3c
    if((temp_reg != 0x00000000U) && (temp_reg != (PeriphClkInit->RTCClockSelection & RCC_BDCR_RTCSEL)))
 800410e:	6bfb      	ldr	r3, [r7, #60]	@ 0x3c
 8004110:	2b00      	cmp	r3, #0
 8004112:	d07b      	beq.n	800420c <HAL_RCCEx_PeriphCLKConfig+0x194>
 8004114:	687b      	ldr	r3, [r7, #4]
 8004116:	685b      	ldr	r3, [r3, #4]
 8004118:	f403 7340 	and.w	r3, r3, #768	@ 0x300
 800411c:	6bfa      	ldr	r2, [r7, #60]	@ 0x3c
 800411e:	429a      	cmp	r2, r3
 8004120:	d074      	beq.n	800420c <HAL_RCCEx_PeriphCLKConfig+0x194>
    {
      /* Store the content of BDCR register before the reset of Backup Domain */
      temp_reg = (RCC->BDCR & ~(RCC_BDCR_RTCSEL));
 8004122:	4b6c      	ldr	r3, [pc, #432]	@ (80042d4 <HAL_RCCEx_PeriphCLKConfig+0x25c>)
 8004124:	6a1b      	ldr	r3, [r3, #32]
 8004126:	f423 7340 	bic.w	r3, r3, #768	@ 0x300
 800412a:	63fb      	str	r3, [r7, #60]	@ 0x3c
 800412c:	f44f 3380 	mov.w	r3, #65536	@ 0x10000
 8004130:	633b      	str	r3, [r7, #48]	@ 0x30
   __ASM volatile ("rbit %0, %1" : "=r" (result) : "r" (value) );
 8004132:	6b3b      	ldr	r3, [r7, #48]	@ 0x30
 8004134:	fa93 f3a3 	rbit	r3, r3
 8004138:	62fb      	str	r3, [r7, #44]	@ 0x2c
  return result;
 800413a:	6afb      	ldr	r3, [r7, #44]	@ 0x2c
      /* RTC Clock selection can be changed only if the Backup Domain is reset */
      __HAL_RCC_BACKUPRESET_FORCE();
 800413c:	fab3 f383 	clz	r3, r3
 8004140:	b2db      	uxtb	r3, r3
 8004142:	461a      	mov	r2, r3
 8004144:	4b65      	ldr	r3, [pc, #404]	@ (80042dc <HAL_RCCEx_PeriphCLKConfig+0x264>)
 8004146:	4413      	add	r3, r2
 8004148:	009b      	lsls	r3, r3, #2
 800414a:	461a      	mov	r2, r3
 800414c:	2301      	movs	r3, #1
 800414e:	6013      	str	r3, [r2, #0]
 8004150:	f44f 3380 	mov.w	r3, #65536	@ 0x10000
 8004154:	63bb      	str	r3, [r7, #56]	@ 0x38
   __ASM volatile ("rbit %0, %1" : "=r" (result) : "r" (value) );
 8004156:	6bbb      	ldr	r3, [r7, #56]	@ 0x38
 8004158:	fa93 f3a3 	rbit	r3, r3
 800415c:	637b      	str	r3, [r7, #52]	@ 0x34
  return result;
 800415e:	6b7b      	ldr	r3, [r7, #52]	@ 0x34
      __HAL_RCC_BACKUPRESET_RELEASE();
 8004160:	fab3 f383 	clz	r3, r3
 8004164:	b2db      	uxtb	r3, r3
 8004166:	461a      	mov	r2, r3
 8004168:	4b5c      	ldr	r3, [pc, #368]	@ (80042dc <HAL_RCCEx_PeriphCLKConfig+0x264>)
 800416a:	4413      	add	r3, r2
 800416c:	009b      	lsls	r3, r3, #2
 800416e:	461a      	mov	r2, r3
 8004170:	2300      	movs	r3, #0
 8004172:	6013      	str	r3, [r2, #0]
      /* Restore the Content of BDCR register */
      RCC->BDCR = temp_reg;
 8004174:	4a57      	ldr	r2, [pc, #348]	@ (80042d4 <HAL_RCCEx_PeriphCLKConfig+0x25c>)
 8004176:	6bfb      	ldr	r3, [r7, #60]	@ 0x3c
 8004178:	6213      	str	r3, [r2, #32]
    
      /* Wait for LSERDY if LSE was enabled */
      if (HAL_IS_BIT_SET(temp_reg, RCC_BDCR_LSEON))
 800417a:	6bfb      	ldr	r3, [r7, #60]	@ 0x3c
 800417c:	f003 0301 	and.w	r3, r3, #1
 8004180:	2b00      	cmp	r3, #0
 8004182:	d043      	beq.n	800420c <HAL_RCCEx_PeriphCLKConfig+0x194>
      {
        /* Get Start Tick */
        tickstart = HAL_GetTick();
 8004184:	f7fd fa2e 	bl	80015e4 <HAL_GetTick>
 8004188:	6438      	str	r0, [r7, #64]	@ 0x40
        
        /* Wait till LSE is ready */  
        while(__HAL_RCC_GET_FLAG(RCC_FLAG_LSERDY) == RESET)
 800418a:	e00a      	b.n	80041a2 <HAL_RCCEx_PeriphCLKConfig+0x12a>
        {
            if((HAL_GetTick() - tickstart) > RCC_LSE_TIMEOUT_VALUE)
 800418c:	f7fd fa2a 	bl	80015e4 <HAL_GetTick>
 8004190:	4602      	mov	r2, r0
 8004192:	6c3b      	ldr	r3, [r7, #64]	@ 0x40
 8004194:	1ad3      	subs	r3, r2, r3
 8004196:	f241 3288 	movw	r2, #5000	@ 0x1388
 800419a:	4293      	cmp	r3, r2
 800419c:	d901      	bls.n	80041a2 <HAL_RCCEx_PeriphCLKConfig+0x12a>
          {
            return HAL_TIMEOUT;
 800419e:	2303      	movs	r3, #3
 80041a0:	e093      	b.n	80042ca <HAL_RCCEx_PeriphCLKConfig+0x252>
 80041a2:	2302      	movs	r3, #2
 80041a4:	62bb      	str	r3, [r7, #40]	@ 0x28
   __ASM volatile ("rbit %0, %1" : "=r" (result) : "r" (value) );
 80041a6:	6abb      	ldr	r3, [r7, #40]	@ 0x28
 80041a8:	fa93 f3a3 	rbit	r3, r3
 80041ac:	627b      	str	r3, [r7, #36]	@ 0x24
 80041ae:	2302      	movs	r3, #2
 80041b0:	623b      	str	r3, [r7, #32]
 80041b2:	6a3b      	ldr	r3, [r7, #32]
 80041b4:	fa93 f3a3 	rbit	r3, r3
 80041b8:	61fb      	str	r3, [r7, #28]
  return result;
 80041ba:	69fb      	ldr	r3, [r7, #28]
        while(__HAL_RCC_GET_FLAG(RCC_FLAG_LSERDY) == RESET)
 80041bc:	fab3 f383 	clz	r3, r3
 80041c0:	b2db      	uxtb	r3, r3
 80041c2:	f023 035f 	bic.w	r3, r3, #95	@ 0x5f
 80041c6:	b2db      	uxtb	r3, r3
 80041c8:	2b00      	cmp	r3, #0
 80041ca:	d102      	bne.n	80041d2 <HAL_RCCEx_PeriphCLKConfig+0x15a>
 80041cc:	4b41      	ldr	r3, [pc, #260]	@ (80042d4 <HAL_RCCEx_PeriphCLKConfig+0x25c>)
 80041ce:	6a1b      	ldr	r3, [r3, #32]
 80041d0:	e007      	b.n	80041e2 <HAL_RCCEx_PeriphCLKConfig+0x16a>
 80041d2:	2302      	movs	r3, #2
 80041d4:	61bb      	str	r3, [r7, #24]
   __ASM volatile ("rbit %0, %1" : "=r" (result) : "r" (value) );
 80041d6:	69bb      	ldr	r3, [r7, #24]
 80041d8:	fa93 f3a3 	rbit	r3, r3
 80041dc:	617b      	str	r3, [r7, #20]
 80041de:	4b3d      	ldr	r3, [pc, #244]	@ (80042d4 <HAL_RCCEx_PeriphCLKConfig+0x25c>)
 80041e0:	6a5b      	ldr	r3, [r3, #36]	@ 0x24
 80041e2:	2202      	movs	r2, #2
 80041e4:	613a      	str	r2, [r7, #16]
 80041e6:	693a      	ldr	r2, [r7, #16]
 80041e8:	fa92 f2a2 	rbit	r2, r2
 80041ec:	60fa      	str	r2, [r7, #12]
  return result;
 80041ee:	68fa      	ldr	r2, [r7, #12]
 80041f0:	fab2 f282 	clz	r2, r2
 80041f4:	b2d2      	uxtb	r2, r2
 80041f6:	f042 0240 	orr.w	r2, r2, #64	@ 0x40
 80041fa:	b2d2      	uxtb	r2, r2
 80041fc:	f002 021f 	and.w	r2, r2, #31
 8004200:	2101      	movs	r1, #1
 8004202:	fa01 f202 	lsl.w	r2, r1, r2
 8004206:	4013      	ands	r3, r2
 8004208:	2b00      	cmp	r3, #0
 800420a:	d0bf      	beq.n	800418c <HAL_RCCEx_PeriphCLKConfig+0x114>
          }      
        }  
      }
    }
    __HAL_RCC_RTC_CONFIG(PeriphClkInit->RTCClockSelection); 
 800420c:	4b31      	ldr	r3, [pc, #196]	@ (80042d4 <HAL_RCCEx_PeriphCLKConfig+0x25c>)
 800420e:	6a1b      	ldr	r3, [r3, #32]
 8004210:	f423 7240 	bic.w	r2, r3, #768	@ 0x300
 8004214:	687b      	ldr	r3, [r7, #4]
 8004216:	685b      	ldr	r3, [r3, #4]
 8004218:	492e      	ldr	r1, [pc, #184]	@ (80042d4 <HAL_RCCEx_PeriphCLKConfig+0x25c>)
 800421a:	4313      	orrs	r3, r2
 800421c:	620b      	str	r3, [r1, #32]

    /* Require to disable power clock if necessary */
    if(pwrclkchanged == SET)
 800421e:	f897 3047 	ldrb.w	r3, [r7, #71]	@ 0x47
 8004222:	2b01      	cmp	r3, #1
 8004224:	d105      	bne.n	8004232 <HAL_RCCEx_PeriphCLKConfig+0x1ba>
    {
      __HAL_RCC_PWR_CLK_DISABLE();
 8004226:	4b2b      	ldr	r3, [pc, #172]	@ (80042d4 <HAL_RCCEx_PeriphCLKConfig+0x25c>)
 8004228:	69db      	ldr	r3, [r3, #28]
 800422a:	4a2a      	ldr	r2, [pc, #168]	@ (80042d4 <HAL_RCCEx_PeriphCLKConfig+0x25c>)
 800422c:	f023 5380 	bic.w	r3, r3, #268435456	@ 0x10000000
 8004230:	61d3      	str	r3, [r2, #28]
    }
  }

  /*------------------------------- USART1 Configuration ------------------------*/
  if(((PeriphClkInit->PeriphClockSelection) & RCC_PERIPHCLK_USART1) == RCC_PERIPHCLK_USART1)
 8004232:	687b      	ldr	r3, [r7, #4]
 8004234:	681b      	ldr	r3, [r3, #0]
 8004236:	f003 0301 	and.w	r3, r3, #1
 800423a:	2b00      	cmp	r3, #0
 800423c:	d008      	beq.n	8004250 <HAL_RCCEx_PeriphCLKConfig+0x1d8>
  {
    /* Check the parameters */
    assert_param(IS_RCC_USART1CLKSOURCE(PeriphClkInit->Usart1ClockSelection));
    
    /* Configure the USART1 clock source */
    __HAL_RCC_USART1_CONFIG(PeriphClkInit->Usart1ClockSelection);
 800423e:	4b25      	ldr	r3, [pc, #148]	@ (80042d4 <HAL_RCCEx_PeriphCLKConfig+0x25c>)
 8004240:	6b1b      	ldr	r3, [r3, #48]	@ 0x30
 8004242:	f023 0203 	bic.w	r2, r3, #3
 8004246:	687b      	ldr	r3, [r7, #4]
 8004248:	689b      	ldr	r3, [r3, #8]
 800424a:	4922      	ldr	r1, [pc, #136]	@ (80042d4 <HAL_RCCEx_PeriphCLKConfig+0x25c>)
 800424c:	4313      	orrs	r3, r2
 800424e:	630b      	str	r3, [r1, #48]	@ 0x30
    __HAL_RCC_USART3_CONFIG(PeriphClkInit->Usart3ClockSelection);
  }
#endif /* RCC_CFGR3_USART3SW */

  /*------------------------------ I2C1 Configuration ------------------------*/ 
  if(((PeriphClkInit->PeriphClockSelection) & RCC_PERIPHCLK_I2C1) == RCC_PERIPHCLK_I2C1)
 8004250:	687b      	ldr	r3, [r7, #4]
 8004252:	681b      	ldr	r3, [r3, #0]
 8004254:	f003 0320 	and.w	r3, r3, #32
 8004258:	2b00      	cmp	r3, #0
 800425a:	d008      	beq.n	800426e <HAL_RCCEx_PeriphCLKConfig+0x1f6>
  {
    /* Check the parameters */
    assert_param(IS_RCC_I2C1CLKSOURCE(PeriphClkInit->I2c1ClockSelection));
    
    /* Configure the I2C1 clock source */
    __HAL_RCC_I2C1_CONFIG(PeriphClkInit->I2c1ClockSelection);
 800425c:	4b1d      	ldr	r3, [pc, #116]	@ (80042d4 <HAL_RCCEx_PeriphCLKConfig+0x25c>)
 800425e:	6b1b      	ldr	r3, [r3, #48]	@ 0x30
 8004260:	f023 0210 	bic.w	r2, r3, #16
 8004264:	687b      	ldr	r3, [r7, #4]
 8004266:	68db      	ldr	r3, [r3, #12]
 8004268:	491a      	ldr	r1, [pc, #104]	@ (80042d4 <HAL_RCCEx_PeriphCLKConfig+0x25c>)
 800426a:	4313      	orrs	r3, r2
 800426c:	630b      	str	r3, [r1, #48]	@ 0x30
#if defined(STM32F302xE) || defined(STM32F303xE) || defined(STM32F398xx)\
 || defined(STM32F302xC) || defined(STM32F303xC) || defined(STM32F358xx)\
 || defined(STM32F303x8) || defined(STM32F334x8) || defined(STM32F328xx)
      
  /*------------------------------ ADC1 & ADC2 clock Configuration -------------*/ 
  if(((PeriphClkInit->PeriphClockSelection) & RCC_PERIPHCLK_ADC12) == RCC_PERIPHCLK_ADC12)
 800426e:	687b      	ldr	r3, [r7, #4]
 8004270:	681b      	ldr	r3, [r3, #0]
 8004272:	f003 0380 	and.w	r3, r3, #128	@ 0x80
 8004276:	2b00      	cmp	r3, #0
 8004278:	d008      	beq.n	800428c <HAL_RCCEx_PeriphCLKConfig+0x214>
  {
    /* Check the parameters */
    assert_param(IS_RCC_ADC12PLLCLK_DIV(PeriphClkInit->Adc12ClockSelection));
    
    /* Configure the ADC12 clock source */
    __HAL_RCC_ADC12_CONFIG(PeriphClkInit->Adc12ClockSelection);
 800427a:	4b16      	ldr	r3, [pc, #88]	@ (80042d4 <HAL_RCCEx_PeriphCLKConfig+0x25c>)
 800427c:	6adb      	ldr	r3, [r3, #44]	@ 0x2c
 800427e:	f423 72f8 	bic.w	r2, r3, #496	@ 0x1f0
 8004282:	687b      	ldr	r3, [r7, #4]
 8004284:	691b      	ldr	r3, [r3, #16]
 8004286:	4913      	ldr	r1, [pc, #76]	@ (80042d4 <HAL_RCCEx_PeriphCLKConfig+0x25c>)
 8004288:	4313      	orrs	r3, r2
 800428a:	62cb      	str	r3, [r1, #44]	@ 0x2c
 || defined(STM32F302xC) || defined(STM32F303xC) || defined(STM32F358xx)\
 || defined(STM32F303x8) || defined(STM32F334x8) || defined(STM32F328xx)\
 || defined(STM32F301x8) || defined(STM32F302x8) || defined(STM32F318xx)

  /*------------------------------ TIM1 clock Configuration ----------------*/ 
  if(((PeriphClkInit->PeriphClockSelection) & RCC_PERIPHCLK_TIM1) == RCC_PERIPHCLK_TIM1)
 800428c:	687b      	ldr	r3, [r7, #4]
 800428e:	681b      	ldr	r3, [r3, #0]
 8004290:	f403 5380 	and.w	r3, r3, #4096	@ 0x1000
 8004294:	2b00      	cmp	r3, #0
 8004296:	d008      	beq.n	80042aa <HAL_RCCEx_PeriphCLKConfig+0x232>
  {
    /* Check the parameters */
    assert_param(IS_RCC_TIM1CLKSOURCE(PeriphClkInit->Tim1ClockSelection));
    
    /* Configure the TIM1 clock source */
    __HAL_RCC_TIM1_CONFIG(PeriphClkInit->Tim1ClockSelection);
 8004298:	4b0e      	ldr	r3, [pc, #56]	@ (80042d4 <HAL_RCCEx_PeriphCLKConfig+0x25c>)
 800429a:	6b1b      	ldr	r3, [r3, #48]	@ 0x30
 800429c:	f423 7280 	bic.w	r2, r3, #256	@ 0x100
 80042a0:	687b      	ldr	r3, [r7, #4]
 80042a2:	695b      	ldr	r3, [r3, #20]
 80042a4:	490b      	ldr	r1, [pc, #44]	@ (80042d4 <HAL_RCCEx_PeriphCLKConfig+0x25c>)
 80042a6:	4313      	orrs	r3, r2
 80042a8:	630b      	str	r3, [r1, #48]	@ 0x30
#endif /* STM32F301x8 || STM32F302x8 || STM32F318xx */

#if defined(STM32F334x8)

  /*------------------------------ HRTIM1 clock Configuration ----------------*/ 
  if(((PeriphClkInit->PeriphClockSelection) & RCC_PERIPHCLK_HRTIM1) == RCC_PERIPHCLK_HRTIM1)
 80042aa:	687b      	ldr	r3, [r7, #4]
 80042ac:	681b      	ldr	r3, [r3, #0]
 80042ae:	f403 4380 	and.w	r3, r3, #16384	@ 0x4000
 80042b2:	2b00      	cmp	r3, #0
 80042b4:	d008      	beq.n	80042c8 <HAL_RCCEx_PeriphCLKConfig+0x250>
  {
    /* Check the parameters */
    assert_param(IS_RCC_HRTIM1CLKSOURCE(PeriphClkInit->Hrtim1ClockSelection));
    
    /* Configure the HRTIM1 clock source */
    __HAL_RCC_HRTIM1_CONFIG(PeriphClkInit->Hrtim1ClockSelection);
 80042b6:	4b07      	ldr	r3, [pc, #28]	@ (80042d4 <HAL_RCCEx_PeriphCLKConfig+0x25c>)
 80042b8:	6b1b      	ldr	r3, [r3, #48]	@ 0x30
 80042ba:	f423 5280 	bic.w	r2, r3, #4096	@ 0x1000
 80042be:	687b      	ldr	r3, [r7, #4]
 80042c0:	699b      	ldr	r3, [r3, #24]
 80042c2:	4904      	ldr	r1, [pc, #16]	@ (80042d4 <HAL_RCCEx_PeriphCLKConfig+0x25c>)
 80042c4:	4313      	orrs	r3, r2
 80042c6:	630b      	str	r3, [r1, #48]	@ 0x30
    __HAL_RCC_TIM20_CONFIG(PeriphClkInit->Tim20ClockSelection);
  }
#endif /* STM32F303xE || STM32F398xx */  

  
  return HAL_OK;
 80042c8:	2300      	movs	r3, #0
}
 80042ca:	4618      	mov	r0, r3
 80042cc:	3748      	adds	r7, #72	@ 0x48
 80042ce:	46bd      	mov	sp, r7
 80042d0:	bd80      	pop	{r7, pc}
 80042d2:	bf00      	nop
 80042d4:	40021000 	.word	0x40021000
 80042d8:	40007000 	.word	0x40007000
 80042dc:	10908100 	.word	0x10908100

080042e0 <HAL_TIM_Base_Init>:
  *         Ex: call @ref HAL_TIM_Base_DeInit() before HAL_TIM_Base_Init()
  * @param  htim TIM Base handle
  * @retval HAL status
  */
HAL_StatusTypeDef HAL_TIM_Base_Init(TIM_HandleTypeDef *htim)
{
 80042e0:	b580      	push	{r7, lr}
 80042e2:	b082      	sub	sp, #8
 80042e4:	af00      	add	r7, sp, #0
 80042e6:	6078      	str	r0, [r7, #4]
  /* Check the TIM handle allocation */
  if (htim == NULL)
 80042e8:	687b      	ldr	r3, [r7, #4]
 80042ea:	2b00      	cmp	r3, #0
 80042ec:	d101      	bne.n	80042f2 <HAL_TIM_Base_Init+0x12>
  {
    return HAL_ERROR;
 80042ee:	2301      	movs	r3, #1
 80042f0:	e049      	b.n	8004386 <HAL_TIM_Base_Init+0xa6>
  assert_param(IS_TIM_COUNTER_MODE(htim->Init.CounterMode));
  assert_param(IS_TIM_CLOCKDIVISION_DIV(htim->Init.ClockDivision));
  assert_param(IS_TIM_PERIOD(htim, htim->Init.Period));
  assert_param(IS_TIM_AUTORELOAD_PRELOAD(htim->Init.AutoReloadPreload));

  if (htim->State == HAL_TIM_STATE_RESET)
 80042f2:	687b      	ldr	r3, [r7, #4]
 80042f4:	f893 303d 	ldrb.w	r3, [r3, #61]	@ 0x3d
 80042f8:	b2db      	uxtb	r3, r3
 80042fa:	2b00      	cmp	r3, #0
 80042fc:	d106      	bne.n	800430c <HAL_TIM_Base_Init+0x2c>
  {
    /* Allocate lock resource and initialize it */
    htim->Lock = HAL_UNLOCKED;
 80042fe:	687b      	ldr	r3, [r7, #4]
 8004300:	2200      	movs	r2, #0
 8004302:	f883 203c 	strb.w	r2, [r3, #60]	@ 0x3c
    }
    /* Init the low level hardware : GPIO, CLOCK, NVIC */
    htim->Base_MspInitCallback(htim);
#else
    /* Init the low level hardware : GPIO, CLOCK, NVIC */
    HAL_TIM_Base_MspInit(htim);
 8004306:	6878      	ldr	r0, [r7, #4]
 8004308:	f7fc ff34 	bl	8001174 <HAL_TIM_Base_MspInit>
#endif /* USE_HAL_TIM_REGISTER_CALLBACKS */
  }

  /* Set the TIM state */
  htim->State = HAL_TIM_STATE_BUSY;
 800430c:	687b      	ldr	r3, [r7, #4]
 800430e:	2202      	movs	r2, #2
 8004310:	f883 203d 	strb.w	r2, [r3, #61]	@ 0x3d

  /* Set the Time Base configuration */
  TIM_Base_SetConfig(htim->Instance, &htim->Init);
 8004314:	687b      	ldr	r3, [r7, #4]
 8004316:	681a      	ldr	r2, [r3, #0]
 8004318:	687b      	ldr	r3, [r7, #4]
 800431a:	3304      	adds	r3, #4
 800431c:	4619      	mov	r1, r3
 800431e:	4610      	mov	r0, r2
 8004320:	f000 fc8a 	bl	8004c38 <TIM_Base_SetConfig>

  /* Initialize the DMA burst operation state */
  htim->DMABurstState = HAL_DMA_BURST_STATE_READY;
 8004324:	687b      	ldr	r3, [r7, #4]
 8004326:	2201      	movs	r2, #1
 8004328:	f883 2048 	strb.w	r2, [r3, #72]	@ 0x48

  /* Initialize the TIM channels state */
  TIM_CHANNEL_STATE_SET_ALL(htim, HAL_TIM_CHANNEL_STATE_READY);
 800432c:	687b      	ldr	r3, [r7, #4]
 800432e:	2201      	movs	r2, #1
 8004330:	f883 203e 	strb.w	r2, [r3, #62]	@ 0x3e
 8004334:	687b      	ldr	r3, [r7, #4]
 8004336:	2201      	movs	r2, #1
 8004338:	f883 203f 	strb.w	r2, [r3, #63]	@ 0x3f
 800433c:	687b      	ldr	r3, [r7, #4]
 800433e:	2201      	movs	r2, #1
 8004340:	f883 2040 	strb.w	r2, [r3, #64]	@ 0x40
 8004344:	687b      	ldr	r3, [r7, #4]
 8004346:	2201      	movs	r2, #1
 8004348:	f883 2041 	strb.w	r2, [r3, #65]	@ 0x41
 800434c:	687b      	ldr	r3, [r7, #4]
 800434e:	2201      	movs	r2, #1
 8004350:	f883 2042 	strb.w	r2, [r3, #66]	@ 0x42
 8004354:	687b      	ldr	r3, [r7, #4]
 8004356:	2201      	movs	r2, #1
 8004358:	f883 2043 	strb.w	r2, [r3, #67]	@ 0x43
  TIM_CHANNEL_N_STATE_SET_ALL(htim, HAL_TIM_CHANNEL_STATE_READY);
 800435c:	687b      	ldr	r3, [r7, #4]
 800435e:	2201      	movs	r2, #1
 8004360:	f883 2044 	strb.w	r2, [r3, #68]	@ 0x44
 8004364:	687b      	ldr	r3, [r7, #4]
 8004366:	2201      	movs	r2, #1
 8004368:	f883 2045 	strb.w	r2, [r3, #69]	@ 0x45
 800436c:	687b      	ldr	r3, [r7, #4]
 800436e:	2201      	movs	r2, #1
 8004370:	f883 2046 	strb.w	r2, [r3, #70]	@ 0x46
 8004374:	687b      	ldr	r3, [r7, #4]
 8004376:	2201      	movs	r2, #1
 8004378:	f883 2047 	strb.w	r2, [r3, #71]	@ 0x47

  /* Initialize the TIM state*/
  htim->State = HAL_TIM_STATE_READY;
 800437c:	687b      	ldr	r3, [r7, #4]
 800437e:	2201      	movs	r2, #1
 8004380:	f883 203d 	strb.w	r2, [r3, #61]	@ 0x3d

  return HAL_OK;
 8004384:	2300      	movs	r3, #0
}
 8004386:	4618      	mov	r0, r3
 8004388:	3708      	adds	r7, #8
 800438a:	46bd      	mov	sp, r7
 800438c:	bd80      	pop	{r7, pc}

0800438e <HAL_TIM_PWM_Init>:
  *         Ex: call @ref HAL_TIM_PWM_DeInit() before HAL_TIM_PWM_Init()
  * @param  htim TIM PWM handle
  * @retval HAL status
  */
HAL_StatusTypeDef HAL_TIM_PWM_Init(TIM_HandleTypeDef *htim)
{
 800438e:	b580      	push	{r7, lr}
 8004390:	b082      	sub	sp, #8
 8004392:	af00      	add	r7, sp, #0
 8004394:	6078      	str	r0, [r7, #4]
  /* Check the TIM handle allocation */
  if (htim == NULL)
 8004396:	687b      	ldr	r3, [r7, #4]
 8004398:	2b00      	cmp	r3, #0
 800439a:	d101      	bne.n	80043a0 <HAL_TIM_PWM_Init+0x12>
  {
    return HAL_ERROR;
 800439c:	2301      	movs	r3, #1
 800439e:	e049      	b.n	8004434 <HAL_TIM_PWM_Init+0xa6>
  assert_param(IS_TIM_COUNTER_MODE(htim->Init.CounterMode));
  assert_param(IS_TIM_CLOCKDIVISION_DIV(htim->Init.ClockDivision));
  assert_param(IS_TIM_PERIOD(htim, htim->Init.Period));
  assert_param(IS_TIM_AUTORELOAD_PRELOAD(htim->Init.AutoReloadPreload));

  if (htim->State == HAL_TIM_STATE_RESET)
 80043a0:	687b      	ldr	r3, [r7, #4]
 80043a2:	f893 303d 	ldrb.w	r3, [r3, #61]	@ 0x3d
 80043a6:	b2db      	uxtb	r3, r3
 80043a8:	2b00      	cmp	r3, #0
 80043aa:	d106      	bne.n	80043ba <HAL_TIM_PWM_Init+0x2c>
  {
    /* Allocate lock resource and initialize it */
    htim->Lock = HAL_UNLOCKED;
 80043ac:	687b      	ldr	r3, [r7, #4]
 80043ae:	2200      	movs	r2, #0
 80043b0:	f883 203c 	strb.w	r2, [r3, #60]	@ 0x3c
    }
    /* Init the low level hardware : GPIO, CLOCK, NVIC */
    htim->PWM_MspInitCallback(htim);
#else
    /* Init the low level hardware : GPIO, CLOCK, NVIC and DMA */
    HAL_TIM_PWM_MspInit(htim);
 80043b4:	6878      	ldr	r0, [r7, #4]
 80043b6:	f000 f841 	bl	800443c <HAL_TIM_PWM_MspInit>
#endif /* USE_HAL_TIM_REGISTER_CALLBACKS */
  }

  /* Set the TIM state */
  htim->State = HAL_TIM_STATE_BUSY;
 80043ba:	687b      	ldr	r3, [r7, #4]
 80043bc:	2202      	movs	r2, #2
 80043be:	f883 203d 	strb.w	r2, [r3, #61]	@ 0x3d

  /* Init the base time for the PWM */
  TIM_Base_SetConfig(htim->Instance, &htim->Init);
 80043c2:	687b      	ldr	r3, [r7, #4]
 80043c4:	681a      	ldr	r2, [r3, #0]
 80043c6:	687b      	ldr	r3, [r7, #4]
 80043c8:	3304      	adds	r3, #4
 80043ca:	4619      	mov	r1, r3
 80043cc:	4610      	mov	r0, r2
 80043ce:	f000 fc33 	bl	8004c38 <TIM_Base_SetConfig>

  /* Initialize the DMA burst operation state */
  htim->DMABurstState = HAL_DMA_BURST_STATE_READY;
 80043d2:	687b      	ldr	r3, [r7, #4]
 80043d4:	2201      	movs	r2, #1
 80043d6:	f883 2048 	strb.w	r2, [r3, #72]	@ 0x48

  /* Initialize the TIM channels state */
  TIM_CHANNEL_STATE_SET_ALL(htim, HAL_TIM_CHANNEL_STATE_READY);
 80043da:	687b      	ldr	r3, [r7, #4]
 80043dc:	2201      	movs	r2, #1
 80043de:	f883 203e 	strb.w	r2, [r3, #62]	@ 0x3e
 80043e2:	687b      	ldr	r3, [r7, #4]
 80043e4:	2201      	movs	r2, #1
 80043e6:	f883 203f 	strb.w	r2, [r3, #63]	@ 0x3f
 80043ea:	687b      	ldr	r3, [r7, #4]
 80043ec:	2201      	movs	r2, #1
 80043ee:	f883 2040 	strb.w	r2, [r3, #64]	@ 0x40
 80043f2:	687b      	ldr	r3, [r7, #4]
 80043f4:	2201      	movs	r2, #1
 80043f6:	f883 2041 	strb.w	r2, [r3, #65]	@ 0x41
 80043fa:	687b      	ldr	r3, [r7, #4]
 80043fc:	2201      	movs	r2, #1
 80043fe:	f883 2042 	strb.w	r2, [r3, #66]	@ 0x42
 8004402:	687b      	ldr	r3, [r7, #4]
 8004404:	2201      	movs	r2, #1
 8004406:	f883 2043 	strb.w	r2, [r3, #67]	@ 0x43
  TIM_CHANNEL_N_STATE_SET_ALL(htim, HAL_TIM_CHANNEL_STATE_READY);
 800440a:	687b      	ldr	r3, [r7, #4]
 800440c:	2201      	movs	r2, #1
 800440e:	f883 2044 	strb.w	r2, [r3, #68]	@ 0x44
 8004412:	687b      	ldr	r3, [r7, #4]
 8004414:	2201      	movs	r2, #1
 8004416:	f883 2045 	strb.w	r2, [r3, #69]	@ 0x45
 800441a:	687b      	ldr	r3, [r7, #4]
 800441c:	2201      	movs	r2, #1
 800441e:	f883 2046 	strb.w	r2, [r3, #70]	@ 0x46
 8004422:	687b      	ldr	r3, [r7, #4]
 8004424:	2201      	movs	r2, #1
 8004426:	f883 2047 	strb.w	r2, [r3, #71]	@ 0x47

  /* Initialize the TIM state*/
  htim->State = HAL_TIM_STATE_READY;
 800442a:	687b      	ldr	r3, [r7, #4]
 800442c:	2201      	movs	r2, #1
 800442e:	f883 203d 	strb.w	r2, [r3, #61]	@ 0x3d

  return HAL_OK;
 8004432:	2300      	movs	r3, #0
}
 8004434:	4618      	mov	r0, r3
 8004436:	3708      	adds	r7, #8
 8004438:	46bd      	mov	sp, r7
 800443a:	bd80      	pop	{r7, pc}

0800443c <HAL_TIM_PWM_MspInit>:
  * @brief  Initializes the TIM PWM MSP.
  * @param  htim TIM PWM handle
  * @retval None
  */
__weak void HAL_TIM_PWM_MspInit(TIM_HandleTypeDef *htim)
{
 800443c:	b480      	push	{r7}
 800443e:	b083      	sub	sp, #12
 8004440:	af00      	add	r7, sp, #0
 8004442:	6078      	str	r0, [r7, #4]
  UNUSED(htim);

  /* NOTE : This function should not be modified, when the callback is needed,
            the HAL_TIM_PWM_MspInit could be implemented in the user file
   */
}
 8004444:	bf00      	nop
 8004446:	370c      	adds	r7, #12
 8004448:	46bd      	mov	sp, r7
 800444a:	f85d 7b04 	ldr.w	r7, [sp], #4
 800444e:	4770      	bx	lr

08004450 <HAL_TIM_PWM_Start>:
  *            @arg TIM_CHANNEL_6: TIM Channel 6 selected (*)
  *         (*) Value not defined for all devices
  * @retval HAL status
  */
HAL_StatusTypeDef HAL_TIM_PWM_Start(TIM_HandleTypeDef *htim, uint32_t Channel)
{
 8004450:	b580      	push	{r7, lr}
 8004452:	b084      	sub	sp, #16
 8004454:	af00      	add	r7, sp, #0
 8004456:	6078      	str	r0, [r7, #4]
 8004458:	6039      	str	r1, [r7, #0]

  /* Check the parameters */
  assert_param(IS_TIM_CCX_INSTANCE(htim->Instance, Channel));

  /* Check the TIM channel state */
  if (TIM_CHANNEL_STATE_GET(htim, Channel) != HAL_TIM_CHANNEL_STATE_READY)
 800445a:	683b      	ldr	r3, [r7, #0]
 800445c:	2b00      	cmp	r3, #0
 800445e:	d109      	bne.n	8004474 <HAL_TIM_PWM_Start+0x24>
 8004460:	687b      	ldr	r3, [r7, #4]
 8004462:	f893 303e 	ldrb.w	r3, [r3, #62]	@ 0x3e
 8004466:	b2db      	uxtb	r3, r3
 8004468:	2b01      	cmp	r3, #1
 800446a:	bf14      	ite	ne
 800446c:	2301      	movne	r3, #1
 800446e:	2300      	moveq	r3, #0
 8004470:	b2db      	uxtb	r3, r3
 8004472:	e03c      	b.n	80044ee <HAL_TIM_PWM_Start+0x9e>
 8004474:	683b      	ldr	r3, [r7, #0]
 8004476:	2b04      	cmp	r3, #4
 8004478:	d109      	bne.n	800448e <HAL_TIM_PWM_Start+0x3e>
 800447a:	687b      	ldr	r3, [r7, #4]
 800447c:	f893 303f 	ldrb.w	r3, [r3, #63]	@ 0x3f
 8004480:	b2db      	uxtb	r3, r3
 8004482:	2b01      	cmp	r3, #1
 8004484:	bf14      	ite	ne
 8004486:	2301      	movne	r3, #1
 8004488:	2300      	moveq	r3, #0
 800448a:	b2db      	uxtb	r3, r3
 800448c:	e02f      	b.n	80044ee <HAL_TIM_PWM_Start+0x9e>
 800448e:	683b      	ldr	r3, [r7, #0]
 8004490:	2b08      	cmp	r3, #8
 8004492:	d109      	bne.n	80044a8 <HAL_TIM_PWM_Start+0x58>
 8004494:	687b      	ldr	r3, [r7, #4]
 8004496:	f893 3040 	ldrb.w	r3, [r3, #64]	@ 0x40
 800449a:	b2db      	uxtb	r3, r3
 800449c:	2b01      	cmp	r3, #1
 800449e:	bf14      	ite	ne
 80044a0:	2301      	movne	r3, #1
 80044a2:	2300      	moveq	r3, #0
 80044a4:	b2db      	uxtb	r3, r3
 80044a6:	e022      	b.n	80044ee <HAL_TIM_PWM_Start+0x9e>
 80044a8:	683b      	ldr	r3, [r7, #0]
 80044aa:	2b0c      	cmp	r3, #12
 80044ac:	d109      	bne.n	80044c2 <HAL_TIM_PWM_Start+0x72>
 80044ae:	687b      	ldr	r3, [r7, #4]
 80044b0:	f893 3041 	ldrb.w	r3, [r3, #65]	@ 0x41
 80044b4:	b2db      	uxtb	r3, r3
 80044b6:	2b01      	cmp	r3, #1
 80044b8:	bf14      	ite	ne
 80044ba:	2301      	movne	r3, #1
 80044bc:	2300      	moveq	r3, #0
 80044be:	b2db      	uxtb	r3, r3
 80044c0:	e015      	b.n	80044ee <HAL_TIM_PWM_Start+0x9e>
 80044c2:	683b      	ldr	r3, [r7, #0]
 80044c4:	2b10      	cmp	r3, #16
 80044c6:	d109      	bne.n	80044dc <HAL_TIM_PWM_Start+0x8c>
 80044c8:	687b      	ldr	r3, [r7, #4]
 80044ca:	f893 3042 	ldrb.w	r3, [r3, #66]	@ 0x42
 80044ce:	b2db      	uxtb	r3, r3
 80044d0:	2b01      	cmp	r3, #1
 80044d2:	bf14      	ite	ne
 80044d4:	2301      	movne	r3, #1
 80044d6:	2300      	moveq	r3, #0
 80044d8:	b2db      	uxtb	r3, r3
 80044da:	e008      	b.n	80044ee <HAL_TIM_PWM_Start+0x9e>
 80044dc:	687b      	ldr	r3, [r7, #4]
 80044de:	f893 3043 	ldrb.w	r3, [r3, #67]	@ 0x43
 80044e2:	b2db      	uxtb	r3, r3
 80044e4:	2b01      	cmp	r3, #1
 80044e6:	bf14      	ite	ne
 80044e8:	2301      	movne	r3, #1
 80044ea:	2300      	moveq	r3, #0
 80044ec:	b2db      	uxtb	r3, r3
 80044ee:	2b00      	cmp	r3, #0
 80044f0:	d001      	beq.n	80044f6 <HAL_TIM_PWM_Start+0xa6>
  {
    return HAL_ERROR;
 80044f2:	2301      	movs	r3, #1
 80044f4:	e088      	b.n	8004608 <HAL_TIM_PWM_Start+0x1b8>
  }

  /* Set the TIM channel state */
  TIM_CHANNEL_STATE_SET(htim, Channel, HAL_TIM_CHANNEL_STATE_BUSY);
 80044f6:	683b      	ldr	r3, [r7, #0]
 80044f8:	2b00      	cmp	r3, #0
 80044fa:	d104      	bne.n	8004506 <HAL_TIM_PWM_Start+0xb6>
 80044fc:	687b      	ldr	r3, [r7, #4]
 80044fe:	2202      	movs	r2, #2
 8004500:	f883 203e 	strb.w	r2, [r3, #62]	@ 0x3e
 8004504:	e023      	b.n	800454e <HAL_TIM_PWM_Start+0xfe>
 8004506:	683b      	ldr	r3, [r7, #0]
 8004508:	2b04      	cmp	r3, #4
 800450a:	d104      	bne.n	8004516 <HAL_TIM_PWM_Start+0xc6>
 800450c:	687b      	ldr	r3, [r7, #4]
 800450e:	2202      	movs	r2, #2
 8004510:	f883 203f 	strb.w	r2, [r3, #63]	@ 0x3f
 8004514:	e01b      	b.n	800454e <HAL_TIM_PWM_Start+0xfe>
 8004516:	683b      	ldr	r3, [r7, #0]
 8004518:	2b08      	cmp	r3, #8
 800451a:	d104      	bne.n	8004526 <HAL_TIM_PWM_Start+0xd6>
 800451c:	687b      	ldr	r3, [r7, #4]
 800451e:	2202      	movs	r2, #2
 8004520:	f883 2040 	strb.w	r2, [r3, #64]	@ 0x40
 8004524:	e013      	b.n	800454e <HAL_TIM_PWM_Start+0xfe>
 8004526:	683b      	ldr	r3, [r7, #0]
 8004528:	2b0c      	cmp	r3, #12
 800452a:	d104      	bne.n	8004536 <HAL_TIM_PWM_Start+0xe6>
 800452c:	687b      	ldr	r3, [r7, #4]
 800452e:	2202      	movs	r2, #2
 8004530:	f883 2041 	strb.w	r2, [r3, #65]	@ 0x41
 8004534:	e00b      	b.n	800454e <HAL_TIM_PWM_Start+0xfe>
 8004536:	683b      	ldr	r3, [r7, #0]
 8004538:	2b10      	cmp	r3, #16
 800453a:	d104      	bne.n	8004546 <HAL_TIM_PWM_Start+0xf6>
 800453c:	687b      	ldr	r3, [r7, #4]
 800453e:	2202      	movs	r2, #2
 8004540:	f883 2042 	strb.w	r2, [r3, #66]	@ 0x42
 8004544:	e003      	b.n	800454e <HAL_TIM_PWM_Start+0xfe>
 8004546:	687b      	ldr	r3, [r7, #4]
 8004548:	2202      	movs	r2, #2
 800454a:	f883 2043 	strb.w	r2, [r3, #67]	@ 0x43

  /* Enable the Capture compare channel */
  TIM_CCxChannelCmd(htim->Instance, Channel, TIM_CCx_ENABLE);
 800454e:	687b      	ldr	r3, [r7, #4]
 8004550:	681b      	ldr	r3, [r3, #0]
 8004552:	2201      	movs	r2, #1
 8004554:	6839      	ldr	r1, [r7, #0]
 8004556:	4618      	mov	r0, r3
 8004558:	f000 ff32 	bl	80053c0 <TIM_CCxChannelCmd>

  if (IS_TIM_BREAK_INSTANCE(htim->Instance) != RESET)
 800455c:	687b      	ldr	r3, [r7, #4]
 800455e:	681b      	ldr	r3, [r3, #0]
 8004560:	4a2b      	ldr	r2, [pc, #172]	@ (8004610 <HAL_TIM_PWM_Start+0x1c0>)
 8004562:	4293      	cmp	r3, r2
 8004564:	d00e      	beq.n	8004584 <HAL_TIM_PWM_Start+0x134>
 8004566:	687b      	ldr	r3, [r7, #4]
 8004568:	681b      	ldr	r3, [r3, #0]
 800456a:	4a2a      	ldr	r2, [pc, #168]	@ (8004614 <HAL_TIM_PWM_Start+0x1c4>)
 800456c:	4293      	cmp	r3, r2
 800456e:	d009      	beq.n	8004584 <HAL_TIM_PWM_Start+0x134>
 8004570:	687b      	ldr	r3, [r7, #4]
 8004572:	681b      	ldr	r3, [r3, #0]
 8004574:	4a28      	ldr	r2, [pc, #160]	@ (8004618 <HAL_TIM_PWM_Start+0x1c8>)
 8004576:	4293      	cmp	r3, r2
 8004578:	d004      	beq.n	8004584 <HAL_TIM_PWM_Start+0x134>
 800457a:	687b      	ldr	r3, [r7, #4]
 800457c:	681b      	ldr	r3, [r3, #0]
 800457e:	4a27      	ldr	r2, [pc, #156]	@ (800461c <HAL_TIM_PWM_Start+0x1cc>)
 8004580:	4293      	cmp	r3, r2
 8004582:	d101      	bne.n	8004588 <HAL_TIM_PWM_Start+0x138>
 8004584:	2301      	movs	r3, #1
 8004586:	e000      	b.n	800458a <HAL_TIM_PWM_Start+0x13a>
 8004588:	2300      	movs	r3, #0
 800458a:	2b00      	cmp	r3, #0
 800458c:	d007      	beq.n	800459e <HAL_TIM_PWM_Start+0x14e>
  {
    /* Enable the main output */
    __HAL_TIM_MOE_ENABLE(htim);
 800458e:	687b      	ldr	r3, [r7, #4]
 8004590:	681b      	ldr	r3, [r3, #0]
 8004592:	6c5a      	ldr	r2, [r3, #68]	@ 0x44
 8004594:	687b      	ldr	r3, [r7, #4]
 8004596:	681b      	ldr	r3, [r3, #0]
 8004598:	f442 4200 	orr.w	r2, r2, #32768	@ 0x8000
 800459c:	645a      	str	r2, [r3, #68]	@ 0x44
  }

  /* Enable the Peripheral, except in trigger mode where enable is automatically done with trigger */
  if (IS_TIM_SLAVE_INSTANCE(htim->Instance))
 800459e:	687b      	ldr	r3, [r7, #4]
 80045a0:	681b      	ldr	r3, [r3, #0]
 80045a2:	4a1b      	ldr	r2, [pc, #108]	@ (8004610 <HAL_TIM_PWM_Start+0x1c0>)
 80045a4:	4293      	cmp	r3, r2
 80045a6:	d00e      	beq.n	80045c6 <HAL_TIM_PWM_Start+0x176>
 80045a8:	687b      	ldr	r3, [r7, #4]
 80045aa:	681b      	ldr	r3, [r3, #0]
 80045ac:	f1b3 4f80 	cmp.w	r3, #1073741824	@ 0x40000000
 80045b0:	d009      	beq.n	80045c6 <HAL_TIM_PWM_Start+0x176>
 80045b2:	687b      	ldr	r3, [r7, #4]
 80045b4:	681b      	ldr	r3, [r3, #0]
 80045b6:	4a1a      	ldr	r2, [pc, #104]	@ (8004620 <HAL_TIM_PWM_Start+0x1d0>)
 80045b8:	4293      	cmp	r3, r2
 80045ba:	d004      	beq.n	80045c6 <HAL_TIM_PWM_Start+0x176>
 80045bc:	687b      	ldr	r3, [r7, #4]
 80045be:	681b      	ldr	r3, [r3, #0]
 80045c0:	4a14      	ldr	r2, [pc, #80]	@ (8004614 <HAL_TIM_PWM_Start+0x1c4>)
 80045c2:	4293      	cmp	r3, r2
 80045c4:	d115      	bne.n	80045f2 <HAL_TIM_PWM_Start+0x1a2>
  {
    tmpsmcr = htim->Instance->SMCR & TIM_SMCR_SMS;
 80045c6:	687b      	ldr	r3, [r7, #4]
 80045c8:	681b      	ldr	r3, [r3, #0]
 80045ca:	689a      	ldr	r2, [r3, #8]
 80045cc:	4b15      	ldr	r3, [pc, #84]	@ (8004624 <HAL_TIM_PWM_Start+0x1d4>)
 80045ce:	4013      	ands	r3, r2
 80045d0:	60fb      	str	r3, [r7, #12]
    if (!IS_TIM_SLAVEMODE_TRIGGER_ENABLED(tmpsmcr))
 80045d2:	68fb      	ldr	r3, [r7, #12]
 80045d4:	2b06      	cmp	r3, #6
 80045d6:	d015      	beq.n	8004604 <HAL_TIM_PWM_Start+0x1b4>
 80045d8:	68fb      	ldr	r3, [r7, #12]
 80045da:	f5b3 3f80 	cmp.w	r3, #65536	@ 0x10000
 80045de:	d011      	beq.n	8004604 <HAL_TIM_PWM_Start+0x1b4>
    {
      __HAL_TIM_ENABLE(htim);
 80045e0:	687b      	ldr	r3, [r7, #4]
 80045e2:	681b      	ldr	r3, [r3, #0]
 80045e4:	681a      	ldr	r2, [r3, #0]
 80045e6:	687b      	ldr	r3, [r7, #4]
 80045e8:	681b      	ldr	r3, [r3, #0]
 80045ea:	f042 0201 	orr.w	r2, r2, #1
 80045ee:	601a      	str	r2, [r3, #0]
    if (!IS_TIM_SLAVEMODE_TRIGGER_ENABLED(tmpsmcr))
 80045f0:	e008      	b.n	8004604 <HAL_TIM_PWM_Start+0x1b4>
    }
  }
  else
  {
    __HAL_TIM_ENABLE(htim);
 80045f2:	687b      	ldr	r3, [r7, #4]
 80045f4:	681b      	ldr	r3, [r3, #0]
 80045f6:	681a      	ldr	r2, [r3, #0]
 80045f8:	687b      	ldr	r3, [r7, #4]
 80045fa:	681b      	ldr	r3, [r3, #0]
 80045fc:	f042 0201 	orr.w	r2, r2, #1
 8004600:	601a      	str	r2, [r3, #0]
 8004602:	e000      	b.n	8004606 <HAL_TIM_PWM_Start+0x1b6>
    if (!IS_TIM_SLAVEMODE_TRIGGER_ENABLED(tmpsmcr))
 8004604:	bf00      	nop
  }

  /* Return function status */
  return HAL_OK;
 8004606:	2300      	movs	r3, #0
}
 8004608:	4618      	mov	r0, r3
 800460a:	3710      	adds	r7, #16
 800460c:	46bd      	mov	sp, r7
 800460e:	bd80      	pop	{r7, pc}
 8004610:	40012c00 	.word	0x40012c00
 8004614:	40014000 	.word	0x40014000
 8004618:	40014400 	.word	0x40014400
 800461c:	40014800 	.word	0x40014800
 8004620:	40000400 	.word	0x40000400
 8004624:	00010007 	.word	0x00010007

08004628 <HAL_TIM_IRQHandler>:
  * @brief  This function handles TIM interrupts requests.
  * @param  htim TIM  handle
  * @retval None
  */
void HAL_TIM_IRQHandler(TIM_HandleTypeDef *htim)
{
 8004628:	b580      	push	{r7, lr}
 800462a:	b084      	sub	sp, #16
 800462c:	af00      	add	r7, sp, #0
 800462e:	6078      	str	r0, [r7, #4]
  uint32_t itsource = htim->Instance->DIER;
 8004630:	687b      	ldr	r3, [r7, #4]
 8004632:	681b      	ldr	r3, [r3, #0]
 8004634:	68db      	ldr	r3, [r3, #12]
 8004636:	60fb      	str	r3, [r7, #12]
  uint32_t itflag   = htim->Instance->SR;
 8004638:	687b      	ldr	r3, [r7, #4]
 800463a:	681b      	ldr	r3, [r3, #0]
 800463c:	691b      	ldr	r3, [r3, #16]
 800463e:	60bb      	str	r3, [r7, #8]

  /* Capture compare 1 event */
  if ((itflag & (TIM_FLAG_CC1)) == (TIM_FLAG_CC1))
 8004640:	68bb      	ldr	r3, [r7, #8]
 8004642:	f003 0302 	and.w	r3, r3, #2
 8004646:	2b00      	cmp	r3, #0
 8004648:	d020      	beq.n	800468c <HAL_TIM_IRQHandler+0x64>
  {
    if ((itsource & (TIM_IT_CC1)) == (TIM_IT_CC1))
 800464a:	68fb      	ldr	r3, [r7, #12]
 800464c:	f003 0302 	and.w	r3, r3, #2
 8004650:	2b00      	cmp	r3, #0
 8004652:	d01b      	beq.n	800468c <HAL_TIM_IRQHandler+0x64>
    {
      {
        __HAL_TIM_CLEAR_FLAG(htim, TIM_FLAG_CC1);
 8004654:	687b      	ldr	r3, [r7, #4]
 8004656:	681b      	ldr	r3, [r3, #0]
 8004658:	f06f 0202 	mvn.w	r2, #2
 800465c:	611a      	str	r2, [r3, #16]
        htim->Channel = HAL_TIM_ACTIVE_CHANNEL_1;
 800465e:	687b      	ldr	r3, [r7, #4]
 8004660:	2201      	movs	r2, #1
 8004662:	771a      	strb	r2, [r3, #28]

        /* Input capture event */
        if ((htim->Instance->CCMR1 & TIM_CCMR1_CC1S) != 0x00U)
 8004664:	687b      	ldr	r3, [r7, #4]
 8004666:	681b      	ldr	r3, [r3, #0]
 8004668:	699b      	ldr	r3, [r3, #24]
 800466a:	f003 0303 	and.w	r3, r3, #3
 800466e:	2b00      	cmp	r3, #0
 8004670:	d003      	beq.n	800467a <HAL_TIM_IRQHandler+0x52>
        {
#if (USE_HAL_TIM_REGISTER_CALLBACKS == 1)
          htim->IC_CaptureCallback(htim);
#else
          HAL_TIM_IC_CaptureCallback(htim);
 8004672:	6878      	ldr	r0, [r7, #4]
 8004674:	f000 fac1 	bl	8004bfa <HAL_TIM_IC_CaptureCallback>
 8004678:	e005      	b.n	8004686 <HAL_TIM_IRQHandler+0x5e>
        {
#if (USE_HAL_TIM_REGISTER_CALLBACKS == 1)
          htim->OC_DelayElapsedCallback(htim);
          htim->PWM_PulseFinishedCallback(htim);
#else
          HAL_TIM_OC_DelayElapsedCallback(htim);
 800467a:	6878      	ldr	r0, [r7, #4]
 800467c:	f000 fab3 	bl	8004be6 <HAL_TIM_OC_DelayElapsedCallback>
          HAL_TIM_PWM_PulseFinishedCallback(htim);
 8004680:	6878      	ldr	r0, [r7, #4]
 8004682:	f000 fac4 	bl	8004c0e <HAL_TIM_PWM_PulseFinishedCallback>
#endif /* USE_HAL_TIM_REGISTER_CALLBACKS */
        }
        htim->Channel = HAL_TIM_ACTIVE_CHANNEL_CLEARED;
 8004686:	687b      	ldr	r3, [r7, #4]
 8004688:	2200      	movs	r2, #0
 800468a:	771a      	strb	r2, [r3, #28]
      }
    }
  }
  /* Capture compare 2 event */
  if ((itflag & (TIM_FLAG_CC2)) == (TIM_FLAG_CC2))
 800468c:	68bb      	ldr	r3, [r7, #8]
 800468e:	f003 0304 	and.w	r3, r3, #4
 8004692:	2b00      	cmp	r3, #0
 8004694:	d020      	beq.n	80046d8 <HAL_TIM_IRQHandler+0xb0>
  {
    if ((itsource & (TIM_IT_CC2)) == (TIM_IT_CC2))
 8004696:	68fb      	ldr	r3, [r7, #12]
 8004698:	f003 0304 	and.w	r3, r3, #4
 800469c:	2b00      	cmp	r3, #0
 800469e:	d01b      	beq.n	80046d8 <HAL_TIM_IRQHandler+0xb0>
    {
      __HAL_TIM_CLEAR_FLAG(htim, TIM_FLAG_CC2);
 80046a0:	687b      	ldr	r3, [r7, #4]
 80046a2:	681b      	ldr	r3, [r3, #0]
 80046a4:	f06f 0204 	mvn.w	r2, #4
 80046a8:	611a      	str	r2, [r3, #16]
      htim->Channel = HAL_TIM_ACTIVE_CHANNEL_2;
 80046aa:	687b      	ldr	r3, [r7, #4]
 80046ac:	2202      	movs	r2, #2
 80046ae:	771a      	strb	r2, [r3, #28]
      /* Input capture event */
      if ((htim->Instance->CCMR1 & TIM_CCMR1_CC2S) != 0x00U)
 80046b0:	687b      	ldr	r3, [r7, #4]
 80046b2:	681b      	ldr	r3, [r3, #0]
 80046b4:	699b      	ldr	r3, [r3, #24]
 80046b6:	f403 7340 	and.w	r3, r3, #768	@ 0x300
 80046ba:	2b00      	cmp	r3, #0
 80046bc:	d003      	beq.n	80046c6 <HAL_TIM_IRQHandler+0x9e>
      {
#if (USE_HAL_TIM_REGISTER_CALLBACKS == 1)
        htim->IC_CaptureCallback(htim);
#else
        HAL_TIM_IC_CaptureCallback(htim);
 80046be:	6878      	ldr	r0, [r7, #4]
 80046c0:	f000 fa9b 	bl	8004bfa <HAL_TIM_IC_CaptureCallback>
 80046c4:	e005      	b.n	80046d2 <HAL_TIM_IRQHandler+0xaa>
      {
#if (USE_HAL_TIM_REGISTER_CALLBACKS == 1)
        htim->OC_DelayElapsedCallback(htim);
        htim->PWM_PulseFinishedCallback(htim);
#else
        HAL_TIM_OC_DelayElapsedCallback(htim);
 80046c6:	6878      	ldr	r0, [r7, #4]
 80046c8:	f000 fa8d 	bl	8004be6 <HAL_TIM_OC_DelayElapsedCallback>
        HAL_TIM_PWM_PulseFinishedCallback(htim);
 80046cc:	6878      	ldr	r0, [r7, #4]
 80046ce:	f000 fa9e 	bl	8004c0e <HAL_TIM_PWM_PulseFinishedCallback>
#endif /* USE_HAL_TIM_REGISTER_CALLBACKS */
      }
      htim->Channel = HAL_TIM_ACTIVE_CHANNEL_CLEARED;
 80046d2:	687b      	ldr	r3, [r7, #4]
 80046d4:	2200      	movs	r2, #0
 80046d6:	771a      	strb	r2, [r3, #28]
    }
  }
  /* Capture compare 3 event */
  if ((itflag & (TIM_FLAG_CC3)) == (TIM_FLAG_CC3))
 80046d8:	68bb      	ldr	r3, [r7, #8]
 80046da:	f003 0308 	and.w	r3, r3, #8
 80046de:	2b00      	cmp	r3, #0
 80046e0:	d020      	beq.n	8004724 <HAL_TIM_IRQHandler+0xfc>
  {
    if ((itsource & (TIM_IT_CC3)) == (TIM_IT_CC3))
 80046e2:	68fb      	ldr	r3, [r7, #12]
 80046e4:	f003 0308 	and.w	r3, r3, #8
 80046e8:	2b00      	cmp	r3, #0
 80046ea:	d01b      	beq.n	8004724 <HAL_TIM_IRQHandler+0xfc>
    {
      __HAL_TIM_CLEAR_FLAG(htim, TIM_FLAG_CC3);
 80046ec:	687b      	ldr	r3, [r7, #4]
 80046ee:	681b      	ldr	r3, [r3, #0]
 80046f0:	f06f 0208 	mvn.w	r2, #8
 80046f4:	611a      	str	r2, [r3, #16]
      htim->Channel = HAL_TIM_ACTIVE_CHANNEL_3;
 80046f6:	687b      	ldr	r3, [r7, #4]
 80046f8:	2204      	movs	r2, #4
 80046fa:	771a      	strb	r2, [r3, #28]
      /* Input capture event */
      if ((htim->Instance->CCMR2 & TIM_CCMR2_CC3S) != 0x00U)
 80046fc:	687b      	ldr	r3, [r7, #4]
 80046fe:	681b      	ldr	r3, [r3, #0]
 8004700:	69db      	ldr	r3, [r3, #28]
 8004702:	f003 0303 	and.w	r3, r3, #3
 8004706:	2b00      	cmp	r3, #0
 8004708:	d003      	beq.n	8004712 <HAL_TIM_IRQHandler+0xea>
      {
#if (USE_HAL_TIM_REGISTER_CALLBACKS == 1)
        htim->IC_CaptureCallback(htim);
#else
        HAL_TIM_IC_CaptureCallback(htim);
 800470a:	6878      	ldr	r0, [r7, #4]
 800470c:	f000 fa75 	bl	8004bfa <HAL_TIM_IC_CaptureCallback>
 8004710:	e005      	b.n	800471e <HAL_TIM_IRQHandler+0xf6>
      {
#if (USE_HAL_TIM_REGISTER_CALLBACKS == 1)
        htim->OC_DelayElapsedCallback(htim);
        htim->PWM_PulseFinishedCallback(htim);
#else
        HAL_TIM_OC_DelayElapsedCallback(htim);
 8004712:	6878      	ldr	r0, [r7, #4]
 8004714:	f000 fa67 	bl	8004be6 <HAL_TIM_OC_DelayElapsedCallback>
        HAL_TIM_PWM_PulseFinishedCallback(htim);
 8004718:	6878      	ldr	r0, [r7, #4]
 800471a:	f000 fa78 	bl	8004c0e <HAL_TIM_PWM_PulseFinishedCallback>
#endif /* USE_HAL_TIM_REGISTER_CALLBACKS */
      }
      htim->Channel = HAL_TIM_ACTIVE_CHANNEL_CLEARED;
 800471e:	687b      	ldr	r3, [r7, #4]
 8004720:	2200      	movs	r2, #0
 8004722:	771a      	strb	r2, [r3, #28]
    }
  }
  /* Capture compare 4 event */
  if ((itflag & (TIM_FLAG_CC4)) == (TIM_FLAG_CC4))
 8004724:	68bb      	ldr	r3, [r7, #8]
 8004726:	f003 0310 	and.w	r3, r3, #16
 800472a:	2b00      	cmp	r3, #0
 800472c:	d020      	beq.n	8004770 <HAL_TIM_IRQHandler+0x148>
  {
    if ((itsource & (TIM_IT_CC4)) == (TIM_IT_CC4))
 800472e:	68fb      	ldr	r3, [r7, #12]
 8004730:	f003 0310 	and.w	r3, r3, #16
 8004734:	2b00      	cmp	r3, #0
 8004736:	d01b      	beq.n	8004770 <HAL_TIM_IRQHandler+0x148>
    {
      __HAL_TIM_CLEAR_FLAG(htim, TIM_FLAG_CC4);
 8004738:	687b      	ldr	r3, [r7, #4]
 800473a:	681b      	ldr	r3, [r3, #0]
 800473c:	f06f 0210 	mvn.w	r2, #16
 8004740:	611a      	str	r2, [r3, #16]
      htim->Channel = HAL_TIM_ACTIVE_CHANNEL_4;
 8004742:	687b      	ldr	r3, [r7, #4]
 8004744:	2208      	movs	r2, #8
 8004746:	771a      	strb	r2, [r3, #28]
      /* Input capture event */
      if ((htim->Instance->CCMR2 & TIM_CCMR2_CC4S) != 0x00U)
 8004748:	687b      	ldr	r3, [r7, #4]
 800474a:	681b      	ldr	r3, [r3, #0]
 800474c:	69db      	ldr	r3, [r3, #28]
 800474e:	f403 7340 	and.w	r3, r3, #768	@ 0x300
 8004752:	2b00      	cmp	r3, #0
 8004754:	d003      	beq.n	800475e <HAL_TIM_IRQHandler+0x136>
      {
#if (USE_HAL_TIM_REGISTER_CALLBACKS == 1)
        htim->IC_CaptureCallback(htim);
#else
        HAL_TIM_IC_CaptureCallback(htim);
 8004756:	6878      	ldr	r0, [r7, #4]
 8004758:	f000 fa4f 	bl	8004bfa <HAL_TIM_IC_CaptureCallback>
 800475c:	e005      	b.n	800476a <HAL_TIM_IRQHandler+0x142>
      {
#if (USE_HAL_TIM_REGISTER_CALLBACKS == 1)
        htim->OC_DelayElapsedCallback(htim);
        htim->PWM_PulseFinishedCallback(htim);
#else
        HAL_TIM_OC_DelayElapsedCallback(htim);
 800475e:	6878      	ldr	r0, [r7, #4]
 8004760:	f000 fa41 	bl	8004be6 <HAL_TIM_OC_DelayElapsedCallback>
        HAL_TIM_PWM_PulseFinishedCallback(htim);
 8004764:	6878      	ldr	r0, [r7, #4]
 8004766:	f000 fa52 	bl	8004c0e <HAL_TIM_PWM_PulseFinishedCallback>
#endif /* USE_HAL_TIM_REGISTER_CALLBACKS */
      }
      htim->Channel = HAL_TIM_ACTIVE_CHANNEL_CLEARED;
 800476a:	687b      	ldr	r3, [r7, #4]
 800476c:	2200      	movs	r2, #0
 800476e:	771a      	strb	r2, [r3, #28]
    }
  }
  /* TIM Update event */
  if ((itflag & (TIM_FLAG_UPDATE)) == (TIM_FLAG_UPDATE))
 8004770:	68bb      	ldr	r3, [r7, #8]
 8004772:	f003 0301 	and.w	r3, r3, #1
 8004776:	2b00      	cmp	r3, #0
 8004778:	d00c      	beq.n	8004794 <HAL_TIM_IRQHandler+0x16c>
  {
    if ((itsource & (TIM_IT_UPDATE)) == (TIM_IT_UPDATE))
 800477a:	68fb      	ldr	r3, [r7, #12]
 800477c:	f003 0301 	and.w	r3, r3, #1
 8004780:	2b00      	cmp	r3, #0
 8004782:	d007      	beq.n	8004794 <HAL_TIM_IRQHandler+0x16c>
    {
      __HAL_TIM_CLEAR_FLAG(htim, TIM_FLAG_UPDATE);
 8004784:	687b      	ldr	r3, [r7, #4]
 8004786:	681b      	ldr	r3, [r3, #0]
 8004788:	f06f 0201 	mvn.w	r2, #1
 800478c:	611a      	str	r2, [r3, #16]
#if (USE_HAL_TIM_REGISTER_CALLBACKS == 1)
      htim->PeriodElapsedCallback(htim);
#else
      HAL_TIM_PeriodElapsedCallback(htim);
 800478e:	6878      	ldr	r0, [r7, #4]
 8004790:	f7fc fc6a 	bl	8001068 <HAL_TIM_PeriodElapsedCallback>
#endif /* USE_HAL_TIM_REGISTER_CALLBACKS */
    }
  }
  /* TIM Break input event */
  if ((itflag & (TIM_FLAG_BREAK)) == (TIM_FLAG_BREAK))
 8004794:	68bb      	ldr	r3, [r7, #8]
 8004796:	f003 0380 	and.w	r3, r3, #128	@ 0x80
 800479a:	2b00      	cmp	r3, #0
 800479c:	d00c      	beq.n	80047b8 <HAL_TIM_IRQHandler+0x190>
  {
    if ((itsource & (TIM_IT_BREAK)) == (TIM_IT_BREAK))
 800479e:	68fb      	ldr	r3, [r7, #12]
 80047a0:	f003 0380 	and.w	r3, r3, #128	@ 0x80
 80047a4:	2b00      	cmp	r3, #0
 80047a6:	d007      	beq.n	80047b8 <HAL_TIM_IRQHandler+0x190>
    {
      __HAL_TIM_CLEAR_FLAG(htim, TIM_FLAG_BREAK);
 80047a8:	687b      	ldr	r3, [r7, #4]
 80047aa:	681b      	ldr	r3, [r3, #0]
 80047ac:	f06f 0280 	mvn.w	r2, #128	@ 0x80
 80047b0:	611a      	str	r2, [r3, #16]
#if (USE_HAL_TIM_REGISTER_CALLBACKS == 1)
      htim->BreakCallback(htim);
#else
      HAL_TIMEx_BreakCallback(htim);
 80047b2:	6878      	ldr	r0, [r7, #4]
 80047b4:	f000 fea2 	bl	80054fc <HAL_TIMEx_BreakCallback>
#endif /* USE_HAL_TIM_REGISTER_CALLBACKS */
    }
  }
#if defined(TIM_BDTR_BK2E)
  /* TIM Break2 input event */
  if ((itflag & (TIM_FLAG_BREAK2)) == (TIM_FLAG_BREAK2))
 80047b8:	68bb      	ldr	r3, [r7, #8]
 80047ba:	f403 7380 	and.w	r3, r3, #256	@ 0x100
 80047be:	2b00      	cmp	r3, #0
 80047c0:	d00c      	beq.n	80047dc <HAL_TIM_IRQHandler+0x1b4>
  {
    if ((itsource & (TIM_IT_BREAK)) == (TIM_IT_BREAK))
 80047c2:	68fb      	ldr	r3, [r7, #12]
 80047c4:	f003 0380 	and.w	r3, r3, #128	@ 0x80
 80047c8:	2b00      	cmp	r3, #0
 80047ca:	d007      	beq.n	80047dc <HAL_TIM_IRQHandler+0x1b4>
    {
      __HAL_TIM_CLEAR_FLAG(htim, TIM_FLAG_BREAK2);
 80047cc:	687b      	ldr	r3, [r7, #4]
 80047ce:	681b      	ldr	r3, [r3, #0]
 80047d0:	f46f 7280 	mvn.w	r2, #256	@ 0x100
 80047d4:	611a      	str	r2, [r3, #16]
#if (USE_HAL_TIM_REGISTER_CALLBACKS == 1)
      htim->Break2Callback(htim);
#else
      HAL_TIMEx_Break2Callback(htim);
 80047d6:	6878      	ldr	r0, [r7, #4]
 80047d8:	f000 fe9a 	bl	8005510 <HAL_TIMEx_Break2Callback>
#endif /* USE_HAL_TIM_REGISTER_CALLBACKS */
    }
  }
#endif /* TIM_BDTR_BK2E */
  /* TIM Trigger detection event */
  if ((itflag & (TIM_FLAG_TRIGGER)) == (TIM_FLAG_TRIGGER))
 80047dc:	68bb      	ldr	r3, [r7, #8]
 80047de:	f003 0340 	and.w	r3, r3, #64	@ 0x40
 80047e2:	2b00      	cmp	r3, #0
 80047e4:	d00c      	beq.n	8004800 <HAL_TIM_IRQHandler+0x1d8>
  {
    if ((itsource & (TIM_IT_TRIGGER)) == (TIM_IT_TRIGGER))
 80047e6:	68fb      	ldr	r3, [r7, #12]
 80047e8:	f003 0340 	and.w	r3, r3, #64	@ 0x40
 80047ec:	2b00      	cmp	r3, #0
 80047ee:	d007      	beq.n	8004800 <HAL_TIM_IRQHandler+0x1d8>
    {
      __HAL_TIM_CLEAR_FLAG(htim, TIM_FLAG_TRIGGER);
 80047f0:	687b      	ldr	r3, [r7, #4]
 80047f2:	681b      	ldr	r3, [r3, #0]
 80047f4:	f06f 0240 	mvn.w	r2, #64	@ 0x40
 80047f8:	611a      	str	r2, [r3, #16]
#if (USE_HAL_TIM_REGISTER_CALLBACKS == 1)
      htim->TriggerCallback(htim);
#else
      HAL_TIM_TriggerCallback(htim);
 80047fa:	6878      	ldr	r0, [r7, #4]
 80047fc:	f000 fa11 	bl	8004c22 <HAL_TIM_TriggerCallback>
#endif /* USE_HAL_TIM_REGISTER_CALLBACKS */
    }
  }
  /* TIM commutation event */
  if ((itflag & (TIM_FLAG_COM)) == (TIM_FLAG_COM))
 8004800:	68bb      	ldr	r3, [r7, #8]
 8004802:	f003 0320 	and.w	r3, r3, #32
 8004806:	2b00      	cmp	r3, #0
 8004808:	d00c      	beq.n	8004824 <HAL_TIM_IRQHandler+0x1fc>
  {
    if ((itsource & (TIM_IT_COM)) == (TIM_IT_COM))
 800480a:	68fb      	ldr	r3, [r7, #12]
 800480c:	f003 0320 	and.w	r3, r3, #32
 8004810:	2b00      	cmp	r3, #0
 8004812:	d007      	beq.n	8004824 <HAL_TIM_IRQHandler+0x1fc>
    {
      __HAL_TIM_CLEAR_FLAG(htim, TIM_FLAG_COM);
 8004814:	687b      	ldr	r3, [r7, #4]
 8004816:	681b      	ldr	r3, [r3, #0]
 8004818:	f06f 0220 	mvn.w	r2, #32
 800481c:	611a      	str	r2, [r3, #16]
#if (USE_HAL_TIM_REGISTER_CALLBACKS == 1)
      htim->CommutationCallback(htim);
#else
      HAL_TIMEx_CommutCallback(htim);
 800481e:	6878      	ldr	r0, [r7, #4]
 8004820:	f000 fe62 	bl	80054e8 <HAL_TIMEx_CommutCallback>
#endif /* USE_HAL_TIM_REGISTER_CALLBACKS */
    }
  }
}
 8004824:	bf00      	nop
 8004826:	3710      	adds	r7, #16
 8004828:	46bd      	mov	sp, r7
 800482a:	bd80      	pop	{r7, pc}

0800482c <HAL_TIM_PWM_ConfigChannel>:
  * @retval HAL status
  */
HAL_StatusTypeDef HAL_TIM_PWM_ConfigChannel(TIM_HandleTypeDef *htim,
                                            const TIM_OC_InitTypeDef *sConfig,
                                            uint32_t Channel)
{
 800482c:	b580      	push	{r7, lr}
 800482e:	b086      	sub	sp, #24
 8004830:	af00      	add	r7, sp, #0
 8004832:	60f8      	str	r0, [r7, #12]
 8004834:	60b9      	str	r1, [r7, #8]
 8004836:	607a      	str	r2, [r7, #4]
  HAL_StatusTypeDef status = HAL_OK;
 8004838:	2300      	movs	r3, #0
 800483a:	75fb      	strb	r3, [r7, #23]
  assert_param(IS_TIM_PWM_MODE(sConfig->OCMode));
  assert_param(IS_TIM_OC_POLARITY(sConfig->OCPolarity));
  assert_param(IS_TIM_FAST_STATE(sConfig->OCFastMode));

  /* Process Locked */
  __HAL_LOCK(htim);
 800483c:	68fb      	ldr	r3, [r7, #12]
 800483e:	f893 303c 	ldrb.w	r3, [r3, #60]	@ 0x3c
 8004842:	2b01      	cmp	r3, #1
 8004844:	d101      	bne.n	800484a <HAL_TIM_PWM_ConfigChannel+0x1e>
 8004846:	2302      	movs	r3, #2
 8004848:	e0ff      	b.n	8004a4a <HAL_TIM_PWM_ConfigChannel+0x21e>
 800484a:	68fb      	ldr	r3, [r7, #12]
 800484c:	2201      	movs	r2, #1
 800484e:	f883 203c 	strb.w	r2, [r3, #60]	@ 0x3c

  switch (Channel)
 8004852:	687b      	ldr	r3, [r7, #4]
 8004854:	2b14      	cmp	r3, #20
 8004856:	f200 80f0 	bhi.w	8004a3a <HAL_TIM_PWM_ConfigChannel+0x20e>
 800485a:	a201      	add	r2, pc, #4	@ (adr r2, 8004860 <HAL_TIM_PWM_ConfigChannel+0x34>)
 800485c:	f852 f023 	ldr.w	pc, [r2, r3, lsl #2]
 8004860:	080048b5 	.word	0x080048b5
 8004864:	08004a3b 	.word	0x08004a3b
 8004868:	08004a3b 	.word	0x08004a3b
 800486c:	08004a3b 	.word	0x08004a3b
 8004870:	080048f5 	.word	0x080048f5
 8004874:	08004a3b 	.word	0x08004a3b
 8004878:	08004a3b 	.word	0x08004a3b
 800487c:	08004a3b 	.word	0x08004a3b
 8004880:	08004937 	.word	0x08004937
 8004884:	08004a3b 	.word	0x08004a3b
 8004888:	08004a3b 	.word	0x08004a3b
 800488c:	08004a3b 	.word	0x08004a3b
 8004890:	08004977 	.word	0x08004977
 8004894:	08004a3b 	.word	0x08004a3b
 8004898:	08004a3b 	.word	0x08004a3b
 800489c:	08004a3b 	.word	0x08004a3b
 80048a0:	080049b9 	.word	0x080049b9
 80048a4:	08004a3b 	.word	0x08004a3b
 80048a8:	08004a3b 	.word	0x08004a3b
 80048ac:	08004a3b 	.word	0x08004a3b
 80048b0:	080049f9 	.word	0x080049f9
    {
      /* Check the parameters */
      assert_param(IS_TIM_CC1_INSTANCE(htim->Instance));

      /* Configure the Channel 1 in PWM mode */
      TIM_OC1_SetConfig(htim->Instance, sConfig);
 80048b4:	68fb      	ldr	r3, [r7, #12]
 80048b6:	681b      	ldr	r3, [r3, #0]
 80048b8:	68b9      	ldr	r1, [r7, #8]
 80048ba:	4618      	mov	r0, r3
 80048bc:	f000 fa40 	bl	8004d40 <TIM_OC1_SetConfig>

      /* Set the Preload enable bit for channel1 */
      htim->Instance->CCMR1 |= TIM_CCMR1_OC1PE;
 80048c0:	68fb      	ldr	r3, [r7, #12]
 80048c2:	681b      	ldr	r3, [r3, #0]
 80048c4:	699a      	ldr	r2, [r3, #24]
 80048c6:	68fb      	ldr	r3, [r7, #12]
 80048c8:	681b      	ldr	r3, [r3, #0]
 80048ca:	f042 0208 	orr.w	r2, r2, #8
 80048ce:	619a      	str	r2, [r3, #24]

      /* Configure the Output Fast mode */
      htim->Instance->CCMR1 &= ~TIM_CCMR1_OC1FE;
 80048d0:	68fb      	ldr	r3, [r7, #12]
 80048d2:	681b      	ldr	r3, [r3, #0]
 80048d4:	699a      	ldr	r2, [r3, #24]
 80048d6:	68fb      	ldr	r3, [r7, #12]
 80048d8:	681b      	ldr	r3, [r3, #0]
 80048da:	f022 0204 	bic.w	r2, r2, #4
 80048de:	619a      	str	r2, [r3, #24]
      htim->Instance->CCMR1 |= sConfig->OCFastMode;
 80048e0:	68fb      	ldr	r3, [r7, #12]
 80048e2:	681b      	ldr	r3, [r3, #0]
 80048e4:	6999      	ldr	r1, [r3, #24]
 80048e6:	68bb      	ldr	r3, [r7, #8]
 80048e8:	691a      	ldr	r2, [r3, #16]
 80048ea:	68fb      	ldr	r3, [r7, #12]
 80048ec:	681b      	ldr	r3, [r3, #0]
 80048ee:	430a      	orrs	r2, r1
 80048f0:	619a      	str	r2, [r3, #24]
      break;
 80048f2:	e0a5      	b.n	8004a40 <HAL_TIM_PWM_ConfigChannel+0x214>
    {
      /* Check the parameters */
      assert_param(IS_TIM_CC2_INSTANCE(htim->Instance));

      /* Configure the Channel 2 in PWM mode */
      TIM_OC2_SetConfig(htim->Instance, sConfig);
 80048f4:	68fb      	ldr	r3, [r7, #12]
 80048f6:	681b      	ldr	r3, [r3, #0]
 80048f8:	68b9      	ldr	r1, [r7, #8]
 80048fa:	4618      	mov	r0, r3
 80048fc:	f000 faa6 	bl	8004e4c <TIM_OC2_SetConfig>

      /* Set the Preload enable bit for channel2 */
      htim->Instance->CCMR1 |= TIM_CCMR1_OC2PE;
 8004900:	68fb      	ldr	r3, [r7, #12]
 8004902:	681b      	ldr	r3, [r3, #0]
 8004904:	699a      	ldr	r2, [r3, #24]
 8004906:	68fb      	ldr	r3, [r7, #12]
 8004908:	681b      	ldr	r3, [r3, #0]
 800490a:	f442 6200 	orr.w	r2, r2, #2048	@ 0x800
 800490e:	619a      	str	r2, [r3, #24]

      /* Configure the Output Fast mode */
      htim->Instance->CCMR1 &= ~TIM_CCMR1_OC2FE;
 8004910:	68fb      	ldr	r3, [r7, #12]
 8004912:	681b      	ldr	r3, [r3, #0]
 8004914:	699a      	ldr	r2, [r3, #24]
 8004916:	68fb      	ldr	r3, [r7, #12]
 8004918:	681b      	ldr	r3, [r3, #0]
 800491a:	f422 6280 	bic.w	r2, r2, #1024	@ 0x400
 800491e:	619a      	str	r2, [r3, #24]
      htim->Instance->CCMR1 |= sConfig->OCFastMode << 8U;
 8004920:	68fb      	ldr	r3, [r7, #12]
 8004922:	681b      	ldr	r3, [r3, #0]
 8004924:	6999      	ldr	r1, [r3, #24]
 8004926:	68bb      	ldr	r3, [r7, #8]
 8004928:	691b      	ldr	r3, [r3, #16]
 800492a:	021a      	lsls	r2, r3, #8
 800492c:	68fb      	ldr	r3, [r7, #12]
 800492e:	681b      	ldr	r3, [r3, #0]
 8004930:	430a      	orrs	r2, r1
 8004932:	619a      	str	r2, [r3, #24]
      break;
 8004934:	e084      	b.n	8004a40 <HAL_TIM_PWM_ConfigChannel+0x214>
    {
      /* Check the parameters */
      assert_param(IS_TIM_CC3_INSTANCE(htim->Instance));

      /* Configure the Channel 3 in PWM mode */
      TIM_OC3_SetConfig(htim->Instance, sConfig);
 8004936:	68fb      	ldr	r3, [r7, #12]
 8004938:	681b      	ldr	r3, [r3, #0]
 800493a:	68b9      	ldr	r1, [r7, #8]
 800493c:	4618      	mov	r0, r3
 800493e:	f000 fb05 	bl	8004f4c <TIM_OC3_SetConfig>

      /* Set the Preload enable bit for channel3 */
      htim->Instance->CCMR2 |= TIM_CCMR2_OC3PE;
 8004942:	68fb      	ldr	r3, [r7, #12]
 8004944:	681b      	ldr	r3, [r3, #0]
 8004946:	69da      	ldr	r2, [r3, #28]
 8004948:	68fb      	ldr	r3, [r7, #12]
 800494a:	681b      	ldr	r3, [r3, #0]
 800494c:	f042 0208 	orr.w	r2, r2, #8
 8004950:	61da      	str	r2, [r3, #28]

      /* Configure the Output Fast mode */
      htim->Instance->CCMR2 &= ~TIM_CCMR2_OC3FE;
 8004952:	68fb      	ldr	r3, [r7, #12]
 8004954:	681b      	ldr	r3, [r3, #0]
 8004956:	69da      	ldr	r2, [r3, #28]
 8004958:	68fb      	ldr	r3, [r7, #12]
 800495a:	681b      	ldr	r3, [r3, #0]
 800495c:	f022 0204 	bic.w	r2, r2, #4
 8004960:	61da      	str	r2, [r3, #28]
      htim->Instance->CCMR2 |= sConfig->OCFastMode;
 8004962:	68fb      	ldr	r3, [r7, #12]
 8004964:	681b      	ldr	r3, [r3, #0]
 8004966:	69d9      	ldr	r1, [r3, #28]
 8004968:	68bb      	ldr	r3, [r7, #8]
 800496a:	691a      	ldr	r2, [r3, #16]
 800496c:	68fb      	ldr	r3, [r7, #12]
 800496e:	681b      	ldr	r3, [r3, #0]
 8004970:	430a      	orrs	r2, r1
 8004972:	61da      	str	r2, [r3, #28]
      break;
 8004974:	e064      	b.n	8004a40 <HAL_TIM_PWM_ConfigChannel+0x214>
    {
      /* Check the parameters */
      assert_param(IS_TIM_CC4_INSTANCE(htim->Instance));

      /* Configure the Channel 4 in PWM mode */
      TIM_OC4_SetConfig(htim->Instance, sConfig);
 8004976:	68fb      	ldr	r3, [r7, #12]
 8004978:	681b      	ldr	r3, [r3, #0]
 800497a:	68b9      	ldr	r1, [r7, #8]
 800497c:	4618      	mov	r0, r3
 800497e:	f000 fb63 	bl	8005048 <TIM_OC4_SetConfig>

      /* Set the Preload enable bit for channel4 */
      htim->Instance->CCMR2 |= TIM_CCMR2_OC4PE;
 8004982:	68fb      	ldr	r3, [r7, #12]
 8004984:	681b      	ldr	r3, [r3, #0]
 8004986:	69da      	ldr	r2, [r3, #28]
 8004988:	68fb      	ldr	r3, [r7, #12]
 800498a:	681b      	ldr	r3, [r3, #0]
 800498c:	f442 6200 	orr.w	r2, r2, #2048	@ 0x800
 8004990:	61da      	str	r2, [r3, #28]

      /* Configure the Output Fast mode */
      htim->Instance->CCMR2 &= ~TIM_CCMR2_OC4FE;
 8004992:	68fb      	ldr	r3, [r7, #12]
 8004994:	681b      	ldr	r3, [r3, #0]
 8004996:	69da      	ldr	r2, [r3, #28]
 8004998:	68fb      	ldr	r3, [r7, #12]
 800499a:	681b      	ldr	r3, [r3, #0]
 800499c:	f422 6280 	bic.w	r2, r2, #1024	@ 0x400
 80049a0:	61da      	str	r2, [r3, #28]
      htim->Instance->CCMR2 |= sConfig->OCFastMode << 8U;
 80049a2:	68fb      	ldr	r3, [r7, #12]
 80049a4:	681b      	ldr	r3, [r3, #0]
 80049a6:	69d9      	ldr	r1, [r3, #28]
 80049a8:	68bb      	ldr	r3, [r7, #8]
 80049aa:	691b      	ldr	r3, [r3, #16]
 80049ac:	021a      	lsls	r2, r3, #8
 80049ae:	68fb      	ldr	r3, [r7, #12]
 80049b0:	681b      	ldr	r3, [r3, #0]
 80049b2:	430a      	orrs	r2, r1
 80049b4:	61da      	str	r2, [r3, #28]
      break;
 80049b6:	e043      	b.n	8004a40 <HAL_TIM_PWM_ConfigChannel+0x214>
    {
      /* Check the parameters */
      assert_param(IS_TIM_CC5_INSTANCE(htim->Instance));

      /* Configure the Channel 5 in PWM mode */
      TIM_OC5_SetConfig(htim->Instance, sConfig);
 80049b8:	68fb      	ldr	r3, [r7, #12]
 80049ba:	681b      	ldr	r3, [r3, #0]
 80049bc:	68b9      	ldr	r1, [r7, #8]
 80049be:	4618      	mov	r0, r3
 80049c0:	f000 fba6 	bl	8005110 <TIM_OC5_SetConfig>

      /* Set the Preload enable bit for channel5*/
      htim->Instance->CCMR3 |= TIM_CCMR3_OC5PE;
 80049c4:	68fb      	ldr	r3, [r7, #12]
 80049c6:	681b      	ldr	r3, [r3, #0]
 80049c8:	6d5a      	ldr	r2, [r3, #84]	@ 0x54
 80049ca:	68fb      	ldr	r3, [r7, #12]
 80049cc:	681b      	ldr	r3, [r3, #0]
 80049ce:	f042 0208 	orr.w	r2, r2, #8
 80049d2:	655a      	str	r2, [r3, #84]	@ 0x54

      /* Configure the Output Fast mode */
      htim->Instance->CCMR3 &= ~TIM_CCMR3_OC5FE;
 80049d4:	68fb      	ldr	r3, [r7, #12]
 80049d6:	681b      	ldr	r3, [r3, #0]
 80049d8:	6d5a      	ldr	r2, [r3, #84]	@ 0x54
 80049da:	68fb      	ldr	r3, [r7, #12]
 80049dc:	681b      	ldr	r3, [r3, #0]
 80049de:	f022 0204 	bic.w	r2, r2, #4
 80049e2:	655a      	str	r2, [r3, #84]	@ 0x54
      htim->Instance->CCMR3 |= sConfig->OCFastMode;
 80049e4:	68fb      	ldr	r3, [r7, #12]
 80049e6:	681b      	ldr	r3, [r3, #0]
 80049e8:	6d59      	ldr	r1, [r3, #84]	@ 0x54
 80049ea:	68bb      	ldr	r3, [r7, #8]
 80049ec:	691a      	ldr	r2, [r3, #16]
 80049ee:	68fb      	ldr	r3, [r7, #12]
 80049f0:	681b      	ldr	r3, [r3, #0]
 80049f2:	430a      	orrs	r2, r1
 80049f4:	655a      	str	r2, [r3, #84]	@ 0x54
      break;
 80049f6:	e023      	b.n	8004a40 <HAL_TIM_PWM_ConfigChannel+0x214>
    {
      /* Check the parameters */
      assert_param(IS_TIM_CC6_INSTANCE(htim->Instance));

      /* Configure the Channel 6 in PWM mode */
      TIM_OC6_SetConfig(htim->Instance, sConfig);
 80049f8:	68fb      	ldr	r3, [r7, #12]
 80049fa:	681b      	ldr	r3, [r3, #0]
 80049fc:	68b9      	ldr	r1, [r7, #8]
 80049fe:	4618      	mov	r0, r3
 8004a00:	f000 fbe4 	bl	80051cc <TIM_OC6_SetConfig>

      /* Set the Preload enable bit for channel6 */
      htim->Instance->CCMR3 |= TIM_CCMR3_OC6PE;
 8004a04:	68fb      	ldr	r3, [r7, #12]
 8004a06:	681b      	ldr	r3, [r3, #0]
 8004a08:	6d5a      	ldr	r2, [r3, #84]	@ 0x54
 8004a0a:	68fb      	ldr	r3, [r7, #12]
 8004a0c:	681b      	ldr	r3, [r3, #0]
 8004a0e:	f442 6200 	orr.w	r2, r2, #2048	@ 0x800
 8004a12:	655a      	str	r2, [r3, #84]	@ 0x54

      /* Configure the Output Fast mode */
      htim->Instance->CCMR3 &= ~TIM_CCMR3_OC6FE;
 8004a14:	68fb      	ldr	r3, [r7, #12]
 8004a16:	681b      	ldr	r3, [r3, #0]
 8004a18:	6d5a      	ldr	r2, [r3, #84]	@ 0x54
 8004a1a:	68fb      	ldr	r3, [r7, #12]
 8004a1c:	681b      	ldr	r3, [r3, #0]
 8004a1e:	f422 6280 	bic.w	r2, r2, #1024	@ 0x400
 8004a22:	655a      	str	r2, [r3, #84]	@ 0x54
      htim->Instance->CCMR3 |= sConfig->OCFastMode << 8U;
 8004a24:	68fb      	ldr	r3, [r7, #12]
 8004a26:	681b      	ldr	r3, [r3, #0]
 8004a28:	6d59      	ldr	r1, [r3, #84]	@ 0x54
 8004a2a:	68bb      	ldr	r3, [r7, #8]
 8004a2c:	691b      	ldr	r3, [r3, #16]
 8004a2e:	021a      	lsls	r2, r3, #8
 8004a30:	68fb      	ldr	r3, [r7, #12]
 8004a32:	681b      	ldr	r3, [r3, #0]
 8004a34:	430a      	orrs	r2, r1
 8004a36:	655a      	str	r2, [r3, #84]	@ 0x54
      break;
 8004a38:	e002      	b.n	8004a40 <HAL_TIM_PWM_ConfigChannel+0x214>
    }
#endif /* TIM_CCER_CC6E */

    default:
      status = HAL_ERROR;
 8004a3a:	2301      	movs	r3, #1
 8004a3c:	75fb      	strb	r3, [r7, #23]
      break;
 8004a3e:	bf00      	nop
  }

  __HAL_UNLOCK(htim);
 8004a40:	68fb      	ldr	r3, [r7, #12]
 8004a42:	2200      	movs	r2, #0
 8004a44:	f883 203c 	strb.w	r2, [r3, #60]	@ 0x3c

  return status;
 8004a48:	7dfb      	ldrb	r3, [r7, #23]
}
 8004a4a:	4618      	mov	r0, r3
 8004a4c:	3718      	adds	r7, #24
 8004a4e:	46bd      	mov	sp, r7
 8004a50:	bd80      	pop	{r7, pc}
 8004a52:	bf00      	nop

08004a54 <HAL_TIM_ConfigClockSource>:
  * @param  sClockSourceConfig pointer to a TIM_ClockConfigTypeDef structure that
  *         contains the clock source information for the TIM peripheral.
  * @retval HAL status
  */
HAL_StatusTypeDef HAL_TIM_ConfigClockSource(TIM_HandleTypeDef *htim, const TIM_ClockConfigTypeDef *sClockSourceConfig)
{
 8004a54:	b580      	push	{r7, lr}
 8004a56:	b084      	sub	sp, #16
 8004a58:	af00      	add	r7, sp, #0
 8004a5a:	6078      	str	r0, [r7, #4]
 8004a5c:	6039      	str	r1, [r7, #0]
  HAL_StatusTypeDef status = HAL_OK;
 8004a5e:	2300      	movs	r3, #0
 8004a60:	73fb      	strb	r3, [r7, #15]
  uint32_t tmpsmcr;

  /* Process Locked */
  __HAL_LOCK(htim);
 8004a62:	687b      	ldr	r3, [r7, #4]
 8004a64:	f893 303c 	ldrb.w	r3, [r3, #60]	@ 0x3c
 8004a68:	2b01      	cmp	r3, #1
 8004a6a:	d101      	bne.n	8004a70 <HAL_TIM_ConfigClockSource+0x1c>
 8004a6c:	2302      	movs	r3, #2
 8004a6e:	e0b6      	b.n	8004bde <HAL_TIM_ConfigClockSource+0x18a>
 8004a70:	687b      	ldr	r3, [r7, #4]
 8004a72:	2201      	movs	r2, #1
 8004a74:	f883 203c 	strb.w	r2, [r3, #60]	@ 0x3c

  htim->State = HAL_TIM_STATE_BUSY;
 8004a78:	687b      	ldr	r3, [r7, #4]
 8004a7a:	2202      	movs	r2, #2
 8004a7c:	f883 203d 	strb.w	r2, [r3, #61]	@ 0x3d

  /* Check the parameters */
  assert_param(IS_TIM_CLOCKSOURCE(sClockSourceConfig->ClockSource));

  /* Reset the SMS, TS, ECE, ETPS and ETRF bits */
  tmpsmcr = htim->Instance->SMCR;
 8004a80:	687b      	ldr	r3, [r7, #4]
 8004a82:	681b      	ldr	r3, [r3, #0]
 8004a84:	689b      	ldr	r3, [r3, #8]
 8004a86:	60bb      	str	r3, [r7, #8]
  tmpsmcr &= ~(TIM_SMCR_SMS | TIM_SMCR_TS);
 8004a88:	68bb      	ldr	r3, [r7, #8]
 8004a8a:	f423 3380 	bic.w	r3, r3, #65536	@ 0x10000
 8004a8e:	f023 0377 	bic.w	r3, r3, #119	@ 0x77
 8004a92:	60bb      	str	r3, [r7, #8]
  tmpsmcr &= ~(TIM_SMCR_ETF | TIM_SMCR_ETPS | TIM_SMCR_ECE | TIM_SMCR_ETP);
 8004a94:	68bb      	ldr	r3, [r7, #8]
 8004a96:	f423 437f 	bic.w	r3, r3, #65280	@ 0xff00
 8004a9a:	60bb      	str	r3, [r7, #8]
  htim->Instance->SMCR = tmpsmcr;
 8004a9c:	687b      	ldr	r3, [r7, #4]
 8004a9e:	681b      	ldr	r3, [r3, #0]
 8004aa0:	68ba      	ldr	r2, [r7, #8]
 8004aa2:	609a      	str	r2, [r3, #8]

  switch (sClockSourceConfig->ClockSource)
 8004aa4:	683b      	ldr	r3, [r7, #0]
 8004aa6:	681b      	ldr	r3, [r3, #0]
 8004aa8:	f5b3 5f00 	cmp.w	r3, #8192	@ 0x2000
 8004aac:	d03e      	beq.n	8004b2c <HAL_TIM_ConfigClockSource+0xd8>
 8004aae:	f5b3 5f00 	cmp.w	r3, #8192	@ 0x2000
 8004ab2:	f200 8087 	bhi.w	8004bc4 <HAL_TIM_ConfigClockSource+0x170>
 8004ab6:	f5b3 5f80 	cmp.w	r3, #4096	@ 0x1000
 8004aba:	f000 8086 	beq.w	8004bca <HAL_TIM_ConfigClockSource+0x176>
 8004abe:	f5b3 5f80 	cmp.w	r3, #4096	@ 0x1000
 8004ac2:	d87f      	bhi.n	8004bc4 <HAL_TIM_ConfigClockSource+0x170>
 8004ac4:	2b70      	cmp	r3, #112	@ 0x70
 8004ac6:	d01a      	beq.n	8004afe <HAL_TIM_ConfigClockSource+0xaa>
 8004ac8:	2b70      	cmp	r3, #112	@ 0x70
 8004aca:	d87b      	bhi.n	8004bc4 <HAL_TIM_ConfigClockSource+0x170>
 8004acc:	2b60      	cmp	r3, #96	@ 0x60
 8004ace:	d050      	beq.n	8004b72 <HAL_TIM_ConfigClockSource+0x11e>
 8004ad0:	2b60      	cmp	r3, #96	@ 0x60
 8004ad2:	d877      	bhi.n	8004bc4 <HAL_TIM_ConfigClockSource+0x170>
 8004ad4:	2b50      	cmp	r3, #80	@ 0x50
 8004ad6:	d03c      	beq.n	8004b52 <HAL_TIM_ConfigClockSource+0xfe>
 8004ad8:	2b50      	cmp	r3, #80	@ 0x50
 8004ada:	d873      	bhi.n	8004bc4 <HAL_TIM_ConfigClockSource+0x170>
 8004adc:	2b40      	cmp	r3, #64	@ 0x40
 8004ade:	d058      	beq.n	8004b92 <HAL_TIM_ConfigClockSource+0x13e>
 8004ae0:	2b40      	cmp	r3, #64	@ 0x40
 8004ae2:	d86f      	bhi.n	8004bc4 <HAL_TIM_ConfigClockSource+0x170>
 8004ae4:	2b30      	cmp	r3, #48	@ 0x30
 8004ae6:	d064      	beq.n	8004bb2 <HAL_TIM_ConfigClockSource+0x15e>
 8004ae8:	2b30      	cmp	r3, #48	@ 0x30
 8004aea:	d86b      	bhi.n	8004bc4 <HAL_TIM_ConfigClockSource+0x170>
 8004aec:	2b20      	cmp	r3, #32
 8004aee:	d060      	beq.n	8004bb2 <HAL_TIM_ConfigClockSource+0x15e>
 8004af0:	2b20      	cmp	r3, #32
 8004af2:	d867      	bhi.n	8004bc4 <HAL_TIM_ConfigClockSource+0x170>
 8004af4:	2b00      	cmp	r3, #0
 8004af6:	d05c      	beq.n	8004bb2 <HAL_TIM_ConfigClockSource+0x15e>
 8004af8:	2b10      	cmp	r3, #16
 8004afa:	d05a      	beq.n	8004bb2 <HAL_TIM_ConfigClockSource+0x15e>
 8004afc:	e062      	b.n	8004bc4 <HAL_TIM_ConfigClockSource+0x170>
      assert_param(IS_TIM_CLOCKPRESCALER(sClockSourceConfig->ClockPrescaler));
      assert_param(IS_TIM_CLOCKPOLARITY(sClockSourceConfig->ClockPolarity));
      assert_param(IS_TIM_CLOCKFILTER(sClockSourceConfig->ClockFilter));

      /* Configure the ETR Clock source */
      TIM_ETR_SetConfig(htim->Instance,
 8004afe:	687b      	ldr	r3, [r7, #4]
 8004b00:	6818      	ldr	r0, [r3, #0]
                        sClockSourceConfig->ClockPrescaler,
 8004b02:	683b      	ldr	r3, [r7, #0]
 8004b04:	6899      	ldr	r1, [r3, #8]
                        sClockSourceConfig->ClockPolarity,
 8004b06:	683b      	ldr	r3, [r7, #0]
 8004b08:	685a      	ldr	r2, [r3, #4]
                        sClockSourceConfig->ClockFilter);
 8004b0a:	683b      	ldr	r3, [r7, #0]
 8004b0c:	68db      	ldr	r3, [r3, #12]
      TIM_ETR_SetConfig(htim->Instance,
 8004b0e:	f000 fc37 	bl	8005380 <TIM_ETR_SetConfig>

      /* Select the External clock mode1 and the ETRF trigger */
      tmpsmcr = htim->Instance->SMCR;
 8004b12:	687b      	ldr	r3, [r7, #4]
 8004b14:	681b      	ldr	r3, [r3, #0]
 8004b16:	689b      	ldr	r3, [r3, #8]
 8004b18:	60bb      	str	r3, [r7, #8]
      tmpsmcr |= (TIM_SLAVEMODE_EXTERNAL1 | TIM_CLOCKSOURCE_ETRMODE1);
 8004b1a:	68bb      	ldr	r3, [r7, #8]
 8004b1c:	f043 0377 	orr.w	r3, r3, #119	@ 0x77
 8004b20:	60bb      	str	r3, [r7, #8]
      /* Write to TIMx SMCR */
      htim->Instance->SMCR = tmpsmcr;
 8004b22:	687b      	ldr	r3, [r7, #4]
 8004b24:	681b      	ldr	r3, [r3, #0]
 8004b26:	68ba      	ldr	r2, [r7, #8]
 8004b28:	609a      	str	r2, [r3, #8]
      break;
 8004b2a:	e04f      	b.n	8004bcc <HAL_TIM_ConfigClockSource+0x178>
      assert_param(IS_TIM_CLOCKPRESCALER(sClockSourceConfig->ClockPrescaler));
      assert_param(IS_TIM_CLOCKPOLARITY(sClockSourceConfig->ClockPolarity));
      assert_param(IS_TIM_CLOCKFILTER(sClockSourceConfig->ClockFilter));

      /* Configure the ETR Clock source */
      TIM_ETR_SetConfig(htim->Instance,
 8004b2c:	687b      	ldr	r3, [r7, #4]
 8004b2e:	6818      	ldr	r0, [r3, #0]
                        sClockSourceConfig->ClockPrescaler,
 8004b30:	683b      	ldr	r3, [r7, #0]
 8004b32:	6899      	ldr	r1, [r3, #8]
                        sClockSourceConfig->ClockPolarity,
 8004b34:	683b      	ldr	r3, [r7, #0]
 8004b36:	685a      	ldr	r2, [r3, #4]
                        sClockSourceConfig->ClockFilter);
 8004b38:	683b      	ldr	r3, [r7, #0]
 8004b3a:	68db      	ldr	r3, [r3, #12]
      TIM_ETR_SetConfig(htim->Instance,
 8004b3c:	f000 fc20 	bl	8005380 <TIM_ETR_SetConfig>
      /* Enable the External clock mode2 */
      htim->Instance->SMCR |= TIM_SMCR_ECE;
 8004b40:	687b      	ldr	r3, [r7, #4]
 8004b42:	681b      	ldr	r3, [r3, #0]
 8004b44:	689a      	ldr	r2, [r3, #8]
 8004b46:	687b      	ldr	r3, [r7, #4]
 8004b48:	681b      	ldr	r3, [r3, #0]
 8004b4a:	f442 4280 	orr.w	r2, r2, #16384	@ 0x4000
 8004b4e:	609a      	str	r2, [r3, #8]
      break;
 8004b50:	e03c      	b.n	8004bcc <HAL_TIM_ConfigClockSource+0x178>

      /* Check TI1 input conditioning related parameters */
      assert_param(IS_TIM_CLOCKPOLARITY(sClockSourceConfig->ClockPolarity));
      assert_param(IS_TIM_CLOCKFILTER(sClockSourceConfig->ClockFilter));

      TIM_TI1_ConfigInputStage(htim->Instance,
 8004b52:	687b      	ldr	r3, [r7, #4]
 8004b54:	6818      	ldr	r0, [r3, #0]
                               sClockSourceConfig->ClockPolarity,
 8004b56:	683b      	ldr	r3, [r7, #0]
 8004b58:	6859      	ldr	r1, [r3, #4]
                               sClockSourceConfig->ClockFilter);
 8004b5a:	683b      	ldr	r3, [r7, #0]
 8004b5c:	68db      	ldr	r3, [r3, #12]
      TIM_TI1_ConfigInputStage(htim->Instance,
 8004b5e:	461a      	mov	r2, r3
 8004b60:	f000 fb94 	bl	800528c <TIM_TI1_ConfigInputStage>
      TIM_ITRx_SetConfig(htim->Instance, TIM_CLOCKSOURCE_TI1);
 8004b64:	687b      	ldr	r3, [r7, #4]
 8004b66:	681b      	ldr	r3, [r3, #0]
 8004b68:	2150      	movs	r1, #80	@ 0x50
 8004b6a:	4618      	mov	r0, r3
 8004b6c:	f000 fbed 	bl	800534a <TIM_ITRx_SetConfig>
      break;
 8004b70:	e02c      	b.n	8004bcc <HAL_TIM_ConfigClockSource+0x178>

      /* Check TI2 input conditioning related parameters */
      assert_param(IS_TIM_CLOCKPOLARITY(sClockSourceConfig->ClockPolarity));
      assert_param(IS_TIM_CLOCKFILTER(sClockSourceConfig->ClockFilter));

      TIM_TI2_ConfigInputStage(htim->Instance,
 8004b72:	687b      	ldr	r3, [r7, #4]
 8004b74:	6818      	ldr	r0, [r3, #0]
                               sClockSourceConfig->ClockPolarity,
 8004b76:	683b      	ldr	r3, [r7, #0]
 8004b78:	6859      	ldr	r1, [r3, #4]
                               sClockSourceConfig->ClockFilter);
 8004b7a:	683b      	ldr	r3, [r7, #0]
 8004b7c:	68db      	ldr	r3, [r3, #12]
      TIM_TI2_ConfigInputStage(htim->Instance,
 8004b7e:	461a      	mov	r2, r3
 8004b80:	f000 fbb3 	bl	80052ea <TIM_TI2_ConfigInputStage>
      TIM_ITRx_SetConfig(htim->Instance, TIM_CLOCKSOURCE_TI2);
 8004b84:	687b      	ldr	r3, [r7, #4]
 8004b86:	681b      	ldr	r3, [r3, #0]
 8004b88:	2160      	movs	r1, #96	@ 0x60
 8004b8a:	4618      	mov	r0, r3
 8004b8c:	f000 fbdd 	bl	800534a <TIM_ITRx_SetConfig>
      break;
 8004b90:	e01c      	b.n	8004bcc <HAL_TIM_ConfigClockSource+0x178>

      /* Check TI1 input conditioning related parameters */
      assert_param(IS_TIM_CLOCKPOLARITY(sClockSourceConfig->ClockPolarity));
      assert_param(IS_TIM_CLOCKFILTER(sClockSourceConfig->ClockFilter));

      TIM_TI1_ConfigInputStage(htim->Instance,
 8004b92:	687b      	ldr	r3, [r7, #4]
 8004b94:	6818      	ldr	r0, [r3, #0]
                               sClockSourceConfig->ClockPolarity,
 8004b96:	683b      	ldr	r3, [r7, #0]
 8004b98:	6859      	ldr	r1, [r3, #4]
                               sClockSourceConfig->ClockFilter);
 8004b9a:	683b      	ldr	r3, [r7, #0]
 8004b9c:	68db      	ldr	r3, [r3, #12]
      TIM_TI1_ConfigInputStage(htim->Instance,
 8004b9e:	461a      	mov	r2, r3
 8004ba0:	f000 fb74 	bl	800528c <TIM_TI1_ConfigInputStage>
      TIM_ITRx_SetConfig(htim->Instance, TIM_CLOCKSOURCE_TI1ED);
 8004ba4:	687b      	ldr	r3, [r7, #4]
 8004ba6:	681b      	ldr	r3, [r3, #0]
 8004ba8:	2140      	movs	r1, #64	@ 0x40
 8004baa:	4618      	mov	r0, r3
 8004bac:	f000 fbcd 	bl	800534a <TIM_ITRx_SetConfig>
      break;
 8004bb0:	e00c      	b.n	8004bcc <HAL_TIM_ConfigClockSource+0x178>
    case TIM_CLOCKSOURCE_ITR3:
    {
      /* Check whether or not the timer instance supports internal trigger input */
      assert_param(IS_TIM_CLOCKSOURCE_ITRX_INSTANCE(htim->Instance));

      TIM_ITRx_SetConfig(htim->Instance, sClockSourceConfig->ClockSource);
 8004bb2:	687b      	ldr	r3, [r7, #4]
 8004bb4:	681a      	ldr	r2, [r3, #0]
 8004bb6:	683b      	ldr	r3, [r7, #0]
 8004bb8:	681b      	ldr	r3, [r3, #0]
 8004bba:	4619      	mov	r1, r3
 8004bbc:	4610      	mov	r0, r2
 8004bbe:	f000 fbc4 	bl	800534a <TIM_ITRx_SetConfig>
      break;
 8004bc2:	e003      	b.n	8004bcc <HAL_TIM_ConfigClockSource+0x178>
    }

    default:
      status = HAL_ERROR;
 8004bc4:	2301      	movs	r3, #1
 8004bc6:	73fb      	strb	r3, [r7, #15]
      break;
 8004bc8:	e000      	b.n	8004bcc <HAL_TIM_ConfigClockSource+0x178>
      break;
 8004bca:	bf00      	nop
  }
  htim->State = HAL_TIM_STATE_READY;
 8004bcc:	687b      	ldr	r3, [r7, #4]
 8004bce:	2201      	movs	r2, #1
 8004bd0:	f883 203d 	strb.w	r2, [r3, #61]	@ 0x3d

  __HAL_UNLOCK(htim);
 8004bd4:	687b      	ldr	r3, [r7, #4]
 8004bd6:	2200      	movs	r2, #0
 8004bd8:	f883 203c 	strb.w	r2, [r3, #60]	@ 0x3c

  return status;
 8004bdc:	7bfb      	ldrb	r3, [r7, #15]
}
 8004bde:	4618      	mov	r0, r3
 8004be0:	3710      	adds	r7, #16
 8004be2:	46bd      	mov	sp, r7
 8004be4:	bd80      	pop	{r7, pc}

08004be6 <HAL_TIM_OC_DelayElapsedCallback>:
  * @brief  Output Compare callback in non-blocking mode
  * @param  htim TIM OC handle
  * @retval None
  */
__weak void HAL_TIM_OC_DelayElapsedCallback(TIM_HandleTypeDef *htim)
{
 8004be6:	b480      	push	{r7}
 8004be8:	b083      	sub	sp, #12
 8004bea:	af00      	add	r7, sp, #0
 8004bec:	6078      	str	r0, [r7, #4]
  UNUSED(htim);

  /* NOTE : This function should not be modified, when the callback is needed,
            the HAL_TIM_OC_DelayElapsedCallback could be implemented in the user file
   */
}
 8004bee:	bf00      	nop
 8004bf0:	370c      	adds	r7, #12
 8004bf2:	46bd      	mov	sp, r7
 8004bf4:	f85d 7b04 	ldr.w	r7, [sp], #4
 8004bf8:	4770      	bx	lr

08004bfa <HAL_TIM_IC_CaptureCallback>:
  * @brief  Input Capture callback in non-blocking mode
  * @param  htim TIM IC handle
  * @retval None
  */
__weak void HAL_TIM_IC_CaptureCallback(TIM_HandleTypeDef *htim)
{
 8004bfa:	b480      	push	{r7}
 8004bfc:	b083      	sub	sp, #12
 8004bfe:	af00      	add	r7, sp, #0
 8004c00:	6078      	str	r0, [r7, #4]
  UNUSED(htim);

  /* NOTE : This function should not be modified, when the callback is needed,
            the HAL_TIM_IC_CaptureCallback could be implemented in the user file
   */
}
 8004c02:	bf00      	nop
 8004c04:	370c      	adds	r7, #12
 8004c06:	46bd      	mov	sp, r7
 8004c08:	f85d 7b04 	ldr.w	r7, [sp], #4
 8004c0c:	4770      	bx	lr

08004c0e <HAL_TIM_PWM_PulseFinishedCallback>:
  * @brief  PWM Pulse finished callback in non-blocking mode
  * @param  htim TIM handle
  * @retval None
  */
__weak void HAL_TIM_PWM_PulseFinishedCallback(TIM_HandleTypeDef *htim)
{
 8004c0e:	b480      	push	{r7}
 8004c10:	b083      	sub	sp, #12
 8004c12:	af00      	add	r7, sp, #0
 8004c14:	6078      	str	r0, [r7, #4]
  UNUSED(htim);

  /* NOTE : This function should not be modified, when the callback is needed,
            the HAL_TIM_PWM_PulseFinishedCallback could be implemented in the user file
   */
}
 8004c16:	bf00      	nop
 8004c18:	370c      	adds	r7, #12
 8004c1a:	46bd      	mov	sp, r7
 8004c1c:	f85d 7b04 	ldr.w	r7, [sp], #4
 8004c20:	4770      	bx	lr

08004c22 <HAL_TIM_TriggerCallback>:
  * @brief  Hall Trigger detection callback in non-blocking mode
  * @param  htim TIM handle
  * @retval None
  */
__weak void HAL_TIM_TriggerCallback(TIM_HandleTypeDef *htim)
{
 8004c22:	b480      	push	{r7}
 8004c24:	b083      	sub	sp, #12
 8004c26:	af00      	add	r7, sp, #0
 8004c28:	6078      	str	r0, [r7, #4]
  UNUSED(htim);

  /* NOTE : This function should not be modified, when the callback is needed,
            the HAL_TIM_TriggerCallback could be implemented in the user file
   */
}
 8004c2a:	bf00      	nop
 8004c2c:	370c      	adds	r7, #12
 8004c2e:	46bd      	mov	sp, r7
 8004c30:	f85d 7b04 	ldr.w	r7, [sp], #4
 8004c34:	4770      	bx	lr
	...

08004c38 <TIM_Base_SetConfig>:
  * @param  TIMx TIM peripheral
  * @param  Structure TIM Base configuration structure
  * @retval None
  */
void TIM_Base_SetConfig(TIM_TypeDef *TIMx, const TIM_Base_InitTypeDef *Structure)
{
 8004c38:	b480      	push	{r7}
 8004c3a:	b085      	sub	sp, #20
 8004c3c:	af00      	add	r7, sp, #0
 8004c3e:	6078      	str	r0, [r7, #4]
 8004c40:	6039      	str	r1, [r7, #0]
  uint32_t tmpcr1;
  tmpcr1 = TIMx->CR1;
 8004c42:	687b      	ldr	r3, [r7, #4]
 8004c44:	681b      	ldr	r3, [r3, #0]
 8004c46:	60fb      	str	r3, [r7, #12]

  /* Set TIM Time Base Unit parameters ---------------------------------------*/
  if (IS_TIM_COUNTER_MODE_SELECT_INSTANCE(TIMx))
 8004c48:	687b      	ldr	r3, [r7, #4]
 8004c4a:	4a38      	ldr	r2, [pc, #224]	@ (8004d2c <TIM_Base_SetConfig+0xf4>)
 8004c4c:	4293      	cmp	r3, r2
 8004c4e:	d007      	beq.n	8004c60 <TIM_Base_SetConfig+0x28>
 8004c50:	687b      	ldr	r3, [r7, #4]
 8004c52:	f1b3 4f80 	cmp.w	r3, #1073741824	@ 0x40000000
 8004c56:	d003      	beq.n	8004c60 <TIM_Base_SetConfig+0x28>
 8004c58:	687b      	ldr	r3, [r7, #4]
 8004c5a:	4a35      	ldr	r2, [pc, #212]	@ (8004d30 <TIM_Base_SetConfig+0xf8>)
 8004c5c:	4293      	cmp	r3, r2
 8004c5e:	d108      	bne.n	8004c72 <TIM_Base_SetConfig+0x3a>
  {
    /* Select the Counter Mode */
    tmpcr1 &= ~(TIM_CR1_DIR | TIM_CR1_CMS);
 8004c60:	68fb      	ldr	r3, [r7, #12]
 8004c62:	f023 0370 	bic.w	r3, r3, #112	@ 0x70
 8004c66:	60fb      	str	r3, [r7, #12]
    tmpcr1 |= Structure->CounterMode;
 8004c68:	683b      	ldr	r3, [r7, #0]
 8004c6a:	685b      	ldr	r3, [r3, #4]
 8004c6c:	68fa      	ldr	r2, [r7, #12]
 8004c6e:	4313      	orrs	r3, r2
 8004c70:	60fb      	str	r3, [r7, #12]
  }

  if (IS_TIM_CLOCK_DIVISION_INSTANCE(TIMx))
 8004c72:	687b      	ldr	r3, [r7, #4]
 8004c74:	4a2d      	ldr	r2, [pc, #180]	@ (8004d2c <TIM_Base_SetConfig+0xf4>)
 8004c76:	4293      	cmp	r3, r2
 8004c78:	d013      	beq.n	8004ca2 <TIM_Base_SetConfig+0x6a>
 8004c7a:	687b      	ldr	r3, [r7, #4]
 8004c7c:	f1b3 4f80 	cmp.w	r3, #1073741824	@ 0x40000000
 8004c80:	d00f      	beq.n	8004ca2 <TIM_Base_SetConfig+0x6a>
 8004c82:	687b      	ldr	r3, [r7, #4]
 8004c84:	4a2a      	ldr	r2, [pc, #168]	@ (8004d30 <TIM_Base_SetConfig+0xf8>)
 8004c86:	4293      	cmp	r3, r2
 8004c88:	d00b      	beq.n	8004ca2 <TIM_Base_SetConfig+0x6a>
 8004c8a:	687b      	ldr	r3, [r7, #4]
 8004c8c:	4a29      	ldr	r2, [pc, #164]	@ (8004d34 <TIM_Base_SetConfig+0xfc>)
 8004c8e:	4293      	cmp	r3, r2
 8004c90:	d007      	beq.n	8004ca2 <TIM_Base_SetConfig+0x6a>
 8004c92:	687b      	ldr	r3, [r7, #4]
 8004c94:	4a28      	ldr	r2, [pc, #160]	@ (8004d38 <TIM_Base_SetConfig+0x100>)
 8004c96:	4293      	cmp	r3, r2
 8004c98:	d003      	beq.n	8004ca2 <TIM_Base_SetConfig+0x6a>
 8004c9a:	687b      	ldr	r3, [r7, #4]
 8004c9c:	4a27      	ldr	r2, [pc, #156]	@ (8004d3c <TIM_Base_SetConfig+0x104>)
 8004c9e:	4293      	cmp	r3, r2
 8004ca0:	d108      	bne.n	8004cb4 <TIM_Base_SetConfig+0x7c>
  {
    /* Set the clock division */
    tmpcr1 &= ~TIM_CR1_CKD;
 8004ca2:	68fb      	ldr	r3, [r7, #12]
 8004ca4:	f423 7340 	bic.w	r3, r3, #768	@ 0x300
 8004ca8:	60fb      	str	r3, [r7, #12]
    tmpcr1 |= (uint32_t)Structure->ClockDivision;
 8004caa:	683b      	ldr	r3, [r7, #0]
 8004cac:	68db      	ldr	r3, [r3, #12]
 8004cae:	68fa      	ldr	r2, [r7, #12]
 8004cb0:	4313      	orrs	r3, r2
 8004cb2:	60fb      	str	r3, [r7, #12]
  }

  /* Set the auto-reload preload */
  MODIFY_REG(tmpcr1, TIM_CR1_ARPE, Structure->AutoReloadPreload);
 8004cb4:	68fb      	ldr	r3, [r7, #12]
 8004cb6:	f023 0280 	bic.w	r2, r3, #128	@ 0x80
 8004cba:	683b      	ldr	r3, [r7, #0]
 8004cbc:	695b      	ldr	r3, [r3, #20]
 8004cbe:	4313      	orrs	r3, r2
 8004cc0:	60fb      	str	r3, [r7, #12]

  TIMx->CR1 = tmpcr1;
 8004cc2:	687b      	ldr	r3, [r7, #4]
 8004cc4:	68fa      	ldr	r2, [r7, #12]
 8004cc6:	601a      	str	r2, [r3, #0]

  /* Set the Autoreload value */
  TIMx->ARR = (uint32_t)Structure->Period ;
 8004cc8:	683b      	ldr	r3, [r7, #0]
 8004cca:	689a      	ldr	r2, [r3, #8]
 8004ccc:	687b      	ldr	r3, [r7, #4]
 8004cce:	62da      	str	r2, [r3, #44]	@ 0x2c

  /* Set the Prescaler value */
  TIMx->PSC = Structure->Prescaler;
 8004cd0:	683b      	ldr	r3, [r7, #0]
 8004cd2:	681a      	ldr	r2, [r3, #0]
 8004cd4:	687b      	ldr	r3, [r7, #4]
 8004cd6:	629a      	str	r2, [r3, #40]	@ 0x28

  if (IS_TIM_REPETITION_COUNTER_INSTANCE(TIMx))
 8004cd8:	687b      	ldr	r3, [r7, #4]
 8004cda:	4a14      	ldr	r2, [pc, #80]	@ (8004d2c <TIM_Base_SetConfig+0xf4>)
 8004cdc:	4293      	cmp	r3, r2
 8004cde:	d00b      	beq.n	8004cf8 <TIM_Base_SetConfig+0xc0>
 8004ce0:	687b      	ldr	r3, [r7, #4]
 8004ce2:	4a14      	ldr	r2, [pc, #80]	@ (8004d34 <TIM_Base_SetConfig+0xfc>)
 8004ce4:	4293      	cmp	r3, r2
 8004ce6:	d007      	beq.n	8004cf8 <TIM_Base_SetConfig+0xc0>
 8004ce8:	687b      	ldr	r3, [r7, #4]
 8004cea:	4a13      	ldr	r2, [pc, #76]	@ (8004d38 <TIM_Base_SetConfig+0x100>)
 8004cec:	4293      	cmp	r3, r2
 8004cee:	d003      	beq.n	8004cf8 <TIM_Base_SetConfig+0xc0>
 8004cf0:	687b      	ldr	r3, [r7, #4]
 8004cf2:	4a12      	ldr	r2, [pc, #72]	@ (8004d3c <TIM_Base_SetConfig+0x104>)
 8004cf4:	4293      	cmp	r3, r2
 8004cf6:	d103      	bne.n	8004d00 <TIM_Base_SetConfig+0xc8>
  {
    /* Set the Repetition Counter value */
    TIMx->RCR = Structure->RepetitionCounter;
 8004cf8:	683b      	ldr	r3, [r7, #0]
 8004cfa:	691a      	ldr	r2, [r3, #16]
 8004cfc:	687b      	ldr	r3, [r7, #4]
 8004cfe:	631a      	str	r2, [r3, #48]	@ 0x30
  }

  /* Generate an update event to reload the Prescaler
     and the repetition counter (only for advanced timer) value immediately */
  TIMx->EGR = TIM_EGR_UG;
 8004d00:	687b      	ldr	r3, [r7, #4]
 8004d02:	2201      	movs	r2, #1
 8004d04:	615a      	str	r2, [r3, #20]

  /* Check if the update flag is set after the Update Generation, if so clear the UIF flag */
  if (HAL_IS_BIT_SET(TIMx->SR, TIM_FLAG_UPDATE))
 8004d06:	687b      	ldr	r3, [r7, #4]
 8004d08:	691b      	ldr	r3, [r3, #16]
 8004d0a:	f003 0301 	and.w	r3, r3, #1
 8004d0e:	2b01      	cmp	r3, #1
 8004d10:	d105      	bne.n	8004d1e <TIM_Base_SetConfig+0xe6>
  {
    /* Clear the update flag */
    CLEAR_BIT(TIMx->SR, TIM_FLAG_UPDATE);
 8004d12:	687b      	ldr	r3, [r7, #4]
 8004d14:	691b      	ldr	r3, [r3, #16]
 8004d16:	f023 0201 	bic.w	r2, r3, #1
 8004d1a:	687b      	ldr	r3, [r7, #4]
 8004d1c:	611a      	str	r2, [r3, #16]
  }
}
 8004d1e:	bf00      	nop
 8004d20:	3714      	adds	r7, #20
 8004d22:	46bd      	mov	sp, r7
 8004d24:	f85d 7b04 	ldr.w	r7, [sp], #4
 8004d28:	4770      	bx	lr
 8004d2a:	bf00      	nop
 8004d2c:	40012c00 	.word	0x40012c00
 8004d30:	40000400 	.word	0x40000400
 8004d34:	40014000 	.word	0x40014000
 8004d38:	40014400 	.word	0x40014400
 8004d3c:	40014800 	.word	0x40014800

08004d40 <TIM_OC1_SetConfig>:
  * @param  TIMx to select the TIM peripheral
  * @param  OC_Config The output configuration structure
  * @retval None
  */
static void TIM_OC1_SetConfig(TIM_TypeDef *TIMx, const TIM_OC_InitTypeDef *OC_Config)
{
 8004d40:	b480      	push	{r7}
 8004d42:	b087      	sub	sp, #28
 8004d44:	af00      	add	r7, sp, #0
 8004d46:	6078      	str	r0, [r7, #4]
 8004d48:	6039      	str	r1, [r7, #0]
  uint32_t tmpccmrx;
  uint32_t tmpccer;
  uint32_t tmpcr2;

  /* Get the TIMx CCER register value */
  tmpccer = TIMx->CCER;
 8004d4a:	687b      	ldr	r3, [r7, #4]
 8004d4c:	6a1b      	ldr	r3, [r3, #32]
 8004d4e:	617b      	str	r3, [r7, #20]

  /* Disable the Channel 1: Reset the CC1E Bit */
  TIMx->CCER &= ~TIM_CCER_CC1E;
 8004d50:	687b      	ldr	r3, [r7, #4]
 8004d52:	6a1b      	ldr	r3, [r3, #32]
 8004d54:	f023 0201 	bic.w	r2, r3, #1
 8004d58:	687b      	ldr	r3, [r7, #4]
 8004d5a:	621a      	str	r2, [r3, #32]

  /* Get the TIMx CR2 register value */
  tmpcr2 =  TIMx->CR2;
 8004d5c:	687b      	ldr	r3, [r7, #4]
 8004d5e:	685b      	ldr	r3, [r3, #4]
 8004d60:	613b      	str	r3, [r7, #16]

  /* Get the TIMx CCMR1 register value */
  tmpccmrx = TIMx->CCMR1;
 8004d62:	687b      	ldr	r3, [r7, #4]
 8004d64:	699b      	ldr	r3, [r3, #24]
 8004d66:	60fb      	str	r3, [r7, #12]

  /* Reset the Output Compare Mode Bits */
  tmpccmrx &= ~TIM_CCMR1_OC1M;
 8004d68:	68fb      	ldr	r3, [r7, #12]
 8004d6a:	f423 3380 	bic.w	r3, r3, #65536	@ 0x10000
 8004d6e:	f023 0370 	bic.w	r3, r3, #112	@ 0x70
 8004d72:	60fb      	str	r3, [r7, #12]
  tmpccmrx &= ~TIM_CCMR1_CC1S;
 8004d74:	68fb      	ldr	r3, [r7, #12]
 8004d76:	f023 0303 	bic.w	r3, r3, #3
 8004d7a:	60fb      	str	r3, [r7, #12]
  /* Select the Output Compare Mode */
  tmpccmrx |= OC_Config->OCMode;
 8004d7c:	683b      	ldr	r3, [r7, #0]
 8004d7e:	681b      	ldr	r3, [r3, #0]
 8004d80:	68fa      	ldr	r2, [r7, #12]
 8004d82:	4313      	orrs	r3, r2
 8004d84:	60fb      	str	r3, [r7, #12]

  /* Reset the Output Polarity level */
  tmpccer &= ~TIM_CCER_CC1P;
 8004d86:	697b      	ldr	r3, [r7, #20]
 8004d88:	f023 0302 	bic.w	r3, r3, #2
 8004d8c:	617b      	str	r3, [r7, #20]
  /* Set the Output Compare Polarity */
  tmpccer |= OC_Config->OCPolarity;
 8004d8e:	683b      	ldr	r3, [r7, #0]
 8004d90:	689b      	ldr	r3, [r3, #8]
 8004d92:	697a      	ldr	r2, [r7, #20]
 8004d94:	4313      	orrs	r3, r2
 8004d96:	617b      	str	r3, [r7, #20]

  if (IS_TIM_CCXN_INSTANCE(TIMx, TIM_CHANNEL_1))
 8004d98:	687b      	ldr	r3, [r7, #4]
 8004d9a:	4a28      	ldr	r2, [pc, #160]	@ (8004e3c <TIM_OC1_SetConfig+0xfc>)
 8004d9c:	4293      	cmp	r3, r2
 8004d9e:	d00b      	beq.n	8004db8 <TIM_OC1_SetConfig+0x78>
 8004da0:	687b      	ldr	r3, [r7, #4]
 8004da2:	4a27      	ldr	r2, [pc, #156]	@ (8004e40 <TIM_OC1_SetConfig+0x100>)
 8004da4:	4293      	cmp	r3, r2
 8004da6:	d007      	beq.n	8004db8 <TIM_OC1_SetConfig+0x78>
 8004da8:	687b      	ldr	r3, [r7, #4]
 8004daa:	4a26      	ldr	r2, [pc, #152]	@ (8004e44 <TIM_OC1_SetConfig+0x104>)
 8004dac:	4293      	cmp	r3, r2
 8004dae:	d003      	beq.n	8004db8 <TIM_OC1_SetConfig+0x78>
 8004db0:	687b      	ldr	r3, [r7, #4]
 8004db2:	4a25      	ldr	r2, [pc, #148]	@ (8004e48 <TIM_OC1_SetConfig+0x108>)
 8004db4:	4293      	cmp	r3, r2
 8004db6:	d10c      	bne.n	8004dd2 <TIM_OC1_SetConfig+0x92>
  {
    /* Check parameters */
    assert_param(IS_TIM_OCN_POLARITY(OC_Config->OCNPolarity));

    /* Reset the Output N Polarity level */
    tmpccer &= ~TIM_CCER_CC1NP;
 8004db8:	697b      	ldr	r3, [r7, #20]
 8004dba:	f023 0308 	bic.w	r3, r3, #8
 8004dbe:	617b      	str	r3, [r7, #20]
    /* Set the Output N Polarity */
    tmpccer |= OC_Config->OCNPolarity;
 8004dc0:	683b      	ldr	r3, [r7, #0]
 8004dc2:	68db      	ldr	r3, [r3, #12]
 8004dc4:	697a      	ldr	r2, [r7, #20]
 8004dc6:	4313      	orrs	r3, r2
 8004dc8:	617b      	str	r3, [r7, #20]
    /* Reset the Output N State */
    tmpccer &= ~TIM_CCER_CC1NE;
 8004dca:	697b      	ldr	r3, [r7, #20]
 8004dcc:	f023 0304 	bic.w	r3, r3, #4
 8004dd0:	617b      	str	r3, [r7, #20]
  }

  if (IS_TIM_BREAK_INSTANCE(TIMx))
 8004dd2:	687b      	ldr	r3, [r7, #4]
 8004dd4:	4a19      	ldr	r2, [pc, #100]	@ (8004e3c <TIM_OC1_SetConfig+0xfc>)
 8004dd6:	4293      	cmp	r3, r2
 8004dd8:	d00b      	beq.n	8004df2 <TIM_OC1_SetConfig+0xb2>
 8004dda:	687b      	ldr	r3, [r7, #4]
 8004ddc:	4a18      	ldr	r2, [pc, #96]	@ (8004e40 <TIM_OC1_SetConfig+0x100>)
 8004dde:	4293      	cmp	r3, r2
 8004de0:	d007      	beq.n	8004df2 <TIM_OC1_SetConfig+0xb2>
 8004de2:	687b      	ldr	r3, [r7, #4]
 8004de4:	4a17      	ldr	r2, [pc, #92]	@ (8004e44 <TIM_OC1_SetConfig+0x104>)
 8004de6:	4293      	cmp	r3, r2
 8004de8:	d003      	beq.n	8004df2 <TIM_OC1_SetConfig+0xb2>
 8004dea:	687b      	ldr	r3, [r7, #4]
 8004dec:	4a16      	ldr	r2, [pc, #88]	@ (8004e48 <TIM_OC1_SetConfig+0x108>)
 8004dee:	4293      	cmp	r3, r2
 8004df0:	d111      	bne.n	8004e16 <TIM_OC1_SetConfig+0xd6>
    /* Check parameters */
    assert_param(IS_TIM_OCNIDLE_STATE(OC_Config->OCNIdleState));
    assert_param(IS_TIM_OCIDLE_STATE(OC_Config->OCIdleState));

    /* Reset the Output Compare and Output Compare N IDLE State */
    tmpcr2 &= ~TIM_CR2_OIS1;
 8004df2:	693b      	ldr	r3, [r7, #16]
 8004df4:	f423 7380 	bic.w	r3, r3, #256	@ 0x100
 8004df8:	613b      	str	r3, [r7, #16]
    tmpcr2 &= ~TIM_CR2_OIS1N;
 8004dfa:	693b      	ldr	r3, [r7, #16]
 8004dfc:	f423 7300 	bic.w	r3, r3, #512	@ 0x200
 8004e00:	613b      	str	r3, [r7, #16]
    /* Set the Output Idle state */
    tmpcr2 |= OC_Config->OCIdleState;
 8004e02:	683b      	ldr	r3, [r7, #0]
 8004e04:	695b      	ldr	r3, [r3, #20]
 8004e06:	693a      	ldr	r2, [r7, #16]
 8004e08:	4313      	orrs	r3, r2
 8004e0a:	613b      	str	r3, [r7, #16]
    /* Set the Output N Idle state */
    tmpcr2 |= OC_Config->OCNIdleState;
 8004e0c:	683b      	ldr	r3, [r7, #0]
 8004e0e:	699b      	ldr	r3, [r3, #24]
 8004e10:	693a      	ldr	r2, [r7, #16]
 8004e12:	4313      	orrs	r3, r2
 8004e14:	613b      	str	r3, [r7, #16]
  }

  /* Write to TIMx CR2 */
  TIMx->CR2 = tmpcr2;
 8004e16:	687b      	ldr	r3, [r7, #4]
 8004e18:	693a      	ldr	r2, [r7, #16]
 8004e1a:	605a      	str	r2, [r3, #4]

  /* Write to TIMx CCMR1 */
  TIMx->CCMR1 = tmpccmrx;
 8004e1c:	687b      	ldr	r3, [r7, #4]
 8004e1e:	68fa      	ldr	r2, [r7, #12]
 8004e20:	619a      	str	r2, [r3, #24]

  /* Set the Capture Compare Register value */
  TIMx->CCR1 = OC_Config->Pulse;
 8004e22:	683b      	ldr	r3, [r7, #0]
 8004e24:	685a      	ldr	r2, [r3, #4]
 8004e26:	687b      	ldr	r3, [r7, #4]
 8004e28:	635a      	str	r2, [r3, #52]	@ 0x34

  /* Write to TIMx CCER */
  TIMx->CCER = tmpccer;
 8004e2a:	687b      	ldr	r3, [r7, #4]
 8004e2c:	697a      	ldr	r2, [r7, #20]
 8004e2e:	621a      	str	r2, [r3, #32]
}
 8004e30:	bf00      	nop
 8004e32:	371c      	adds	r7, #28
 8004e34:	46bd      	mov	sp, r7
 8004e36:	f85d 7b04 	ldr.w	r7, [sp], #4
 8004e3a:	4770      	bx	lr
 8004e3c:	40012c00 	.word	0x40012c00
 8004e40:	40014000 	.word	0x40014000
 8004e44:	40014400 	.word	0x40014400
 8004e48:	40014800 	.word	0x40014800

08004e4c <TIM_OC2_SetConfig>:
  * @param  TIMx to select the TIM peripheral
  * @param  OC_Config The output configuration structure
  * @retval None
  */
void TIM_OC2_SetConfig(TIM_TypeDef *TIMx, const TIM_OC_InitTypeDef *OC_Config)
{
 8004e4c:	b480      	push	{r7}
 8004e4e:	b087      	sub	sp, #28
 8004e50:	af00      	add	r7, sp, #0
 8004e52:	6078      	str	r0, [r7, #4]
 8004e54:	6039      	str	r1, [r7, #0]
  uint32_t tmpccmrx;
  uint32_t tmpccer;
  uint32_t tmpcr2;

  /* Get the TIMx CCER register value */
  tmpccer = TIMx->CCER;
 8004e56:	687b      	ldr	r3, [r7, #4]
 8004e58:	6a1b      	ldr	r3, [r3, #32]
 8004e5a:	617b      	str	r3, [r7, #20]

  /* Disable the Channel 2: Reset the CC2E Bit */
  TIMx->CCER &= ~TIM_CCER_CC2E;
 8004e5c:	687b      	ldr	r3, [r7, #4]
 8004e5e:	6a1b      	ldr	r3, [r3, #32]
 8004e60:	f023 0210 	bic.w	r2, r3, #16
 8004e64:	687b      	ldr	r3, [r7, #4]
 8004e66:	621a      	str	r2, [r3, #32]

  /* Get the TIMx CR2 register value */
  tmpcr2 =  TIMx->CR2;
 8004e68:	687b      	ldr	r3, [r7, #4]
 8004e6a:	685b      	ldr	r3, [r3, #4]
 8004e6c:	613b      	str	r3, [r7, #16]

  /* Get the TIMx CCMR1 register value */
  tmpccmrx = TIMx->CCMR1;
 8004e6e:	687b      	ldr	r3, [r7, #4]
 8004e70:	699b      	ldr	r3, [r3, #24]
 8004e72:	60fb      	str	r3, [r7, #12]

  /* Reset the Output Compare mode and Capture/Compare selection Bits */
  tmpccmrx &= ~TIM_CCMR1_OC2M;
 8004e74:	68fb      	ldr	r3, [r7, #12]
 8004e76:	f023 7380 	bic.w	r3, r3, #16777216	@ 0x1000000
 8004e7a:	f423 43e0 	bic.w	r3, r3, #28672	@ 0x7000
 8004e7e:	60fb      	str	r3, [r7, #12]
  tmpccmrx &= ~TIM_CCMR1_CC2S;
 8004e80:	68fb      	ldr	r3, [r7, #12]
 8004e82:	f423 7340 	bic.w	r3, r3, #768	@ 0x300
 8004e86:	60fb      	str	r3, [r7, #12]

  /* Select the Output Compare Mode */
  tmpccmrx |= (OC_Config->OCMode << 8U);
 8004e88:	683b      	ldr	r3, [r7, #0]
 8004e8a:	681b      	ldr	r3, [r3, #0]
 8004e8c:	021b      	lsls	r3, r3, #8
 8004e8e:	68fa      	ldr	r2, [r7, #12]
 8004e90:	4313      	orrs	r3, r2
 8004e92:	60fb      	str	r3, [r7, #12]

  /* Reset the Output Polarity level */
  tmpccer &= ~TIM_CCER_CC2P;
 8004e94:	697b      	ldr	r3, [r7, #20]
 8004e96:	f023 0320 	bic.w	r3, r3, #32
 8004e9a:	617b      	str	r3, [r7, #20]
  /* Set the Output Compare Polarity */
  tmpccer |= (OC_Config->OCPolarity << 4U);
 8004e9c:	683b      	ldr	r3, [r7, #0]
 8004e9e:	689b      	ldr	r3, [r3, #8]
 8004ea0:	011b      	lsls	r3, r3, #4
 8004ea2:	697a      	ldr	r2, [r7, #20]
 8004ea4:	4313      	orrs	r3, r2
 8004ea6:	617b      	str	r3, [r7, #20]

  if (IS_TIM_CCXN_INSTANCE(TIMx, TIM_CHANNEL_2))
 8004ea8:	687b      	ldr	r3, [r7, #4]
 8004eaa:	4a24      	ldr	r2, [pc, #144]	@ (8004f3c <TIM_OC2_SetConfig+0xf0>)
 8004eac:	4293      	cmp	r3, r2
 8004eae:	d10d      	bne.n	8004ecc <TIM_OC2_SetConfig+0x80>
  {
    assert_param(IS_TIM_OCN_POLARITY(OC_Config->OCNPolarity));

    /* Reset the Output N Polarity level */
    tmpccer &= ~TIM_CCER_CC2NP;
 8004eb0:	697b      	ldr	r3, [r7, #20]
 8004eb2:	f023 0380 	bic.w	r3, r3, #128	@ 0x80
 8004eb6:	617b      	str	r3, [r7, #20]
    /* Set the Output N Polarity */
    tmpccer |= (OC_Config->OCNPolarity << 4U);
 8004eb8:	683b      	ldr	r3, [r7, #0]
 8004eba:	68db      	ldr	r3, [r3, #12]
 8004ebc:	011b      	lsls	r3, r3, #4
 8004ebe:	697a      	ldr	r2, [r7, #20]
 8004ec0:	4313      	orrs	r3, r2
 8004ec2:	617b      	str	r3, [r7, #20]
    /* Reset the Output N State */
    tmpccer &= ~TIM_CCER_CC2NE;
 8004ec4:	697b      	ldr	r3, [r7, #20]
 8004ec6:	f023 0340 	bic.w	r3, r3, #64	@ 0x40
 8004eca:	617b      	str	r3, [r7, #20]
  }

  if (IS_TIM_BREAK_INSTANCE(TIMx))
 8004ecc:	687b      	ldr	r3, [r7, #4]
 8004ece:	4a1b      	ldr	r2, [pc, #108]	@ (8004f3c <TIM_OC2_SetConfig+0xf0>)
 8004ed0:	4293      	cmp	r3, r2
 8004ed2:	d00b      	beq.n	8004eec <TIM_OC2_SetConfig+0xa0>
 8004ed4:	687b      	ldr	r3, [r7, #4]
 8004ed6:	4a1a      	ldr	r2, [pc, #104]	@ (8004f40 <TIM_OC2_SetConfig+0xf4>)
 8004ed8:	4293      	cmp	r3, r2
 8004eda:	d007      	beq.n	8004eec <TIM_OC2_SetConfig+0xa0>
 8004edc:	687b      	ldr	r3, [r7, #4]
 8004ede:	4a19      	ldr	r2, [pc, #100]	@ (8004f44 <TIM_OC2_SetConfig+0xf8>)
 8004ee0:	4293      	cmp	r3, r2
 8004ee2:	d003      	beq.n	8004eec <TIM_OC2_SetConfig+0xa0>
 8004ee4:	687b      	ldr	r3, [r7, #4]
 8004ee6:	4a18      	ldr	r2, [pc, #96]	@ (8004f48 <TIM_OC2_SetConfig+0xfc>)
 8004ee8:	4293      	cmp	r3, r2
 8004eea:	d113      	bne.n	8004f14 <TIM_OC2_SetConfig+0xc8>
    /* Check parameters */
    assert_param(IS_TIM_OCNIDLE_STATE(OC_Config->OCNIdleState));
    assert_param(IS_TIM_OCIDLE_STATE(OC_Config->OCIdleState));

    /* Reset the Output Compare and Output Compare N IDLE State */
    tmpcr2 &= ~TIM_CR2_OIS2;
 8004eec:	693b      	ldr	r3, [r7, #16]
 8004eee:	f423 6380 	bic.w	r3, r3, #1024	@ 0x400
 8004ef2:	613b      	str	r3, [r7, #16]
#if defined(TIM_CR2_OIS2N)
    tmpcr2 &= ~TIM_CR2_OIS2N;
 8004ef4:	693b      	ldr	r3, [r7, #16]
 8004ef6:	f423 6300 	bic.w	r3, r3, #2048	@ 0x800
 8004efa:	613b      	str	r3, [r7, #16]
#endif /* TIM_CR2_OIS2N */
    /* Set the Output Idle state */
    tmpcr2 |= (OC_Config->OCIdleState << 2U);
 8004efc:	683b      	ldr	r3, [r7, #0]
 8004efe:	695b      	ldr	r3, [r3, #20]
 8004f00:	009b      	lsls	r3, r3, #2
 8004f02:	693a      	ldr	r2, [r7, #16]
 8004f04:	4313      	orrs	r3, r2
 8004f06:	613b      	str	r3, [r7, #16]
    /* Set the Output N Idle state */
    tmpcr2 |= (OC_Config->OCNIdleState << 2U);
 8004f08:	683b      	ldr	r3, [r7, #0]
 8004f0a:	699b      	ldr	r3, [r3, #24]
 8004f0c:	009b      	lsls	r3, r3, #2
 8004f0e:	693a      	ldr	r2, [r7, #16]
 8004f10:	4313      	orrs	r3, r2
 8004f12:	613b      	str	r3, [r7, #16]
  }

  /* Write to TIMx CR2 */
  TIMx->CR2 = tmpcr2;
 8004f14:	687b      	ldr	r3, [r7, #4]
 8004f16:	693a      	ldr	r2, [r7, #16]
 8004f18:	605a      	str	r2, [r3, #4]

  /* Write to TIMx CCMR1 */
  TIMx->CCMR1 = tmpccmrx;
 8004f1a:	687b      	ldr	r3, [r7, #4]
 8004f1c:	68fa      	ldr	r2, [r7, #12]
 8004f1e:	619a      	str	r2, [r3, #24]

  /* Set the Capture Compare Register value */
  TIMx->CCR2 = OC_Config->Pulse;
 8004f20:	683b      	ldr	r3, [r7, #0]
 8004f22:	685a      	ldr	r2, [r3, #4]
 8004f24:	687b      	ldr	r3, [r7, #4]
 8004f26:	639a      	str	r2, [r3, #56]	@ 0x38

  /* Write to TIMx CCER */
  TIMx->CCER = tmpccer;
 8004f28:	687b      	ldr	r3, [r7, #4]
 8004f2a:	697a      	ldr	r2, [r7, #20]
 8004f2c:	621a      	str	r2, [r3, #32]
}
 8004f2e:	bf00      	nop
 8004f30:	371c      	adds	r7, #28
 8004f32:	46bd      	mov	sp, r7
 8004f34:	f85d 7b04 	ldr.w	r7, [sp], #4
 8004f38:	4770      	bx	lr
 8004f3a:	bf00      	nop
 8004f3c:	40012c00 	.word	0x40012c00
 8004f40:	40014000 	.word	0x40014000
 8004f44:	40014400 	.word	0x40014400
 8004f48:	40014800 	.word	0x40014800

08004f4c <TIM_OC3_SetConfig>:
  * @param  TIMx to select the TIM peripheral
  * @param  OC_Config The output configuration structure
  * @retval None
  */
static void TIM_OC3_SetConfig(TIM_TypeDef *TIMx, const TIM_OC_InitTypeDef *OC_Config)
{
 8004f4c:	b480      	push	{r7}
 8004f4e:	b087      	sub	sp, #28
 8004f50:	af00      	add	r7, sp, #0
 8004f52:	6078      	str	r0, [r7, #4]
 8004f54:	6039      	str	r1, [r7, #0]
  uint32_t tmpccmrx;
  uint32_t tmpccer;
  uint32_t tmpcr2;

  /* Get the TIMx CCER register value */
  tmpccer = TIMx->CCER;
 8004f56:	687b      	ldr	r3, [r7, #4]
 8004f58:	6a1b      	ldr	r3, [r3, #32]
 8004f5a:	617b      	str	r3, [r7, #20]

  /* Disable the Channel 3: Reset the CC2E Bit */
  TIMx->CCER &= ~TIM_CCER_CC3E;
 8004f5c:	687b      	ldr	r3, [r7, #4]
 8004f5e:	6a1b      	ldr	r3, [r3, #32]
 8004f60:	f423 7280 	bic.w	r2, r3, #256	@ 0x100
 8004f64:	687b      	ldr	r3, [r7, #4]
 8004f66:	621a      	str	r2, [r3, #32]

  /* Get the TIMx CR2 register value */
  tmpcr2 =  TIMx->CR2;
 8004f68:	687b      	ldr	r3, [r7, #4]
 8004f6a:	685b      	ldr	r3, [r3, #4]
 8004f6c:	613b      	str	r3, [r7, #16]

  /* Get the TIMx CCMR2 register value */
  tmpccmrx = TIMx->CCMR2;
 8004f6e:	687b      	ldr	r3, [r7, #4]
 8004f70:	69db      	ldr	r3, [r3, #28]
 8004f72:	60fb      	str	r3, [r7, #12]

  /* Reset the Output Compare mode and Capture/Compare selection Bits */
  tmpccmrx &= ~TIM_CCMR2_OC3M;
 8004f74:	68fb      	ldr	r3, [r7, #12]
 8004f76:	f423 3380 	bic.w	r3, r3, #65536	@ 0x10000
 8004f7a:	f023 0370 	bic.w	r3, r3, #112	@ 0x70
 8004f7e:	60fb      	str	r3, [r7, #12]
  tmpccmrx &= ~TIM_CCMR2_CC3S;
 8004f80:	68fb      	ldr	r3, [r7, #12]
 8004f82:	f023 0303 	bic.w	r3, r3, #3
 8004f86:	60fb      	str	r3, [r7, #12]
  /* Select the Output Compare Mode */
  tmpccmrx |= OC_Config->OCMode;
 8004f88:	683b      	ldr	r3, [r7, #0]
 8004f8a:	681b      	ldr	r3, [r3, #0]
 8004f8c:	68fa      	ldr	r2, [r7, #12]
 8004f8e:	4313      	orrs	r3, r2
 8004f90:	60fb      	str	r3, [r7, #12]

  /* Reset the Output Polarity level */
  tmpccer &= ~TIM_CCER_CC3P;
 8004f92:	697b      	ldr	r3, [r7, #20]
 8004f94:	f423 7300 	bic.w	r3, r3, #512	@ 0x200
 8004f98:	617b      	str	r3, [r7, #20]
  /* Set the Output Compare Polarity */
  tmpccer |= (OC_Config->OCPolarity << 8U);
 8004f9a:	683b      	ldr	r3, [r7, #0]
 8004f9c:	689b      	ldr	r3, [r3, #8]
 8004f9e:	021b      	lsls	r3, r3, #8
 8004fa0:	697a      	ldr	r2, [r7, #20]
 8004fa2:	4313      	orrs	r3, r2
 8004fa4:	617b      	str	r3, [r7, #20]

  if (IS_TIM_CCXN_INSTANCE(TIMx, TIM_CHANNEL_3))
 8004fa6:	687b      	ldr	r3, [r7, #4]
 8004fa8:	4a23      	ldr	r2, [pc, #140]	@ (8005038 <TIM_OC3_SetConfig+0xec>)
 8004faa:	4293      	cmp	r3, r2
 8004fac:	d10d      	bne.n	8004fca <TIM_OC3_SetConfig+0x7e>
  {
    assert_param(IS_TIM_OCN_POLARITY(OC_Config->OCNPolarity));

    /* Reset the Output N Polarity level */
    tmpccer &= ~TIM_CCER_CC3NP;
 8004fae:	697b      	ldr	r3, [r7, #20]
 8004fb0:	f423 6300 	bic.w	r3, r3, #2048	@ 0x800
 8004fb4:	617b      	str	r3, [r7, #20]
    /* Set the Output N Polarity */
    tmpccer |= (OC_Config->OCNPolarity << 8U);
 8004fb6:	683b      	ldr	r3, [r7, #0]
 8004fb8:	68db      	ldr	r3, [r3, #12]
 8004fba:	021b      	lsls	r3, r3, #8
 8004fbc:	697a      	ldr	r2, [r7, #20]
 8004fbe:	4313      	orrs	r3, r2
 8004fc0:	617b      	str	r3, [r7, #20]
    /* Reset the Output N State */
    tmpccer &= ~TIM_CCER_CC3NE;
 8004fc2:	697b      	ldr	r3, [r7, #20]
 8004fc4:	f423 6380 	bic.w	r3, r3, #1024	@ 0x400
 8004fc8:	617b      	str	r3, [r7, #20]
  }

#if defined(TIM_CR2_OIS3)
  if (IS_TIM_BREAK_INSTANCE(TIMx))
 8004fca:	687b      	ldr	r3, [r7, #4]
 8004fcc:	4a1a      	ldr	r2, [pc, #104]	@ (8005038 <TIM_OC3_SetConfig+0xec>)
 8004fce:	4293      	cmp	r3, r2
 8004fd0:	d00b      	beq.n	8004fea <TIM_OC3_SetConfig+0x9e>
 8004fd2:	687b      	ldr	r3, [r7, #4]
 8004fd4:	4a19      	ldr	r2, [pc, #100]	@ (800503c <TIM_OC3_SetConfig+0xf0>)
 8004fd6:	4293      	cmp	r3, r2
 8004fd8:	d007      	beq.n	8004fea <TIM_OC3_SetConfig+0x9e>
 8004fda:	687b      	ldr	r3, [r7, #4]
 8004fdc:	4a18      	ldr	r2, [pc, #96]	@ (8005040 <TIM_OC3_SetConfig+0xf4>)
 8004fde:	4293      	cmp	r3, r2
 8004fe0:	d003      	beq.n	8004fea <TIM_OC3_SetConfig+0x9e>
 8004fe2:	687b      	ldr	r3, [r7, #4]
 8004fe4:	4a17      	ldr	r2, [pc, #92]	@ (8005044 <TIM_OC3_SetConfig+0xf8>)
 8004fe6:	4293      	cmp	r3, r2
 8004fe8:	d113      	bne.n	8005012 <TIM_OC3_SetConfig+0xc6>
    /* Check parameters */
    assert_param(IS_TIM_OCNIDLE_STATE(OC_Config->OCNIdleState));
    assert_param(IS_TIM_OCIDLE_STATE(OC_Config->OCIdleState));

    /* Reset the Output Compare and Output Compare N IDLE State */
    tmpcr2 &= ~TIM_CR2_OIS3;
 8004fea:	693b      	ldr	r3, [r7, #16]
 8004fec:	f423 5380 	bic.w	r3, r3, #4096	@ 0x1000
 8004ff0:	613b      	str	r3, [r7, #16]
    tmpcr2 &= ~TIM_CR2_OIS3N;
 8004ff2:	693b      	ldr	r3, [r7, #16]
 8004ff4:	f423 5300 	bic.w	r3, r3, #8192	@ 0x2000
 8004ff8:	613b      	str	r3, [r7, #16]
    /* Set the Output Idle state */
    tmpcr2 |= (OC_Config->OCIdleState << 4U);
 8004ffa:	683b      	ldr	r3, [r7, #0]
 8004ffc:	695b      	ldr	r3, [r3, #20]
 8004ffe:	011b      	lsls	r3, r3, #4
 8005000:	693a      	ldr	r2, [r7, #16]
 8005002:	4313      	orrs	r3, r2
 8005004:	613b      	str	r3, [r7, #16]
    /* Set the Output N Idle state */
    tmpcr2 |= (OC_Config->OCNIdleState << 4U);
 8005006:	683b      	ldr	r3, [r7, #0]
 8005008:	699b      	ldr	r3, [r3, #24]
 800500a:	011b      	lsls	r3, r3, #4
 800500c:	693a      	ldr	r2, [r7, #16]
 800500e:	4313      	orrs	r3, r2
 8005010:	613b      	str	r3, [r7, #16]
  }
#endif /* TIM_CR2_OIS3 */

  /* Write to TIMx CR2 */
  TIMx->CR2 = tmpcr2;
 8005012:	687b      	ldr	r3, [r7, #4]
 8005014:	693a      	ldr	r2, [r7, #16]
 8005016:	605a      	str	r2, [r3, #4]

  /* Write to TIMx CCMR2 */
  TIMx->CCMR2 = tmpccmrx;
 8005018:	687b      	ldr	r3, [r7, #4]
 800501a:	68fa      	ldr	r2, [r7, #12]
 800501c:	61da      	str	r2, [r3, #28]

  /* Set the Capture Compare Register value */
  TIMx->CCR3 = OC_Config->Pulse;
 800501e:	683b      	ldr	r3, [r7, #0]
 8005020:	685a      	ldr	r2, [r3, #4]
 8005022:	687b      	ldr	r3, [r7, #4]
 8005024:	63da      	str	r2, [r3, #60]	@ 0x3c

  /* Write to TIMx CCER */
  TIMx->CCER = tmpccer;
 8005026:	687b      	ldr	r3, [r7, #4]
 8005028:	697a      	ldr	r2, [r7, #20]
 800502a:	621a      	str	r2, [r3, #32]
}
 800502c:	bf00      	nop
 800502e:	371c      	adds	r7, #28
 8005030:	46bd      	mov	sp, r7
 8005032:	f85d 7b04 	ldr.w	r7, [sp], #4
 8005036:	4770      	bx	lr
 8005038:	40012c00 	.word	0x40012c00
 800503c:	40014000 	.word	0x40014000
 8005040:	40014400 	.word	0x40014400
 8005044:	40014800 	.word	0x40014800

08005048 <TIM_OC4_SetConfig>:
  * @param  TIMx to select the TIM peripheral
  * @param  OC_Config The output configuration structure
  * @retval None
  */
static void TIM_OC4_SetConfig(TIM_TypeDef *TIMx, const TIM_OC_InitTypeDef *OC_Config)
{
 8005048:	b480      	push	{r7}
 800504a:	b087      	sub	sp, #28
 800504c:	af00      	add	r7, sp, #0
 800504e:	6078      	str	r0, [r7, #4]
 8005050:	6039      	str	r1, [r7, #0]
  uint32_t tmpccmrx;
  uint32_t tmpccer;
  uint32_t tmpcr2;

  /* Get the TIMx CCER register value */
  tmpccer = TIMx->CCER;
 8005052:	687b      	ldr	r3, [r7, #4]
 8005054:	6a1b      	ldr	r3, [r3, #32]
 8005056:	613b      	str	r3, [r7, #16]

  /* Disable the Channel 4: Reset the CC4E Bit */
  TIMx->CCER &= ~TIM_CCER_CC4E;
 8005058:	687b      	ldr	r3, [r7, #4]
 800505a:	6a1b      	ldr	r3, [r3, #32]
 800505c:	f423 5280 	bic.w	r2, r3, #4096	@ 0x1000
 8005060:	687b      	ldr	r3, [r7, #4]
 8005062:	621a      	str	r2, [r3, #32]

  /* Get the TIMx CR2 register value */
  tmpcr2 =  TIMx->CR2;
 8005064:	687b      	ldr	r3, [r7, #4]
 8005066:	685b      	ldr	r3, [r3, #4]
 8005068:	617b      	str	r3, [r7, #20]

  /* Get the TIMx CCMR2 register value */
  tmpccmrx = TIMx->CCMR2;
 800506a:	687b      	ldr	r3, [r7, #4]
 800506c:	69db      	ldr	r3, [r3, #28]
 800506e:	60fb      	str	r3, [r7, #12]

  /* Reset the Output Compare mode and Capture/Compare selection Bits */
  tmpccmrx &= ~TIM_CCMR2_OC4M;
 8005070:	68fb      	ldr	r3, [r7, #12]
 8005072:	f023 7380 	bic.w	r3, r3, #16777216	@ 0x1000000
 8005076:	f423 43e0 	bic.w	r3, r3, #28672	@ 0x7000
 800507a:	60fb      	str	r3, [r7, #12]
  tmpccmrx &= ~TIM_CCMR2_CC4S;
 800507c:	68fb      	ldr	r3, [r7, #12]
 800507e:	f423 7340 	bic.w	r3, r3, #768	@ 0x300
 8005082:	60fb      	str	r3, [r7, #12]

  /* Select the Output Compare Mode */
  tmpccmrx |= (OC_Config->OCMode << 8U);
 8005084:	683b      	ldr	r3, [r7, #0]
 8005086:	681b      	ldr	r3, [r3, #0]
 8005088:	021b      	lsls	r3, r3, #8
 800508a:	68fa      	ldr	r2, [r7, #12]
 800508c:	4313      	orrs	r3, r2
 800508e:	60fb      	str	r3, [r7, #12]

  /* Reset the Output Polarity level */
  tmpccer &= ~TIM_CCER_CC4P;
 8005090:	693b      	ldr	r3, [r7, #16]
 8005092:	f423 5300 	bic.w	r3, r3, #8192	@ 0x2000
 8005096:	613b      	str	r3, [r7, #16]
  /* Set the Output Compare Polarity */
  tmpccer |= (OC_Config->OCPolarity << 12U);
 8005098:	683b      	ldr	r3, [r7, #0]
 800509a:	689b      	ldr	r3, [r3, #8]
 800509c:	031b      	lsls	r3, r3, #12
 800509e:	693a      	ldr	r2, [r7, #16]
 80050a0:	4313      	orrs	r3, r2
 80050a2:	613b      	str	r3, [r7, #16]

#if defined(TIM_CR2_OIS4)
  if (IS_TIM_BREAK_INSTANCE(TIMx))
 80050a4:	687b      	ldr	r3, [r7, #4]
 80050a6:	4a16      	ldr	r2, [pc, #88]	@ (8005100 <TIM_OC4_SetConfig+0xb8>)
 80050a8:	4293      	cmp	r3, r2
 80050aa:	d00b      	beq.n	80050c4 <TIM_OC4_SetConfig+0x7c>
 80050ac:	687b      	ldr	r3, [r7, #4]
 80050ae:	4a15      	ldr	r2, [pc, #84]	@ (8005104 <TIM_OC4_SetConfig+0xbc>)
 80050b0:	4293      	cmp	r3, r2
 80050b2:	d007      	beq.n	80050c4 <TIM_OC4_SetConfig+0x7c>
 80050b4:	687b      	ldr	r3, [r7, #4]
 80050b6:	4a14      	ldr	r2, [pc, #80]	@ (8005108 <TIM_OC4_SetConfig+0xc0>)
 80050b8:	4293      	cmp	r3, r2
 80050ba:	d003      	beq.n	80050c4 <TIM_OC4_SetConfig+0x7c>
 80050bc:	687b      	ldr	r3, [r7, #4]
 80050be:	4a13      	ldr	r2, [pc, #76]	@ (800510c <TIM_OC4_SetConfig+0xc4>)
 80050c0:	4293      	cmp	r3, r2
 80050c2:	d109      	bne.n	80050d8 <TIM_OC4_SetConfig+0x90>
  {
    /* Check parameters */
    assert_param(IS_TIM_OCIDLE_STATE(OC_Config->OCIdleState));

    /* Reset the Output Compare IDLE State */
    tmpcr2 &= ~TIM_CR2_OIS4;
 80050c4:	697b      	ldr	r3, [r7, #20]
 80050c6:	f423 4380 	bic.w	r3, r3, #16384	@ 0x4000
 80050ca:	617b      	str	r3, [r7, #20]

    /* Set the Output Idle state */
    tmpcr2 |= (OC_Config->OCIdleState << 6U);
 80050cc:	683b      	ldr	r3, [r7, #0]
 80050ce:	695b      	ldr	r3, [r3, #20]
 80050d0:	019b      	lsls	r3, r3, #6
 80050d2:	697a      	ldr	r2, [r7, #20]
 80050d4:	4313      	orrs	r3, r2
 80050d6:	617b      	str	r3, [r7, #20]
  }
#endif /* TIM_CR2_OIS4 */

  /* Write to TIMx CR2 */
  TIMx->CR2 = tmpcr2;
 80050d8:	687b      	ldr	r3, [r7, #4]
 80050da:	697a      	ldr	r2, [r7, #20]
 80050dc:	605a      	str	r2, [r3, #4]

  /* Write to TIMx CCMR2 */
  TIMx->CCMR2 = tmpccmrx;
 80050de:	687b      	ldr	r3, [r7, #4]
 80050e0:	68fa      	ldr	r2, [r7, #12]
 80050e2:	61da      	str	r2, [r3, #28]

  /* Set the Capture Compare Register value */
  TIMx->CCR4 = OC_Config->Pulse;
 80050e4:	683b      	ldr	r3, [r7, #0]
 80050e6:	685a      	ldr	r2, [r3, #4]
 80050e8:	687b      	ldr	r3, [r7, #4]
 80050ea:	641a      	str	r2, [r3, #64]	@ 0x40

  /* Write to TIMx CCER */
  TIMx->CCER = tmpccer;
 80050ec:	687b      	ldr	r3, [r7, #4]
 80050ee:	693a      	ldr	r2, [r7, #16]
 80050f0:	621a      	str	r2, [r3, #32]
}
 80050f2:	bf00      	nop
 80050f4:	371c      	adds	r7, #28
 80050f6:	46bd      	mov	sp, r7
 80050f8:	f85d 7b04 	ldr.w	r7, [sp], #4
 80050fc:	4770      	bx	lr
 80050fe:	bf00      	nop
 8005100:	40012c00 	.word	0x40012c00
 8005104:	40014000 	.word	0x40014000
 8005108:	40014400 	.word	0x40014400
 800510c:	40014800 	.word	0x40014800

08005110 <TIM_OC5_SetConfig>:
  * @param  OC_Config The output configuration structure
  * @retval None
  */
static void TIM_OC5_SetConfig(TIM_TypeDef *TIMx,
                              const TIM_OC_InitTypeDef *OC_Config)
{
 8005110:	b480      	push	{r7}
 8005112:	b087      	sub	sp, #28
 8005114:	af00      	add	r7, sp, #0
 8005116:	6078      	str	r0, [r7, #4]
 8005118:	6039      	str	r1, [r7, #0]
  uint32_t tmpccmrx;
  uint32_t tmpccer;
  uint32_t tmpcr2;

  /* Get the TIMx CCER register value */
  tmpccer = TIMx->CCER;
 800511a:	687b      	ldr	r3, [r7, #4]
 800511c:	6a1b      	ldr	r3, [r3, #32]
 800511e:	613b      	str	r3, [r7, #16]

  /* Disable the output: Reset the CCxE Bit */
  TIMx->CCER &= ~TIM_CCER_CC5E;
 8005120:	687b      	ldr	r3, [r7, #4]
 8005122:	6a1b      	ldr	r3, [r3, #32]
 8005124:	f423 3280 	bic.w	r2, r3, #65536	@ 0x10000
 8005128:	687b      	ldr	r3, [r7, #4]
 800512a:	621a      	str	r2, [r3, #32]

  /* Get the TIMx CR2 register value */
  tmpcr2 =  TIMx->CR2;
 800512c:	687b      	ldr	r3, [r7, #4]
 800512e:	685b      	ldr	r3, [r3, #4]
 8005130:	617b      	str	r3, [r7, #20]
  /* Get the TIMx CCMR1 register value */
  tmpccmrx = TIMx->CCMR3;
 8005132:	687b      	ldr	r3, [r7, #4]
 8005134:	6d5b      	ldr	r3, [r3, #84]	@ 0x54
 8005136:	60fb      	str	r3, [r7, #12]

  /* Reset the Output Compare Mode Bits */
  tmpccmrx &= ~(TIM_CCMR3_OC5M);
 8005138:	68fb      	ldr	r3, [r7, #12]
 800513a:	f423 3380 	bic.w	r3, r3, #65536	@ 0x10000
 800513e:	f023 0370 	bic.w	r3, r3, #112	@ 0x70
 8005142:	60fb      	str	r3, [r7, #12]
  /* Select the Output Compare Mode */
  tmpccmrx |= OC_Config->OCMode;
 8005144:	683b      	ldr	r3, [r7, #0]
 8005146:	681b      	ldr	r3, [r3, #0]
 8005148:	68fa      	ldr	r2, [r7, #12]
 800514a:	4313      	orrs	r3, r2
 800514c:	60fb      	str	r3, [r7, #12]

  /* Reset the Output Polarity level */
  tmpccer &= ~TIM_CCER_CC5P;
 800514e:	693b      	ldr	r3, [r7, #16]
 8005150:	f423 3300 	bic.w	r3, r3, #131072	@ 0x20000
 8005154:	613b      	str	r3, [r7, #16]
  /* Set the Output Compare Polarity */
  tmpccer |= (OC_Config->OCPolarity << 16U);
 8005156:	683b      	ldr	r3, [r7, #0]
 8005158:	689b      	ldr	r3, [r3, #8]
 800515a:	041b      	lsls	r3, r3, #16
 800515c:	693a      	ldr	r2, [r7, #16]
 800515e:	4313      	orrs	r3, r2
 8005160:	613b      	str	r3, [r7, #16]

  if (IS_TIM_BREAK_INSTANCE(TIMx))
 8005162:	687b      	ldr	r3, [r7, #4]
 8005164:	4a15      	ldr	r2, [pc, #84]	@ (80051bc <TIM_OC5_SetConfig+0xac>)
 8005166:	4293      	cmp	r3, r2
 8005168:	d00b      	beq.n	8005182 <TIM_OC5_SetConfig+0x72>
 800516a:	687b      	ldr	r3, [r7, #4]
 800516c:	4a14      	ldr	r2, [pc, #80]	@ (80051c0 <TIM_OC5_SetConfig+0xb0>)
 800516e:	4293      	cmp	r3, r2
 8005170:	d007      	beq.n	8005182 <TIM_OC5_SetConfig+0x72>
 8005172:	687b      	ldr	r3, [r7, #4]
 8005174:	4a13      	ldr	r2, [pc, #76]	@ (80051c4 <TIM_OC5_SetConfig+0xb4>)
 8005176:	4293      	cmp	r3, r2
 8005178:	d003      	beq.n	8005182 <TIM_OC5_SetConfig+0x72>
 800517a:	687b      	ldr	r3, [r7, #4]
 800517c:	4a12      	ldr	r2, [pc, #72]	@ (80051c8 <TIM_OC5_SetConfig+0xb8>)
 800517e:	4293      	cmp	r3, r2
 8005180:	d109      	bne.n	8005196 <TIM_OC5_SetConfig+0x86>
  {
    /* Reset the Output Compare IDLE State */
    tmpcr2 &= ~TIM_CR2_OIS5;
 8005182:	697b      	ldr	r3, [r7, #20]
 8005184:	f423 3380 	bic.w	r3, r3, #65536	@ 0x10000
 8005188:	617b      	str	r3, [r7, #20]
    /* Set the Output Idle state */
    tmpcr2 |= (OC_Config->OCIdleState << 8U);
 800518a:	683b      	ldr	r3, [r7, #0]
 800518c:	695b      	ldr	r3, [r3, #20]
 800518e:	021b      	lsls	r3, r3, #8
 8005190:	697a      	ldr	r2, [r7, #20]
 8005192:	4313      	orrs	r3, r2
 8005194:	617b      	str	r3, [r7, #20]
  }
  /* Write to TIMx CR2 */
  TIMx->CR2 = tmpcr2;
 8005196:	687b      	ldr	r3, [r7, #4]
 8005198:	697a      	ldr	r2, [r7, #20]
 800519a:	605a      	str	r2, [r3, #4]

  /* Write to TIMx CCMR3 */
  TIMx->CCMR3 = tmpccmrx;
 800519c:	687b      	ldr	r3, [r7, #4]
 800519e:	68fa      	ldr	r2, [r7, #12]
 80051a0:	655a      	str	r2, [r3, #84]	@ 0x54

  /* Set the Capture Compare Register value */
  TIMx->CCR5 = OC_Config->Pulse;
 80051a2:	683b      	ldr	r3, [r7, #0]
 80051a4:	685a      	ldr	r2, [r3, #4]
 80051a6:	687b      	ldr	r3, [r7, #4]
 80051a8:	659a      	str	r2, [r3, #88]	@ 0x58

  /* Write to TIMx CCER */
  TIMx->CCER = tmpccer;
 80051aa:	687b      	ldr	r3, [r7, #4]
 80051ac:	693a      	ldr	r2, [r7, #16]
 80051ae:	621a      	str	r2, [r3, #32]
}
 80051b0:	bf00      	nop
 80051b2:	371c      	adds	r7, #28
 80051b4:	46bd      	mov	sp, r7
 80051b6:	f85d 7b04 	ldr.w	r7, [sp], #4
 80051ba:	4770      	bx	lr
 80051bc:	40012c00 	.word	0x40012c00
 80051c0:	40014000 	.word	0x40014000
 80051c4:	40014400 	.word	0x40014400
 80051c8:	40014800 	.word	0x40014800

080051cc <TIM_OC6_SetConfig>:
  * @param  OC_Config The output configuration structure
  * @retval None
  */
static void TIM_OC6_SetConfig(TIM_TypeDef *TIMx,
                              const TIM_OC_InitTypeDef *OC_Config)
{
 80051cc:	b480      	push	{r7}
 80051ce:	b087      	sub	sp, #28
 80051d0:	af00      	add	r7, sp, #0
 80051d2:	6078      	str	r0, [r7, #4]
 80051d4:	6039      	str	r1, [r7, #0]
  uint32_t tmpccmrx;
  uint32_t tmpccer;
  uint32_t tmpcr2;

  /* Get the TIMx CCER register value */
  tmpccer = TIMx->CCER;
 80051d6:	687b      	ldr	r3, [r7, #4]
 80051d8:	6a1b      	ldr	r3, [r3, #32]
 80051da:	613b      	str	r3, [r7, #16]

  /* Disable the output: Reset the CCxE Bit */
  TIMx->CCER &= ~TIM_CCER_CC6E;
 80051dc:	687b      	ldr	r3, [r7, #4]
 80051de:	6a1b      	ldr	r3, [r3, #32]
 80051e0:	f423 1280 	bic.w	r2, r3, #1048576	@ 0x100000
 80051e4:	687b      	ldr	r3, [r7, #4]
 80051e6:	621a      	str	r2, [r3, #32]

  /* Get the TIMx CR2 register value */
  tmpcr2 =  TIMx->CR2;
 80051e8:	687b      	ldr	r3, [r7, #4]
 80051ea:	685b      	ldr	r3, [r3, #4]
 80051ec:	617b      	str	r3, [r7, #20]
  /* Get the TIMx CCMR1 register value */
  tmpccmrx = TIMx->CCMR3;
 80051ee:	687b      	ldr	r3, [r7, #4]
 80051f0:	6d5b      	ldr	r3, [r3, #84]	@ 0x54
 80051f2:	60fb      	str	r3, [r7, #12]

  /* Reset the Output Compare Mode Bits */
  tmpccmrx &= ~(TIM_CCMR3_OC6M);
 80051f4:	68fb      	ldr	r3, [r7, #12]
 80051f6:	f023 7380 	bic.w	r3, r3, #16777216	@ 0x1000000
 80051fa:	f423 43e0 	bic.w	r3, r3, #28672	@ 0x7000
 80051fe:	60fb      	str	r3, [r7, #12]
  /* Select the Output Compare Mode */
  tmpccmrx |= (OC_Config->OCMode << 8U);
 8005200:	683b      	ldr	r3, [r7, #0]
 8005202:	681b      	ldr	r3, [r3, #0]
 8005204:	021b      	lsls	r3, r3, #8
 8005206:	68fa      	ldr	r2, [r7, #12]
 8005208:	4313      	orrs	r3, r2
 800520a:	60fb      	str	r3, [r7, #12]

  /* Reset the Output Polarity level */
  tmpccer &= (uint32_t)~TIM_CCER_CC6P;
 800520c:	693b      	ldr	r3, [r7, #16]
 800520e:	f423 1300 	bic.w	r3, r3, #2097152	@ 0x200000
 8005212:	613b      	str	r3, [r7, #16]
  /* Set the Output Compare Polarity */
  tmpccer |= (OC_Config->OCPolarity << 20U);
 8005214:	683b      	ldr	r3, [r7, #0]
 8005216:	689b      	ldr	r3, [r3, #8]
 8005218:	051b      	lsls	r3, r3, #20
 800521a:	693a      	ldr	r2, [r7, #16]
 800521c:	4313      	orrs	r3, r2
 800521e:	613b      	str	r3, [r7, #16]

  if (IS_TIM_BREAK_INSTANCE(TIMx))
 8005220:	687b      	ldr	r3, [r7, #4]
 8005222:	4a16      	ldr	r2, [pc, #88]	@ (800527c <TIM_OC6_SetConfig+0xb0>)
 8005224:	4293      	cmp	r3, r2
 8005226:	d00b      	beq.n	8005240 <TIM_OC6_SetConfig+0x74>
 8005228:	687b      	ldr	r3, [r7, #4]
 800522a:	4a15      	ldr	r2, [pc, #84]	@ (8005280 <TIM_OC6_SetConfig+0xb4>)
 800522c:	4293      	cmp	r3, r2
 800522e:	d007      	beq.n	8005240 <TIM_OC6_SetConfig+0x74>
 8005230:	687b      	ldr	r3, [r7, #4]
 8005232:	4a14      	ldr	r2, [pc, #80]	@ (8005284 <TIM_OC6_SetConfig+0xb8>)
 8005234:	4293      	cmp	r3, r2
 8005236:	d003      	beq.n	8005240 <TIM_OC6_SetConfig+0x74>
 8005238:	687b      	ldr	r3, [r7, #4]
 800523a:	4a13      	ldr	r2, [pc, #76]	@ (8005288 <TIM_OC6_SetConfig+0xbc>)
 800523c:	4293      	cmp	r3, r2
 800523e:	d109      	bne.n	8005254 <TIM_OC6_SetConfig+0x88>
  {
    /* Reset the Output Compare IDLE State */
    tmpcr2 &= ~TIM_CR2_OIS6;
 8005240:	697b      	ldr	r3, [r7, #20]
 8005242:	f423 2380 	bic.w	r3, r3, #262144	@ 0x40000
 8005246:	617b      	str	r3, [r7, #20]
    /* Set the Output Idle state */
    tmpcr2 |= (OC_Config->OCIdleState << 10U);
 8005248:	683b      	ldr	r3, [r7, #0]
 800524a:	695b      	ldr	r3, [r3, #20]
 800524c:	029b      	lsls	r3, r3, #10
 800524e:	697a      	ldr	r2, [r7, #20]
 8005250:	4313      	orrs	r3, r2
 8005252:	617b      	str	r3, [r7, #20]
  }

  /* Write to TIMx CR2 */
  TIMx->CR2 = tmpcr2;
 8005254:	687b      	ldr	r3, [r7, #4]
 8005256:	697a      	ldr	r2, [r7, #20]
 8005258:	605a      	str	r2, [r3, #4]

  /* Write to TIMx CCMR3 */
  TIMx->CCMR3 = tmpccmrx;
 800525a:	687b      	ldr	r3, [r7, #4]
 800525c:	68fa      	ldr	r2, [r7, #12]
 800525e:	655a      	str	r2, [r3, #84]	@ 0x54

  /* Set the Capture Compare Register value */
  TIMx->CCR6 = OC_Config->Pulse;
 8005260:	683b      	ldr	r3, [r7, #0]
 8005262:	685a      	ldr	r2, [r3, #4]
 8005264:	687b      	ldr	r3, [r7, #4]
 8005266:	65da      	str	r2, [r3, #92]	@ 0x5c

  /* Write to TIMx CCER */
  TIMx->CCER = tmpccer;
 8005268:	687b      	ldr	r3, [r7, #4]
 800526a:	693a      	ldr	r2, [r7, #16]
 800526c:	621a      	str	r2, [r3, #32]
}
 800526e:	bf00      	nop
 8005270:	371c      	adds	r7, #28
 8005272:	46bd      	mov	sp, r7
 8005274:	f85d 7b04 	ldr.w	r7, [sp], #4
 8005278:	4770      	bx	lr
 800527a:	bf00      	nop
 800527c:	40012c00 	.word	0x40012c00
 8005280:	40014000 	.word	0x40014000
 8005284:	40014400 	.word	0x40014400
 8005288:	40014800 	.word	0x40014800

0800528c <TIM_TI1_ConfigInputStage>:
  * @param  TIM_ICFilter Specifies the Input Capture Filter.
  *          This parameter must be a value between 0x00 and 0x0F.
  * @retval None
  */
static void TIM_TI1_ConfigInputStage(TIM_TypeDef *TIMx, uint32_t TIM_ICPolarity, uint32_t TIM_ICFilter)
{
 800528c:	b480      	push	{r7}
 800528e:	b087      	sub	sp, #28
 8005290:	af00      	add	r7, sp, #0
 8005292:	60f8      	str	r0, [r7, #12]
 8005294:	60b9      	str	r1, [r7, #8]
 8005296:	607a      	str	r2, [r7, #4]
  uint32_t tmpccmr1;
  uint32_t tmpccer;

  /* Disable the Channel 1: Reset the CC1E Bit */
  tmpccer = TIMx->CCER;
 8005298:	68fb      	ldr	r3, [r7, #12]
 800529a:	6a1b      	ldr	r3, [r3, #32]
 800529c:	617b      	str	r3, [r7, #20]
  TIMx->CCER &= ~TIM_CCER_CC1E;
 800529e:	68fb      	ldr	r3, [r7, #12]
 80052a0:	6a1b      	ldr	r3, [r3, #32]
 80052a2:	f023 0201 	bic.w	r2, r3, #1
 80052a6:	68fb      	ldr	r3, [r7, #12]
 80052a8:	621a      	str	r2, [r3, #32]
  tmpccmr1 = TIMx->CCMR1;
 80052aa:	68fb      	ldr	r3, [r7, #12]
 80052ac:	699b      	ldr	r3, [r3, #24]
 80052ae:	613b      	str	r3, [r7, #16]

  /* Set the filter */
  tmpccmr1 &= ~TIM_CCMR1_IC1F;
 80052b0:	693b      	ldr	r3, [r7, #16]
 80052b2:	f023 03f0 	bic.w	r3, r3, #240	@ 0xf0
 80052b6:	613b      	str	r3, [r7, #16]
  tmpccmr1 |= (TIM_ICFilter << 4U);
 80052b8:	687b      	ldr	r3, [r7, #4]
 80052ba:	011b      	lsls	r3, r3, #4
 80052bc:	693a      	ldr	r2, [r7, #16]
 80052be:	4313      	orrs	r3, r2
 80052c0:	613b      	str	r3, [r7, #16]

  /* Select the Polarity and set the CC1E Bit */
  tmpccer &= ~(TIM_CCER_CC1P | TIM_CCER_CC1NP);
 80052c2:	697b      	ldr	r3, [r7, #20]
 80052c4:	f023 030a 	bic.w	r3, r3, #10
 80052c8:	617b      	str	r3, [r7, #20]
  tmpccer |= TIM_ICPolarity;
 80052ca:	697a      	ldr	r2, [r7, #20]
 80052cc:	68bb      	ldr	r3, [r7, #8]
 80052ce:	4313      	orrs	r3, r2
 80052d0:	617b      	str	r3, [r7, #20]

  /* Write to TIMx CCMR1 and CCER registers */
  TIMx->CCMR1 = tmpccmr1;
 80052d2:	68fb      	ldr	r3, [r7, #12]
 80052d4:	693a      	ldr	r2, [r7, #16]
 80052d6:	619a      	str	r2, [r3, #24]
  TIMx->CCER = tmpccer;
 80052d8:	68fb      	ldr	r3, [r7, #12]
 80052da:	697a      	ldr	r2, [r7, #20]
 80052dc:	621a      	str	r2, [r3, #32]
}
 80052de:	bf00      	nop
 80052e0:	371c      	adds	r7, #28
 80052e2:	46bd      	mov	sp, r7
 80052e4:	f85d 7b04 	ldr.w	r7, [sp], #4
 80052e8:	4770      	bx	lr

080052ea <TIM_TI2_ConfigInputStage>:
  * @param  TIM_ICFilter Specifies the Input Capture Filter.
  *          This parameter must be a value between 0x00 and 0x0F.
  * @retval None
  */
static void TIM_TI2_ConfigInputStage(TIM_TypeDef *TIMx, uint32_t TIM_ICPolarity, uint32_t TIM_ICFilter)
{
 80052ea:	b480      	push	{r7}
 80052ec:	b087      	sub	sp, #28
 80052ee:	af00      	add	r7, sp, #0
 80052f0:	60f8      	str	r0, [r7, #12]
 80052f2:	60b9      	str	r1, [r7, #8]
 80052f4:	607a      	str	r2, [r7, #4]
  uint32_t tmpccmr1;
  uint32_t tmpccer;

  /* Disable the Channel 2: Reset the CC2E Bit */
  tmpccer = TIMx->CCER;
 80052f6:	68fb      	ldr	r3, [r7, #12]
 80052f8:	6a1b      	ldr	r3, [r3, #32]
 80052fa:	617b      	str	r3, [r7, #20]
  TIMx->CCER &= ~TIM_CCER_CC2E;
 80052fc:	68fb      	ldr	r3, [r7, #12]
 80052fe:	6a1b      	ldr	r3, [r3, #32]
 8005300:	f023 0210 	bic.w	r2, r3, #16
 8005304:	68fb      	ldr	r3, [r7, #12]
 8005306:	621a      	str	r2, [r3, #32]
  tmpccmr1 = TIMx->CCMR1;
 8005308:	68fb      	ldr	r3, [r7, #12]
 800530a:	699b      	ldr	r3, [r3, #24]
 800530c:	613b      	str	r3, [r7, #16]

  /* Set the filter */
  tmpccmr1 &= ~TIM_CCMR1_IC2F;
 800530e:	693b      	ldr	r3, [r7, #16]
 8005310:	f423 4370 	bic.w	r3, r3, #61440	@ 0xf000
 8005314:	613b      	str	r3, [r7, #16]
  tmpccmr1 |= (TIM_ICFilter << 12U);
 8005316:	687b      	ldr	r3, [r7, #4]
 8005318:	031b      	lsls	r3, r3, #12
 800531a:	693a      	ldr	r2, [r7, #16]
 800531c:	4313      	orrs	r3, r2
 800531e:	613b      	str	r3, [r7, #16]

  /* Select the Polarity and set the CC2E Bit */
  tmpccer &= ~(TIM_CCER_CC2P | TIM_CCER_CC2NP);
 8005320:	697b      	ldr	r3, [r7, #20]
 8005322:	f023 03a0 	bic.w	r3, r3, #160	@ 0xa0
 8005326:	617b      	str	r3, [r7, #20]
  tmpccer |= (TIM_ICPolarity << 4U);
 8005328:	68bb      	ldr	r3, [r7, #8]
 800532a:	011b      	lsls	r3, r3, #4
 800532c:	697a      	ldr	r2, [r7, #20]
 800532e:	4313      	orrs	r3, r2
 8005330:	617b      	str	r3, [r7, #20]

  /* Write to TIMx CCMR1 and CCER registers */
  TIMx->CCMR1 = tmpccmr1 ;
 8005332:	68fb      	ldr	r3, [r7, #12]
 8005334:	693a      	ldr	r2, [r7, #16]
 8005336:	619a      	str	r2, [r3, #24]
  TIMx->CCER = tmpccer;
 8005338:	68fb      	ldr	r3, [r7, #12]
 800533a:	697a      	ldr	r2, [r7, #20]
 800533c:	621a      	str	r2, [r3, #32]
}
 800533e:	bf00      	nop
 8005340:	371c      	adds	r7, #28
 8005342:	46bd      	mov	sp, r7
 8005344:	f85d 7b04 	ldr.w	r7, [sp], #4
 8005348:	4770      	bx	lr

0800534a <TIM_ITRx_SetConfig>:
  *            @arg TIM_TS_TI2FP2: Filtered Timer Input 2
  *            @arg TIM_TS_ETRF: External Trigger input
  * @retval None
  */
static void TIM_ITRx_SetConfig(TIM_TypeDef *TIMx, uint32_t InputTriggerSource)
{
 800534a:	b480      	push	{r7}
 800534c:	b085      	sub	sp, #20
 800534e:	af00      	add	r7, sp, #0
 8005350:	6078      	str	r0, [r7, #4]
 8005352:	6039      	str	r1, [r7, #0]
  uint32_t tmpsmcr;

  /* Get the TIMx SMCR register value */
  tmpsmcr = TIMx->SMCR;
 8005354:	687b      	ldr	r3, [r7, #4]
 8005356:	689b      	ldr	r3, [r3, #8]
 8005358:	60fb      	str	r3, [r7, #12]
  /* Reset the TS Bits */
  tmpsmcr &= ~TIM_SMCR_TS;
 800535a:	68fb      	ldr	r3, [r7, #12]
 800535c:	f023 0370 	bic.w	r3, r3, #112	@ 0x70
 8005360:	60fb      	str	r3, [r7, #12]
  /* Set the Input Trigger source and the slave mode*/
  tmpsmcr |= (InputTriggerSource | TIM_SLAVEMODE_EXTERNAL1);
 8005362:	683a      	ldr	r2, [r7, #0]
 8005364:	68fb      	ldr	r3, [r7, #12]
 8005366:	4313      	orrs	r3, r2
 8005368:	f043 0307 	orr.w	r3, r3, #7
 800536c:	60fb      	str	r3, [r7, #12]
  /* Write to TIMx SMCR */
  TIMx->SMCR = tmpsmcr;
 800536e:	687b      	ldr	r3, [r7, #4]
 8005370:	68fa      	ldr	r2, [r7, #12]
 8005372:	609a      	str	r2, [r3, #8]
}
 8005374:	bf00      	nop
 8005376:	3714      	adds	r7, #20
 8005378:	46bd      	mov	sp, r7
 800537a:	f85d 7b04 	ldr.w	r7, [sp], #4
 800537e:	4770      	bx	lr

08005380 <TIM_ETR_SetConfig>:
  *          This parameter must be a value between 0x00 and 0x0F
  * @retval None
  */
void TIM_ETR_SetConfig(TIM_TypeDef *TIMx, uint32_t TIM_ExtTRGPrescaler,
                       uint32_t TIM_ExtTRGPolarity, uint32_t ExtTRGFilter)
{
 8005380:	b480      	push	{r7}
 8005382:	b087      	sub	sp, #28
 8005384:	af00      	add	r7, sp, #0
 8005386:	60f8      	str	r0, [r7, #12]
 8005388:	60b9      	str	r1, [r7, #8]
 800538a:	607a      	str	r2, [r7, #4]
 800538c:	603b      	str	r3, [r7, #0]
  uint32_t tmpsmcr;

  tmpsmcr = TIMx->SMCR;
 800538e:	68fb      	ldr	r3, [r7, #12]
 8005390:	689b      	ldr	r3, [r3, #8]
 8005392:	617b      	str	r3, [r7, #20]

  /* Reset the ETR Bits */
  tmpsmcr &= ~(TIM_SMCR_ETF | TIM_SMCR_ETPS | TIM_SMCR_ECE | TIM_SMCR_ETP);
 8005394:	697b      	ldr	r3, [r7, #20]
 8005396:	f423 437f 	bic.w	r3, r3, #65280	@ 0xff00
 800539a:	617b      	str	r3, [r7, #20]

  /* Set the Prescaler, the Filter value and the Polarity */
  tmpsmcr |= (uint32_t)(TIM_ExtTRGPrescaler | (TIM_ExtTRGPolarity | (ExtTRGFilter << 8U)));
 800539c:	683b      	ldr	r3, [r7, #0]
 800539e:	021a      	lsls	r2, r3, #8
 80053a0:	687b      	ldr	r3, [r7, #4]
 80053a2:	431a      	orrs	r2, r3
 80053a4:	68bb      	ldr	r3, [r7, #8]
 80053a6:	4313      	orrs	r3, r2
 80053a8:	697a      	ldr	r2, [r7, #20]
 80053aa:	4313      	orrs	r3, r2
 80053ac:	617b      	str	r3, [r7, #20]

  /* Write to TIMx SMCR */
  TIMx->SMCR = tmpsmcr;
 80053ae:	68fb      	ldr	r3, [r7, #12]
 80053b0:	697a      	ldr	r2, [r7, #20]
 80053b2:	609a      	str	r2, [r3, #8]
}
 80053b4:	bf00      	nop
 80053b6:	371c      	adds	r7, #28
 80053b8:	46bd      	mov	sp, r7
 80053ba:	f85d 7b04 	ldr.w	r7, [sp], #4
 80053be:	4770      	bx	lr

080053c0 <TIM_CCxChannelCmd>:
  * @param  ChannelState specifies the TIM Channel CCxE bit new state.
  *          This parameter can be: TIM_CCx_ENABLE or TIM_CCx_DISABLE.
  * @retval None
  */
void TIM_CCxChannelCmd(TIM_TypeDef *TIMx, uint32_t Channel, uint32_t ChannelState)
{
 80053c0:	b480      	push	{r7}
 80053c2:	b087      	sub	sp, #28
 80053c4:	af00      	add	r7, sp, #0
 80053c6:	60f8      	str	r0, [r7, #12]
 80053c8:	60b9      	str	r1, [r7, #8]
 80053ca:	607a      	str	r2, [r7, #4]

  /* Check the parameters */
  assert_param(IS_TIM_CC1_INSTANCE(TIMx));
  assert_param(IS_TIM_CHANNELS(Channel));

  tmp = TIM_CCER_CC1E << (Channel & 0x1FU); /* 0x1FU = 31 bits max shift */
 80053cc:	68bb      	ldr	r3, [r7, #8]
 80053ce:	f003 031f 	and.w	r3, r3, #31
 80053d2:	2201      	movs	r2, #1
 80053d4:	fa02 f303 	lsl.w	r3, r2, r3
 80053d8:	617b      	str	r3, [r7, #20]

  /* Reset the CCxE Bit */
  TIMx->CCER &= ~tmp;
 80053da:	68fb      	ldr	r3, [r7, #12]
 80053dc:	6a1a      	ldr	r2, [r3, #32]
 80053de:	697b      	ldr	r3, [r7, #20]
 80053e0:	43db      	mvns	r3, r3
 80053e2:	401a      	ands	r2, r3
 80053e4:	68fb      	ldr	r3, [r7, #12]
 80053e6:	621a      	str	r2, [r3, #32]

  /* Set or reset the CCxE Bit */
  TIMx->CCER |= (uint32_t)(ChannelState << (Channel & 0x1FU)); /* 0x1FU = 31 bits max shift */
 80053e8:	68fb      	ldr	r3, [r7, #12]
 80053ea:	6a1a      	ldr	r2, [r3, #32]
 80053ec:	68bb      	ldr	r3, [r7, #8]
 80053ee:	f003 031f 	and.w	r3, r3, #31
 80053f2:	6879      	ldr	r1, [r7, #4]
 80053f4:	fa01 f303 	lsl.w	r3, r1, r3
 80053f8:	431a      	orrs	r2, r3
 80053fa:	68fb      	ldr	r3, [r7, #12]
 80053fc:	621a      	str	r2, [r3, #32]
}
 80053fe:	bf00      	nop
 8005400:	371c      	adds	r7, #28
 8005402:	46bd      	mov	sp, r7
 8005404:	f85d 7b04 	ldr.w	r7, [sp], #4
 8005408:	4770      	bx	lr
	...

0800540c <HAL_TIMEx_MasterConfigSynchronization>:
  *         mode.
  * @retval HAL status
  */
HAL_StatusTypeDef HAL_TIMEx_MasterConfigSynchronization(TIM_HandleTypeDef *htim,
                                                        const TIM_MasterConfigTypeDef *sMasterConfig)
{
 800540c:	b480      	push	{r7}
 800540e:	b085      	sub	sp, #20
 8005410:	af00      	add	r7, sp, #0
 8005412:	6078      	str	r0, [r7, #4]
 8005414:	6039      	str	r1, [r7, #0]
  assert_param(IS_TIM_MASTER_INSTANCE(htim->Instance));
  assert_param(IS_TIM_TRGO_SOURCE(sMasterConfig->MasterOutputTrigger));
  assert_param(IS_TIM_MSM_STATE(sMasterConfig->MasterSlaveMode));

  /* Check input state */
  __HAL_LOCK(htim);
 8005416:	687b      	ldr	r3, [r7, #4]
 8005418:	f893 303c 	ldrb.w	r3, [r3, #60]	@ 0x3c
 800541c:	2b01      	cmp	r3, #1
 800541e:	d101      	bne.n	8005424 <HAL_TIMEx_MasterConfigSynchronization+0x18>
 8005420:	2302      	movs	r3, #2
 8005422:	e054      	b.n	80054ce <HAL_TIMEx_MasterConfigSynchronization+0xc2>
 8005424:	687b      	ldr	r3, [r7, #4]
 8005426:	2201      	movs	r2, #1
 8005428:	f883 203c 	strb.w	r2, [r3, #60]	@ 0x3c

  /* Change the handler state */
  htim->State = HAL_TIM_STATE_BUSY;
 800542c:	687b      	ldr	r3, [r7, #4]
 800542e:	2202      	movs	r2, #2
 8005430:	f883 203d 	strb.w	r2, [r3, #61]	@ 0x3d

  /* Get the TIMx CR2 register value */
  tmpcr2 = htim->Instance->CR2;
 8005434:	687b      	ldr	r3, [r7, #4]
 8005436:	681b      	ldr	r3, [r3, #0]
 8005438:	685b      	ldr	r3, [r3, #4]
 800543a:	60fb      	str	r3, [r7, #12]

  /* Get the TIMx SMCR register value */
  tmpsmcr = htim->Instance->SMCR;
 800543c:	687b      	ldr	r3, [r7, #4]
 800543e:	681b      	ldr	r3, [r3, #0]
 8005440:	689b      	ldr	r3, [r3, #8]
 8005442:	60bb      	str	r3, [r7, #8]

#if defined(TIM_CR2_MMS2)
  /* If the timer supports ADC synchronization through TRGO2, set the master mode selection 2 */
  if (IS_TIM_TRGO2_INSTANCE(htim->Instance))
 8005444:	687b      	ldr	r3, [r7, #4]
 8005446:	681b      	ldr	r3, [r3, #0]
 8005448:	4a24      	ldr	r2, [pc, #144]	@ (80054dc <HAL_TIMEx_MasterConfigSynchronization+0xd0>)
 800544a:	4293      	cmp	r3, r2
 800544c:	d108      	bne.n	8005460 <HAL_TIMEx_MasterConfigSynchronization+0x54>
  {
    /* Check the parameters */
    assert_param(IS_TIM_TRGO2_SOURCE(sMasterConfig->MasterOutputTrigger2));

    /* Clear the MMS2 bits */
    tmpcr2 &= ~TIM_CR2_MMS2;
 800544e:	68fb      	ldr	r3, [r7, #12]
 8005450:	f423 0370 	bic.w	r3, r3, #15728640	@ 0xf00000
 8005454:	60fb      	str	r3, [r7, #12]
    /* Select the TRGO2 source*/
    tmpcr2 |= sMasterConfig->MasterOutputTrigger2;
 8005456:	683b      	ldr	r3, [r7, #0]
 8005458:	685b      	ldr	r3, [r3, #4]
 800545a:	68fa      	ldr	r2, [r7, #12]
 800545c:	4313      	orrs	r3, r2
 800545e:	60fb      	str	r3, [r7, #12]
  }
#endif /* TIM_CR2_MMS2 */

  /* Reset the MMS Bits */
  tmpcr2 &= ~TIM_CR2_MMS;
 8005460:	68fb      	ldr	r3, [r7, #12]
 8005462:	f023 0370 	bic.w	r3, r3, #112	@ 0x70
 8005466:	60fb      	str	r3, [r7, #12]
  /* Select the TRGO source */
  tmpcr2 |=  sMasterConfig->MasterOutputTrigger;
 8005468:	683b      	ldr	r3, [r7, #0]
 800546a:	681b      	ldr	r3, [r3, #0]
 800546c:	68fa      	ldr	r2, [r7, #12]
 800546e:	4313      	orrs	r3, r2
 8005470:	60fb      	str	r3, [r7, #12]

  /* Update TIMx CR2 */
  htim->Instance->CR2 = tmpcr2;
 8005472:	687b      	ldr	r3, [r7, #4]
 8005474:	681b      	ldr	r3, [r3, #0]
 8005476:	68fa      	ldr	r2, [r7, #12]
 8005478:	605a      	str	r2, [r3, #4]

  if (IS_TIM_SLAVE_INSTANCE(htim->Instance))
 800547a:	687b      	ldr	r3, [r7, #4]
 800547c:	681b      	ldr	r3, [r3, #0]
 800547e:	4a17      	ldr	r2, [pc, #92]	@ (80054dc <HAL_TIMEx_MasterConfigSynchronization+0xd0>)
 8005480:	4293      	cmp	r3, r2
 8005482:	d00e      	beq.n	80054a2 <HAL_TIMEx_MasterConfigSynchronization+0x96>
 8005484:	687b      	ldr	r3, [r7, #4]
 8005486:	681b      	ldr	r3, [r3, #0]
 8005488:	f1b3 4f80 	cmp.w	r3, #1073741824	@ 0x40000000
 800548c:	d009      	beq.n	80054a2 <HAL_TIMEx_MasterConfigSynchronization+0x96>
 800548e:	687b      	ldr	r3, [r7, #4]
 8005490:	681b      	ldr	r3, [r3, #0]
 8005492:	4a13      	ldr	r2, [pc, #76]	@ (80054e0 <HAL_TIMEx_MasterConfigSynchronization+0xd4>)
 8005494:	4293      	cmp	r3, r2
 8005496:	d004      	beq.n	80054a2 <HAL_TIMEx_MasterConfigSynchronization+0x96>
 8005498:	687b      	ldr	r3, [r7, #4]
 800549a:	681b      	ldr	r3, [r3, #0]
 800549c:	4a11      	ldr	r2, [pc, #68]	@ (80054e4 <HAL_TIMEx_MasterConfigSynchronization+0xd8>)
 800549e:	4293      	cmp	r3, r2
 80054a0:	d10c      	bne.n	80054bc <HAL_TIMEx_MasterConfigSynchronization+0xb0>
  {
    /* Reset the MSM Bit */
    tmpsmcr &= ~TIM_SMCR_MSM;
 80054a2:	68bb      	ldr	r3, [r7, #8]
 80054a4:	f023 0380 	bic.w	r3, r3, #128	@ 0x80
 80054a8:	60bb      	str	r3, [r7, #8]
    /* Set master mode */
    tmpsmcr |= sMasterConfig->MasterSlaveMode;
 80054aa:	683b      	ldr	r3, [r7, #0]
 80054ac:	689b      	ldr	r3, [r3, #8]
 80054ae:	68ba      	ldr	r2, [r7, #8]
 80054b0:	4313      	orrs	r3, r2
 80054b2:	60bb      	str	r3, [r7, #8]

    /* Update TIMx SMCR */
    htim->Instance->SMCR = tmpsmcr;
 80054b4:	687b      	ldr	r3, [r7, #4]
 80054b6:	681b      	ldr	r3, [r3, #0]
 80054b8:	68ba      	ldr	r2, [r7, #8]
 80054ba:	609a      	str	r2, [r3, #8]
  }

  /* Change the htim state */
  htim->State = HAL_TIM_STATE_READY;
 80054bc:	687b      	ldr	r3, [r7, #4]
 80054be:	2201      	movs	r2, #1
 80054c0:	f883 203d 	strb.w	r2, [r3, #61]	@ 0x3d

  __HAL_UNLOCK(htim);
 80054c4:	687b      	ldr	r3, [r7, #4]
 80054c6:	2200      	movs	r2, #0
 80054c8:	f883 203c 	strb.w	r2, [r3, #60]	@ 0x3c

  return HAL_OK;
 80054cc:	2300      	movs	r3, #0
}
 80054ce:	4618      	mov	r0, r3
 80054d0:	3714      	adds	r7, #20
 80054d2:	46bd      	mov	sp, r7
 80054d4:	f85d 7b04 	ldr.w	r7, [sp], #4
 80054d8:	4770      	bx	lr
 80054da:	bf00      	nop
 80054dc:	40012c00 	.word	0x40012c00
 80054e0:	40000400 	.word	0x40000400
 80054e4:	40014000 	.word	0x40014000

080054e8 <HAL_TIMEx_CommutCallback>:
  * @brief  Commutation callback in non-blocking mode
  * @param  htim TIM handle
  * @retval None
  */
__weak void HAL_TIMEx_CommutCallback(TIM_HandleTypeDef *htim)
{
 80054e8:	b480      	push	{r7}
 80054ea:	b083      	sub	sp, #12
 80054ec:	af00      	add	r7, sp, #0
 80054ee:	6078      	str	r0, [r7, #4]
  UNUSED(htim);

  /* NOTE : This function should not be modified, when the callback is needed,
            the HAL_TIMEx_CommutCallback could be implemented in the user file
   */
}
 80054f0:	bf00      	nop
 80054f2:	370c      	adds	r7, #12
 80054f4:	46bd      	mov	sp, r7
 80054f6:	f85d 7b04 	ldr.w	r7, [sp], #4
 80054fa:	4770      	bx	lr

080054fc <HAL_TIMEx_BreakCallback>:
  * @brief  Break detection callback in non-blocking mode
  * @param  htim TIM handle
  * @retval None
  */
__weak void HAL_TIMEx_BreakCallback(TIM_HandleTypeDef *htim)
{
 80054fc:	b480      	push	{r7}
 80054fe:	b083      	sub	sp, #12
 8005500:	af00      	add	r7, sp, #0
 8005502:	6078      	str	r0, [r7, #4]
  UNUSED(htim);

  /* NOTE : This function should not be modified, when the callback is needed,
            the HAL_TIMEx_BreakCallback could be implemented in the user file
   */
}
 8005504:	bf00      	nop
 8005506:	370c      	adds	r7, #12
 8005508:	46bd      	mov	sp, r7
 800550a:	f85d 7b04 	ldr.w	r7, [sp], #4
 800550e:	4770      	bx	lr

08005510 <HAL_TIMEx_Break2Callback>:
  * @brief  Break2 detection callback in non blocking mode
  * @param  htim: TIM handle
  * @retval None
  */
__weak void HAL_TIMEx_Break2Callback(TIM_HandleTypeDef *htim)
{
 8005510:	b480      	push	{r7}
 8005512:	b083      	sub	sp, #12
 8005514:	af00      	add	r7, sp, #0
 8005516:	6078      	str	r0, [r7, #4]
  UNUSED(htim);

  /* NOTE : This function Should not be modified, when the callback is needed,
            the HAL_TIMEx_Break2Callback could be implemented in the user file
   */
}
 8005518:	bf00      	nop
 800551a:	370c      	adds	r7, #12
 800551c:	46bd      	mov	sp, r7
 800551e:	f85d 7b04 	ldr.w	r7, [sp], #4
 8005522:	4770      	bx	lr

08005524 <HAL_UART_Init>:
  *        parameters in the UART_InitTypeDef and initialize the associated handle.
  * @param huart UART handle.
  * @retval HAL status
  */
HAL_StatusTypeDef HAL_UART_Init(UART_HandleTypeDef *huart)
{
 8005524:	b580      	push	{r7, lr}
 8005526:	b082      	sub	sp, #8
 8005528:	af00      	add	r7, sp, #0
 800552a:	6078      	str	r0, [r7, #4]
  /* Check the UART handle allocation */
  if (huart == NULL)
 800552c:	687b      	ldr	r3, [r7, #4]
 800552e:	2b00      	cmp	r3, #0
 8005530:	d101      	bne.n	8005536 <HAL_UART_Init+0x12>
  {
    return HAL_ERROR;
 8005532:	2301      	movs	r3, #1
 8005534:	e040      	b.n	80055b8 <HAL_UART_Init+0x94>
  {
    /* Check the parameters */
    assert_param(IS_UART_INSTANCE(huart->Instance));
  }

  if (huart->gState == HAL_UART_STATE_RESET)
 8005536:	687b      	ldr	r3, [r7, #4]
 8005538:	6fdb      	ldr	r3, [r3, #124]	@ 0x7c
 800553a:	2b00      	cmp	r3, #0
 800553c:	d106      	bne.n	800554c <HAL_UART_Init+0x28>
  {
    /* Allocate lock resource and initialize it */
    huart->Lock = HAL_UNLOCKED;
 800553e:	687b      	ldr	r3, [r7, #4]
 8005540:	2200      	movs	r2, #0
 8005542:	f883 2078 	strb.w	r2, [r3, #120]	@ 0x78

    /* Init the low level hardware */
    huart->MspInitCallback(huart);
#else
    /* Init the low level hardware : GPIO, CLOCK */
    HAL_UART_MspInit(huart);
 8005546:	6878      	ldr	r0, [r7, #4]
 8005548:	f7fb fe6c 	bl	8001224 <HAL_UART_MspInit>
#endif /* (USE_HAL_UART_REGISTER_CALLBACKS) */
  }

  huart->gState = HAL_UART_STATE_BUSY;
 800554c:	687b      	ldr	r3, [r7, #4]
 800554e:	2224      	movs	r2, #36	@ 0x24
 8005550:	67da      	str	r2, [r3, #124]	@ 0x7c

  __HAL_UART_DISABLE(huart);
 8005552:	687b      	ldr	r3, [r7, #4]
 8005554:	681b      	ldr	r3, [r3, #0]
 8005556:	681a      	ldr	r2, [r3, #0]
 8005558:	687b      	ldr	r3, [r7, #4]
 800555a:	681b      	ldr	r3, [r3, #0]
 800555c:	f022 0201 	bic.w	r2, r2, #1
 8005560:	601a      	str	r2, [r3, #0]

  /* Perform advanced settings configuration */
  /* For some items, configuration requires to be done prior TE and RE bits are set */
  if (huart->AdvancedInit.AdvFeatureInit != UART_ADVFEATURE_NO_INIT)
 8005562:	687b      	ldr	r3, [r7, #4]
 8005564:	6a5b      	ldr	r3, [r3, #36]	@ 0x24
 8005566:	2b00      	cmp	r3, #0
 8005568:	d002      	beq.n	8005570 <HAL_UART_Init+0x4c>
  {
    UART_AdvFeatureConfig(huart);
 800556a:	6878      	ldr	r0, [r7, #4]
 800556c:	f000 f9e8 	bl	8005940 <UART_AdvFeatureConfig>
  }

  /* Set the UART Communication parameters */
  if (UART_SetConfig(huart) == HAL_ERROR)
 8005570:	6878      	ldr	r0, [r7, #4]
 8005572:	f000 f8af 	bl	80056d4 <UART_SetConfig>
 8005576:	4603      	mov	r3, r0
 8005578:	2b01      	cmp	r3, #1
 800557a:	d101      	bne.n	8005580 <HAL_UART_Init+0x5c>
  {
    return HAL_ERROR;
 800557c:	2301      	movs	r3, #1
 800557e:	e01b      	b.n	80055b8 <HAL_UART_Init+0x94>
  }

  /* In asynchronous mode, the following bits must be kept cleared:
  - LINEN and CLKEN bits in the USART_CR2 register,
  - SCEN, HDSEL and IREN  bits in the USART_CR3 register.*/
  CLEAR_BIT(huart->Instance->CR2, (USART_CR2_LINEN | USART_CR2_CLKEN));
 8005580:	687b      	ldr	r3, [r7, #4]
 8005582:	681b      	ldr	r3, [r3, #0]
 8005584:	685a      	ldr	r2, [r3, #4]
 8005586:	687b      	ldr	r3, [r7, #4]
 8005588:	681b      	ldr	r3, [r3, #0]
 800558a:	f422 4290 	bic.w	r2, r2, #18432	@ 0x4800
 800558e:	605a      	str	r2, [r3, #4]
  CLEAR_BIT(huart->Instance->CR3, (USART_CR3_SCEN | USART_CR3_HDSEL | USART_CR3_IREN));
 8005590:	687b      	ldr	r3, [r7, #4]
 8005592:	681b      	ldr	r3, [r3, #0]
 8005594:	689a      	ldr	r2, [r3, #8]
 8005596:	687b      	ldr	r3, [r7, #4]
 8005598:	681b      	ldr	r3, [r3, #0]
 800559a:	f022 022a 	bic.w	r2, r2, #42	@ 0x2a
 800559e:	609a      	str	r2, [r3, #8]

  __HAL_UART_ENABLE(huart);
 80055a0:	687b      	ldr	r3, [r7, #4]
 80055a2:	681b      	ldr	r3, [r3, #0]
 80055a4:	681a      	ldr	r2, [r3, #0]
 80055a6:	687b      	ldr	r3, [r7, #4]
 80055a8:	681b      	ldr	r3, [r3, #0]
 80055aa:	f042 0201 	orr.w	r2, r2, #1
 80055ae:	601a      	str	r2, [r3, #0]

  /* TEACK and/or REACK to check before moving huart->gState and huart->RxState to Ready */
  return (UART_CheckIdleState(huart));
 80055b0:	6878      	ldr	r0, [r7, #4]
 80055b2:	f000 fa67 	bl	8005a84 <UART_CheckIdleState>
 80055b6:	4603      	mov	r3, r0
}
 80055b8:	4618      	mov	r0, r3
 80055ba:	3708      	adds	r7, #8
 80055bc:	46bd      	mov	sp, r7
 80055be:	bd80      	pop	{r7, pc}

080055c0 <HAL_UART_Transmit>:
  * @param Size    Amount of data elements (u8 or u16) to be sent.
  * @param Timeout Timeout duration.
  * @retval HAL status
  */
HAL_StatusTypeDef HAL_UART_Transmit(UART_HandleTypeDef *huart, const uint8_t *pData, uint16_t Size, uint32_t Timeout)
{
 80055c0:	b580      	push	{r7, lr}
 80055c2:	b08a      	sub	sp, #40	@ 0x28
 80055c4:	af02      	add	r7, sp, #8
 80055c6:	60f8      	str	r0, [r7, #12]
 80055c8:	60b9      	str	r1, [r7, #8]
 80055ca:	603b      	str	r3, [r7, #0]
 80055cc:	4613      	mov	r3, r2
 80055ce:	80fb      	strh	r3, [r7, #6]
  const uint8_t  *pdata8bits;
  const uint16_t *pdata16bits;
  uint32_t tickstart;

  /* Check that a Tx process is not already ongoing */
  if (huart->gState == HAL_UART_STATE_READY)
 80055d0:	68fb      	ldr	r3, [r7, #12]
 80055d2:	6fdb      	ldr	r3, [r3, #124]	@ 0x7c
 80055d4:	2b20      	cmp	r3, #32
 80055d6:	d177      	bne.n	80056c8 <HAL_UART_Transmit+0x108>
  {
    if ((pData == NULL) || (Size == 0U))
 80055d8:	68bb      	ldr	r3, [r7, #8]
 80055da:	2b00      	cmp	r3, #0
 80055dc:	d002      	beq.n	80055e4 <HAL_UART_Transmit+0x24>
 80055de:	88fb      	ldrh	r3, [r7, #6]
 80055e0:	2b00      	cmp	r3, #0
 80055e2:	d101      	bne.n	80055e8 <HAL_UART_Transmit+0x28>
    {
      return  HAL_ERROR;
 80055e4:	2301      	movs	r3, #1
 80055e6:	e070      	b.n	80056ca <HAL_UART_Transmit+0x10a>
    }

    huart->ErrorCode = HAL_UART_ERROR_NONE;
 80055e8:	68fb      	ldr	r3, [r7, #12]
 80055ea:	2200      	movs	r2, #0
 80055ec:	f8c3 2084 	str.w	r2, [r3, #132]	@ 0x84
    huart->gState = HAL_UART_STATE_BUSY_TX;
 80055f0:	68fb      	ldr	r3, [r7, #12]
 80055f2:	2221      	movs	r2, #33	@ 0x21
 80055f4:	67da      	str	r2, [r3, #124]	@ 0x7c

    /* Init tickstart for timeout management */
    tickstart = HAL_GetTick();
 80055f6:	f7fb fff5 	bl	80015e4 <HAL_GetTick>
 80055fa:	6178      	str	r0, [r7, #20]

    huart->TxXferSize  = Size;
 80055fc:	68fb      	ldr	r3, [r7, #12]
 80055fe:	88fa      	ldrh	r2, [r7, #6]
 8005600:	f8a3 2050 	strh.w	r2, [r3, #80]	@ 0x50
    huart->TxXferCount = Size;
 8005604:	68fb      	ldr	r3, [r7, #12]
 8005606:	88fa      	ldrh	r2, [r7, #6]
 8005608:	f8a3 2052 	strh.w	r2, [r3, #82]	@ 0x52

    /* In case of 9bits/No Parity transfer, pData needs to be handled as a uint16_t pointer */
    if ((huart->Init.WordLength == UART_WORDLENGTH_9B) && (huart->Init.Parity == UART_PARITY_NONE))
 800560c:	68fb      	ldr	r3, [r7, #12]
 800560e:	689b      	ldr	r3, [r3, #8]
 8005610:	f5b3 5f80 	cmp.w	r3, #4096	@ 0x1000
 8005614:	d108      	bne.n	8005628 <HAL_UART_Transmit+0x68>
 8005616:	68fb      	ldr	r3, [r7, #12]
 8005618:	691b      	ldr	r3, [r3, #16]
 800561a:	2b00      	cmp	r3, #0
 800561c:	d104      	bne.n	8005628 <HAL_UART_Transmit+0x68>
    {
      pdata8bits  = NULL;
 800561e:	2300      	movs	r3, #0
 8005620:	61fb      	str	r3, [r7, #28]
      pdata16bits = (const uint16_t *) pData;
 8005622:	68bb      	ldr	r3, [r7, #8]
 8005624:	61bb      	str	r3, [r7, #24]
 8005626:	e003      	b.n	8005630 <HAL_UART_Transmit+0x70>
    }
    else
    {
      pdata8bits  = pData;
 8005628:	68bb      	ldr	r3, [r7, #8]
 800562a:	61fb      	str	r3, [r7, #28]
      pdata16bits = NULL;
 800562c:	2300      	movs	r3, #0
 800562e:	61bb      	str	r3, [r7, #24]
    }

    while (huart->TxXferCount > 0U)
 8005630:	e02f      	b.n	8005692 <HAL_UART_Transmit+0xd2>
    {
      if (UART_WaitOnFlagUntilTimeout(huart, UART_FLAG_TXE, RESET, tickstart, Timeout) != HAL_OK)
 8005632:	683b      	ldr	r3, [r7, #0]
 8005634:	9300      	str	r3, [sp, #0]
 8005636:	697b      	ldr	r3, [r7, #20]
 8005638:	2200      	movs	r2, #0
 800563a:	2180      	movs	r1, #128	@ 0x80
 800563c:	68f8      	ldr	r0, [r7, #12]
 800563e:	f000 fac9 	bl	8005bd4 <UART_WaitOnFlagUntilTimeout>
 8005642:	4603      	mov	r3, r0
 8005644:	2b00      	cmp	r3, #0
 8005646:	d004      	beq.n	8005652 <HAL_UART_Transmit+0x92>
      {

        huart->gState = HAL_UART_STATE_READY;
 8005648:	68fb      	ldr	r3, [r7, #12]
 800564a:	2220      	movs	r2, #32
 800564c:	67da      	str	r2, [r3, #124]	@ 0x7c

        return HAL_TIMEOUT;
 800564e:	2303      	movs	r3, #3
 8005650:	e03b      	b.n	80056ca <HAL_UART_Transmit+0x10a>
      }
      if (pdata8bits == NULL)
 8005652:	69fb      	ldr	r3, [r7, #28]
 8005654:	2b00      	cmp	r3, #0
 8005656:	d10b      	bne.n	8005670 <HAL_UART_Transmit+0xb0>
      {
        huart->Instance->TDR = (uint16_t)(*pdata16bits & 0x01FFU);
 8005658:	69bb      	ldr	r3, [r7, #24]
 800565a:	881a      	ldrh	r2, [r3, #0]
 800565c:	68fb      	ldr	r3, [r7, #12]
 800565e:	681b      	ldr	r3, [r3, #0]
 8005660:	f3c2 0208 	ubfx	r2, r2, #0, #9
 8005664:	b292      	uxth	r2, r2
 8005666:	851a      	strh	r2, [r3, #40]	@ 0x28
        pdata16bits++;
 8005668:	69bb      	ldr	r3, [r7, #24]
 800566a:	3302      	adds	r3, #2
 800566c:	61bb      	str	r3, [r7, #24]
 800566e:	e007      	b.n	8005680 <HAL_UART_Transmit+0xc0>
      }
      else
      {
        huart->Instance->TDR = (uint8_t)(*pdata8bits & 0xFFU);
 8005670:	69fb      	ldr	r3, [r7, #28]
 8005672:	781a      	ldrb	r2, [r3, #0]
 8005674:	68fb      	ldr	r3, [r7, #12]
 8005676:	681b      	ldr	r3, [r3, #0]
 8005678:	851a      	strh	r2, [r3, #40]	@ 0x28
        pdata8bits++;
 800567a:	69fb      	ldr	r3, [r7, #28]
 800567c:	3301      	adds	r3, #1
 800567e:	61fb      	str	r3, [r7, #28]
      }
      huart->TxXferCount--;
 8005680:	68fb      	ldr	r3, [r7, #12]
 8005682:	f8b3 3052 	ldrh.w	r3, [r3, #82]	@ 0x52
 8005686:	b29b      	uxth	r3, r3
 8005688:	3b01      	subs	r3, #1
 800568a:	b29a      	uxth	r2, r3
 800568c:	68fb      	ldr	r3, [r7, #12]
 800568e:	f8a3 2052 	strh.w	r2, [r3, #82]	@ 0x52
    while (huart->TxXferCount > 0U)
 8005692:	68fb      	ldr	r3, [r7, #12]
 8005694:	f8b3 3052 	ldrh.w	r3, [r3, #82]	@ 0x52
 8005698:	b29b      	uxth	r3, r3
 800569a:	2b00      	cmp	r3, #0
 800569c:	d1c9      	bne.n	8005632 <HAL_UART_Transmit+0x72>
    }

    if (UART_WaitOnFlagUntilTimeout(huart, UART_FLAG_TC, RESET, tickstart, Timeout) != HAL_OK)
 800569e:	683b      	ldr	r3, [r7, #0]
 80056a0:	9300      	str	r3, [sp, #0]
 80056a2:	697b      	ldr	r3, [r7, #20]
 80056a4:	2200      	movs	r2, #0
 80056a6:	2140      	movs	r1, #64	@ 0x40
 80056a8:	68f8      	ldr	r0, [r7, #12]
 80056aa:	f000 fa93 	bl	8005bd4 <UART_WaitOnFlagUntilTimeout>
 80056ae:	4603      	mov	r3, r0
 80056b0:	2b00      	cmp	r3, #0
 80056b2:	d004      	beq.n	80056be <HAL_UART_Transmit+0xfe>
    {
      huart->gState = HAL_UART_STATE_READY;
 80056b4:	68fb      	ldr	r3, [r7, #12]
 80056b6:	2220      	movs	r2, #32
 80056b8:	67da      	str	r2, [r3, #124]	@ 0x7c

      return HAL_TIMEOUT;
 80056ba:	2303      	movs	r3, #3
 80056bc:	e005      	b.n	80056ca <HAL_UART_Transmit+0x10a>
    }

    /* At end of Tx process, restore huart->gState to Ready */
    huart->gState = HAL_UART_STATE_READY;
 80056be:	68fb      	ldr	r3, [r7, #12]
 80056c0:	2220      	movs	r2, #32
 80056c2:	67da      	str	r2, [r3, #124]	@ 0x7c

    return HAL_OK;
 80056c4:	2300      	movs	r3, #0
 80056c6:	e000      	b.n	80056ca <HAL_UART_Transmit+0x10a>
  }
  else
  {
    return HAL_BUSY;
 80056c8:	2302      	movs	r3, #2
  }
}
 80056ca:	4618      	mov	r0, r3
 80056cc:	3720      	adds	r7, #32
 80056ce:	46bd      	mov	sp, r7
 80056d0:	bd80      	pop	{r7, pc}
	...

080056d4 <UART_SetConfig>:
  * @brief Configure the UART peripheral.
  * @param huart UART handle.
  * @retval HAL status
  */
HAL_StatusTypeDef UART_SetConfig(UART_HandleTypeDef *huart)
{
 80056d4:	b580      	push	{r7, lr}
 80056d6:	b088      	sub	sp, #32
 80056d8:	af00      	add	r7, sp, #0
 80056da:	6078      	str	r0, [r7, #4]
  uint32_t tmpreg;
  uint16_t brrtemp;
  UART_ClockSourceTypeDef clocksource;
  uint32_t usartdiv;
  HAL_StatusTypeDef ret               = HAL_OK;
 80056dc:	2300      	movs	r3, #0
 80056de:	77bb      	strb	r3, [r7, #30]
  *  the UART Word Length, Parity, Mode and oversampling:
  *  set the M bits according to huart->Init.WordLength value
  *  set PCE and PS bits according to huart->Init.Parity value
  *  set TE and RE bits according to huart->Init.Mode value
  *  set OVER8 bit according to huart->Init.OverSampling value */
  tmpreg = (uint32_t)huart->Init.WordLength | huart->Init.Parity | huart->Init.Mode | huart->Init.OverSampling ;
 80056e0:	687b      	ldr	r3, [r7, #4]
 80056e2:	689a      	ldr	r2, [r3, #8]
 80056e4:	687b      	ldr	r3, [r7, #4]
 80056e6:	691b      	ldr	r3, [r3, #16]
 80056e8:	431a      	orrs	r2, r3
 80056ea:	687b      	ldr	r3, [r7, #4]
 80056ec:	695b      	ldr	r3, [r3, #20]
 80056ee:	431a      	orrs	r2, r3
 80056f0:	687b      	ldr	r3, [r7, #4]
 80056f2:	69db      	ldr	r3, [r3, #28]
 80056f4:	4313      	orrs	r3, r2
 80056f6:	617b      	str	r3, [r7, #20]
  MODIFY_REG(huart->Instance->CR1, USART_CR1_FIELDS, tmpreg);
 80056f8:	687b      	ldr	r3, [r7, #4]
 80056fa:	681b      	ldr	r3, [r3, #0]
 80056fc:	681a      	ldr	r2, [r3, #0]
 80056fe:	4b8a      	ldr	r3, [pc, #552]	@ (8005928 <UART_SetConfig+0x254>)
 8005700:	4013      	ands	r3, r2
 8005702:	687a      	ldr	r2, [r7, #4]
 8005704:	6812      	ldr	r2, [r2, #0]
 8005706:	6979      	ldr	r1, [r7, #20]
 8005708:	430b      	orrs	r3, r1
 800570a:	6013      	str	r3, [r2, #0]

  /*-------------------------- USART CR2 Configuration -----------------------*/
  /* Configure the UART Stop Bits: Set STOP[13:12] bits according
  * to huart->Init.StopBits value */
  MODIFY_REG(huart->Instance->CR2, USART_CR2_STOP, huart->Init.StopBits);
 800570c:	687b      	ldr	r3, [r7, #4]
 800570e:	681b      	ldr	r3, [r3, #0]
 8005710:	685b      	ldr	r3, [r3, #4]
 8005712:	f423 5140 	bic.w	r1, r3, #12288	@ 0x3000
 8005716:	687b      	ldr	r3, [r7, #4]
 8005718:	68da      	ldr	r2, [r3, #12]
 800571a:	687b      	ldr	r3, [r7, #4]
 800571c:	681b      	ldr	r3, [r3, #0]
 800571e:	430a      	orrs	r2, r1
 8005720:	605a      	str	r2, [r3, #4]
  /* Configure
  * - UART HardWare Flow Control: set CTSE and RTSE bits according
  *   to huart->Init.HwFlowCtl value
  * - one-bit sampling method versus three samples' majority rule according
  *   to huart->Init.OneBitSampling (not applicable to LPUART) */
  tmpreg = (uint32_t)huart->Init.HwFlowCtl;
 8005722:	687b      	ldr	r3, [r7, #4]
 8005724:	699b      	ldr	r3, [r3, #24]
 8005726:	617b      	str	r3, [r7, #20]

  tmpreg |= huart->Init.OneBitSampling;
 8005728:	687b      	ldr	r3, [r7, #4]
 800572a:	6a1b      	ldr	r3, [r3, #32]
 800572c:	697a      	ldr	r2, [r7, #20]
 800572e:	4313      	orrs	r3, r2
 8005730:	617b      	str	r3, [r7, #20]
  MODIFY_REG(huart->Instance->CR3, USART_CR3_FIELDS, tmpreg);
 8005732:	687b      	ldr	r3, [r7, #4]
 8005734:	681b      	ldr	r3, [r3, #0]
 8005736:	689b      	ldr	r3, [r3, #8]
 8005738:	f423 6130 	bic.w	r1, r3, #2816	@ 0xb00
 800573c:	687b      	ldr	r3, [r7, #4]
 800573e:	681b      	ldr	r3, [r3, #0]
 8005740:	697a      	ldr	r2, [r7, #20]
 8005742:	430a      	orrs	r2, r1
 8005744:	609a      	str	r2, [r3, #8]


  /*-------------------------- USART BRR Configuration -----------------------*/
  UART_GETCLOCKSOURCE(huart, clocksource);
 8005746:	687b      	ldr	r3, [r7, #4]
 8005748:	681b      	ldr	r3, [r3, #0]
 800574a:	4a78      	ldr	r2, [pc, #480]	@ (800592c <UART_SetConfig+0x258>)
 800574c:	4293      	cmp	r3, r2
 800574e:	d120      	bne.n	8005792 <UART_SetConfig+0xbe>
 8005750:	4b77      	ldr	r3, [pc, #476]	@ (8005930 <UART_SetConfig+0x25c>)
 8005752:	6b1b      	ldr	r3, [r3, #48]	@ 0x30
 8005754:	f003 0303 	and.w	r3, r3, #3
 8005758:	2b03      	cmp	r3, #3
 800575a:	d817      	bhi.n	800578c <UART_SetConfig+0xb8>
 800575c:	a201      	add	r2, pc, #4	@ (adr r2, 8005764 <UART_SetConfig+0x90>)
 800575e:	f852 f023 	ldr.w	pc, [r2, r3, lsl #2]
 8005762:	bf00      	nop
 8005764:	08005775 	.word	0x08005775
 8005768:	08005781 	.word	0x08005781
 800576c:	08005787 	.word	0x08005787
 8005770:	0800577b 	.word	0x0800577b
 8005774:	2300      	movs	r3, #0
 8005776:	77fb      	strb	r3, [r7, #31]
 8005778:	e01d      	b.n	80057b6 <UART_SetConfig+0xe2>
 800577a:	2302      	movs	r3, #2
 800577c:	77fb      	strb	r3, [r7, #31]
 800577e:	e01a      	b.n	80057b6 <UART_SetConfig+0xe2>
 8005780:	2304      	movs	r3, #4
 8005782:	77fb      	strb	r3, [r7, #31]
 8005784:	e017      	b.n	80057b6 <UART_SetConfig+0xe2>
 8005786:	2308      	movs	r3, #8
 8005788:	77fb      	strb	r3, [r7, #31]
 800578a:	e014      	b.n	80057b6 <UART_SetConfig+0xe2>
 800578c:	2310      	movs	r3, #16
 800578e:	77fb      	strb	r3, [r7, #31]
 8005790:	e011      	b.n	80057b6 <UART_SetConfig+0xe2>
 8005792:	687b      	ldr	r3, [r7, #4]
 8005794:	681b      	ldr	r3, [r3, #0]
 8005796:	4a67      	ldr	r2, [pc, #412]	@ (8005934 <UART_SetConfig+0x260>)
 8005798:	4293      	cmp	r3, r2
 800579a:	d102      	bne.n	80057a2 <UART_SetConfig+0xce>
 800579c:	2300      	movs	r3, #0
 800579e:	77fb      	strb	r3, [r7, #31]
 80057a0:	e009      	b.n	80057b6 <UART_SetConfig+0xe2>
 80057a2:	687b      	ldr	r3, [r7, #4]
 80057a4:	681b      	ldr	r3, [r3, #0]
 80057a6:	4a64      	ldr	r2, [pc, #400]	@ (8005938 <UART_SetConfig+0x264>)
 80057a8:	4293      	cmp	r3, r2
 80057aa:	d102      	bne.n	80057b2 <UART_SetConfig+0xde>
 80057ac:	2300      	movs	r3, #0
 80057ae:	77fb      	strb	r3, [r7, #31]
 80057b0:	e001      	b.n	80057b6 <UART_SetConfig+0xe2>
 80057b2:	2310      	movs	r3, #16
 80057b4:	77fb      	strb	r3, [r7, #31]

  if (huart->Init.OverSampling == UART_OVERSAMPLING_8)
 80057b6:	687b      	ldr	r3, [r7, #4]
 80057b8:	69db      	ldr	r3, [r3, #28]
 80057ba:	f5b3 4f00 	cmp.w	r3, #32768	@ 0x8000
 80057be:	d15a      	bne.n	8005876 <UART_SetConfig+0x1a2>
  {
    switch (clocksource)
 80057c0:	7ffb      	ldrb	r3, [r7, #31]
 80057c2:	2b08      	cmp	r3, #8
 80057c4:	d827      	bhi.n	8005816 <UART_SetConfig+0x142>
 80057c6:	a201      	add	r2, pc, #4	@ (adr r2, 80057cc <UART_SetConfig+0xf8>)
 80057c8:	f852 f023 	ldr.w	pc, [r2, r3, lsl #2]
 80057cc:	080057f1 	.word	0x080057f1
 80057d0:	080057f9 	.word	0x080057f9
 80057d4:	08005801 	.word	0x08005801
 80057d8:	08005817 	.word	0x08005817
 80057dc:	08005807 	.word	0x08005807
 80057e0:	08005817 	.word	0x08005817
 80057e4:	08005817 	.word	0x08005817
 80057e8:	08005817 	.word	0x08005817
 80057ec:	0800580f 	.word	0x0800580f
    {
      case UART_CLOCKSOURCE_PCLK1:
        pclk = HAL_RCC_GetPCLK1Freq();
 80057f0:	f7fe fbfe 	bl	8003ff0 <HAL_RCC_GetPCLK1Freq>
 80057f4:	61b8      	str	r0, [r7, #24]
        break;
 80057f6:	e013      	b.n	8005820 <UART_SetConfig+0x14c>
      case UART_CLOCKSOURCE_PCLK2:
        pclk = HAL_RCC_GetPCLK2Freq();
 80057f8:	f7fe fc1c 	bl	8004034 <HAL_RCC_GetPCLK2Freq>
 80057fc:	61b8      	str	r0, [r7, #24]
        break;
 80057fe:	e00f      	b.n	8005820 <UART_SetConfig+0x14c>
      case UART_CLOCKSOURCE_HSI:
        pclk = (uint32_t) HSI_VALUE;
 8005800:	4b4e      	ldr	r3, [pc, #312]	@ (800593c <UART_SetConfig+0x268>)
 8005802:	61bb      	str	r3, [r7, #24]
        break;
 8005804:	e00c      	b.n	8005820 <UART_SetConfig+0x14c>
      case UART_CLOCKSOURCE_SYSCLK:
        pclk = HAL_RCC_GetSysClockFreq();
 8005806:	f7fe fb93 	bl	8003f30 <HAL_RCC_GetSysClockFreq>
 800580a:	61b8      	str	r0, [r7, #24]
        break;
 800580c:	e008      	b.n	8005820 <UART_SetConfig+0x14c>
      case UART_CLOCKSOURCE_LSE:
        pclk = (uint32_t) LSE_VALUE;
 800580e:	f44f 4300 	mov.w	r3, #32768	@ 0x8000
 8005812:	61bb      	str	r3, [r7, #24]
        break;
 8005814:	e004      	b.n	8005820 <UART_SetConfig+0x14c>
      default:
        pclk = 0U;
 8005816:	2300      	movs	r3, #0
 8005818:	61bb      	str	r3, [r7, #24]
        ret = HAL_ERROR;
 800581a:	2301      	movs	r3, #1
 800581c:	77bb      	strb	r3, [r7, #30]
        break;
 800581e:	bf00      	nop
    }

    /* USARTDIV must be greater than or equal to 0d16 */
    if (pclk != 0U)
 8005820:	69bb      	ldr	r3, [r7, #24]
 8005822:	2b00      	cmp	r3, #0
 8005824:	d074      	beq.n	8005910 <UART_SetConfig+0x23c>
    {
      usartdiv = (uint32_t)(UART_DIV_SAMPLING8(pclk, huart->Init.BaudRate));
 8005826:	69bb      	ldr	r3, [r7, #24]
 8005828:	005a      	lsls	r2, r3, #1
 800582a:	687b      	ldr	r3, [r7, #4]
 800582c:	685b      	ldr	r3, [r3, #4]
 800582e:	085b      	lsrs	r3, r3, #1
 8005830:	441a      	add	r2, r3
 8005832:	687b      	ldr	r3, [r7, #4]
 8005834:	685b      	ldr	r3, [r3, #4]
 8005836:	fbb2 f3f3 	udiv	r3, r2, r3
 800583a:	613b      	str	r3, [r7, #16]
      if ((usartdiv >= UART_BRR_MIN) && (usartdiv <= UART_BRR_MAX))
 800583c:	693b      	ldr	r3, [r7, #16]
 800583e:	2b0f      	cmp	r3, #15
 8005840:	d916      	bls.n	8005870 <UART_SetConfig+0x19c>
 8005842:	693b      	ldr	r3, [r7, #16]
 8005844:	f5b3 3f80 	cmp.w	r3, #65536	@ 0x10000
 8005848:	d212      	bcs.n	8005870 <UART_SetConfig+0x19c>
      {
        brrtemp = (uint16_t)(usartdiv & 0xFFF0U);
 800584a:	693b      	ldr	r3, [r7, #16]
 800584c:	b29b      	uxth	r3, r3
 800584e:	f023 030f 	bic.w	r3, r3, #15
 8005852:	81fb      	strh	r3, [r7, #14]
        brrtemp |= (uint16_t)((usartdiv & (uint16_t)0x000FU) >> 1U);
 8005854:	693b      	ldr	r3, [r7, #16]
 8005856:	085b      	lsrs	r3, r3, #1
 8005858:	b29b      	uxth	r3, r3
 800585a:	f003 0307 	and.w	r3, r3, #7
 800585e:	b29a      	uxth	r2, r3
 8005860:	89fb      	ldrh	r3, [r7, #14]
 8005862:	4313      	orrs	r3, r2
 8005864:	81fb      	strh	r3, [r7, #14]
        huart->Instance->BRR = brrtemp;
 8005866:	687b      	ldr	r3, [r7, #4]
 8005868:	681b      	ldr	r3, [r3, #0]
 800586a:	89fa      	ldrh	r2, [r7, #14]
 800586c:	60da      	str	r2, [r3, #12]
 800586e:	e04f      	b.n	8005910 <UART_SetConfig+0x23c>
      }
      else
      {
        ret = HAL_ERROR;
 8005870:	2301      	movs	r3, #1
 8005872:	77bb      	strb	r3, [r7, #30]
 8005874:	e04c      	b.n	8005910 <UART_SetConfig+0x23c>
      }
    }
  }
  else
  {
    switch (clocksource)
 8005876:	7ffb      	ldrb	r3, [r7, #31]
 8005878:	2b08      	cmp	r3, #8
 800587a:	d828      	bhi.n	80058ce <UART_SetConfig+0x1fa>
 800587c:	a201      	add	r2, pc, #4	@ (adr r2, 8005884 <UART_SetConfig+0x1b0>)
 800587e:	f852 f023 	ldr.w	pc, [r2, r3, lsl #2]
 8005882:	bf00      	nop
 8005884:	080058a9 	.word	0x080058a9
 8005888:	080058b1 	.word	0x080058b1
 800588c:	080058b9 	.word	0x080058b9
 8005890:	080058cf 	.word	0x080058cf
 8005894:	080058bf 	.word	0x080058bf
 8005898:	080058cf 	.word	0x080058cf
 800589c:	080058cf 	.word	0x080058cf
 80058a0:	080058cf 	.word	0x080058cf
 80058a4:	080058c7 	.word	0x080058c7
    {
      case UART_CLOCKSOURCE_PCLK1:
        pclk = HAL_RCC_GetPCLK1Freq();
 80058a8:	f7fe fba2 	bl	8003ff0 <HAL_RCC_GetPCLK1Freq>
 80058ac:	61b8      	str	r0, [r7, #24]
        break;
 80058ae:	e013      	b.n	80058d8 <UART_SetConfig+0x204>
      case UART_CLOCKSOURCE_PCLK2:
        pclk = HAL_RCC_GetPCLK2Freq();
 80058b0:	f7fe fbc0 	bl	8004034 <HAL_RCC_GetPCLK2Freq>
 80058b4:	61b8      	str	r0, [r7, #24]
        break;
 80058b6:	e00f      	b.n	80058d8 <UART_SetConfig+0x204>
      case UART_CLOCKSOURCE_HSI:
        pclk = (uint32_t) HSI_VALUE;
 80058b8:	4b20      	ldr	r3, [pc, #128]	@ (800593c <UART_SetConfig+0x268>)
 80058ba:	61bb      	str	r3, [r7, #24]
        break;
 80058bc:	e00c      	b.n	80058d8 <UART_SetConfig+0x204>
      case UART_CLOCKSOURCE_SYSCLK:
        pclk = HAL_RCC_GetSysClockFreq();
 80058be:	f7fe fb37 	bl	8003f30 <HAL_RCC_GetSysClockFreq>
 80058c2:	61b8      	str	r0, [r7, #24]
        break;
 80058c4:	e008      	b.n	80058d8 <UART_SetConfig+0x204>
      case UART_CLOCKSOURCE_LSE:
        pclk = (uint32_t) LSE_VALUE;
 80058c6:	f44f 4300 	mov.w	r3, #32768	@ 0x8000
 80058ca:	61bb      	str	r3, [r7, #24]
        break;
 80058cc:	e004      	b.n	80058d8 <UART_SetConfig+0x204>
      default:
        pclk = 0U;
 80058ce:	2300      	movs	r3, #0
 80058d0:	61bb      	str	r3, [r7, #24]
        ret = HAL_ERROR;
 80058d2:	2301      	movs	r3, #1
 80058d4:	77bb      	strb	r3, [r7, #30]
        break;
 80058d6:	bf00      	nop
    }

    if (pclk != 0U)
 80058d8:	69bb      	ldr	r3, [r7, #24]
 80058da:	2b00      	cmp	r3, #0
 80058dc:	d018      	beq.n	8005910 <UART_SetConfig+0x23c>
    {
      /* USARTDIV must be greater than or equal to 0d16 */
      usartdiv = (uint32_t)(UART_DIV_SAMPLING16(pclk, huart->Init.BaudRate));
 80058de:	687b      	ldr	r3, [r7, #4]
 80058e0:	685b      	ldr	r3, [r3, #4]
 80058e2:	085a      	lsrs	r2, r3, #1
 80058e4:	69bb      	ldr	r3, [r7, #24]
 80058e6:	441a      	add	r2, r3
 80058e8:	687b      	ldr	r3, [r7, #4]
 80058ea:	685b      	ldr	r3, [r3, #4]
 80058ec:	fbb2 f3f3 	udiv	r3, r2, r3
 80058f0:	613b      	str	r3, [r7, #16]
      if ((usartdiv >= UART_BRR_MIN) && (usartdiv <= UART_BRR_MAX))
 80058f2:	693b      	ldr	r3, [r7, #16]
 80058f4:	2b0f      	cmp	r3, #15
 80058f6:	d909      	bls.n	800590c <UART_SetConfig+0x238>
 80058f8:	693b      	ldr	r3, [r7, #16]
 80058fa:	f5b3 3f80 	cmp.w	r3, #65536	@ 0x10000
 80058fe:	d205      	bcs.n	800590c <UART_SetConfig+0x238>
      {
        huart->Instance->BRR = (uint16_t)usartdiv;
 8005900:	693b      	ldr	r3, [r7, #16]
 8005902:	b29a      	uxth	r2, r3
 8005904:	687b      	ldr	r3, [r7, #4]
 8005906:	681b      	ldr	r3, [r3, #0]
 8005908:	60da      	str	r2, [r3, #12]
 800590a:	e001      	b.n	8005910 <UART_SetConfig+0x23c>
      }
      else
      {
        ret = HAL_ERROR;
 800590c:	2301      	movs	r3, #1
 800590e:	77bb      	strb	r3, [r7, #30]
    }
  }


  /* Clear ISR function pointers */
  huart->RxISR = NULL;
 8005910:	687b      	ldr	r3, [r7, #4]
 8005912:	2200      	movs	r2, #0
 8005914:	669a      	str	r2, [r3, #104]	@ 0x68
  huart->TxISR = NULL;
 8005916:	687b      	ldr	r3, [r7, #4]
 8005918:	2200      	movs	r2, #0
 800591a:	66da      	str	r2, [r3, #108]	@ 0x6c

  return ret;
 800591c:	7fbb      	ldrb	r3, [r7, #30]
}
 800591e:	4618      	mov	r0, r3
 8005920:	3720      	adds	r7, #32
 8005922:	46bd      	mov	sp, r7
 8005924:	bd80      	pop	{r7, pc}
 8005926:	bf00      	nop
 8005928:	efff69f3 	.word	0xefff69f3
 800592c:	40013800 	.word	0x40013800
 8005930:	40021000 	.word	0x40021000
 8005934:	40004400 	.word	0x40004400
 8005938:	40004800 	.word	0x40004800
 800593c:	007a1200 	.word	0x007a1200

08005940 <UART_AdvFeatureConfig>:
  * @brief Configure the UART peripheral advanced features.
  * @param huart UART handle.
  * @retval None
  */
void UART_AdvFeatureConfig(UART_HandleTypeDef *huart)
{
 8005940:	b480      	push	{r7}
 8005942:	b083      	sub	sp, #12
 8005944:	af00      	add	r7, sp, #0
 8005946:	6078      	str	r0, [r7, #4]
  /* Check whether the set of advanced features to configure is properly set */
  assert_param(IS_UART_ADVFEATURE_INIT(huart->AdvancedInit.AdvFeatureInit));

  /* if required, configure RX/TX pins swap */
  if (HAL_IS_BIT_SET(huart->AdvancedInit.AdvFeatureInit, UART_ADVFEATURE_SWAP_INIT))
 8005948:	687b      	ldr	r3, [r7, #4]
 800594a:	6a5b      	ldr	r3, [r3, #36]	@ 0x24
 800594c:	f003 0308 	and.w	r3, r3, #8
 8005950:	2b00      	cmp	r3, #0
 8005952:	d00a      	beq.n	800596a <UART_AdvFeatureConfig+0x2a>
  {
    assert_param(IS_UART_ADVFEATURE_SWAP(huart->AdvancedInit.Swap));
    MODIFY_REG(huart->Instance->CR2, USART_CR2_SWAP, huart->AdvancedInit.Swap);
 8005954:	687b      	ldr	r3, [r7, #4]
 8005956:	681b      	ldr	r3, [r3, #0]
 8005958:	685b      	ldr	r3, [r3, #4]
 800595a:	f423 4100 	bic.w	r1, r3, #32768	@ 0x8000
 800595e:	687b      	ldr	r3, [r7, #4]
 8005960:	6b5a      	ldr	r2, [r3, #52]	@ 0x34
 8005962:	687b      	ldr	r3, [r7, #4]
 8005964:	681b      	ldr	r3, [r3, #0]
 8005966:	430a      	orrs	r2, r1
 8005968:	605a      	str	r2, [r3, #4]
  }

  /* if required, configure TX pin active level inversion */
  if (HAL_IS_BIT_SET(huart->AdvancedInit.AdvFeatureInit, UART_ADVFEATURE_TXINVERT_INIT))
 800596a:	687b      	ldr	r3, [r7, #4]
 800596c:	6a5b      	ldr	r3, [r3, #36]	@ 0x24
 800596e:	f003 0301 	and.w	r3, r3, #1
 8005972:	2b00      	cmp	r3, #0
 8005974:	d00a      	beq.n	800598c <UART_AdvFeatureConfig+0x4c>
  {
    assert_param(IS_UART_ADVFEATURE_TXINV(huart->AdvancedInit.TxPinLevelInvert));
    MODIFY_REG(huart->Instance->CR2, USART_CR2_TXINV, huart->AdvancedInit.TxPinLevelInvert);
 8005976:	687b      	ldr	r3, [r7, #4]
 8005978:	681b      	ldr	r3, [r3, #0]
 800597a:	685b      	ldr	r3, [r3, #4]
 800597c:	f423 3100 	bic.w	r1, r3, #131072	@ 0x20000
 8005980:	687b      	ldr	r3, [r7, #4]
 8005982:	6a9a      	ldr	r2, [r3, #40]	@ 0x28
 8005984:	687b      	ldr	r3, [r7, #4]
 8005986:	681b      	ldr	r3, [r3, #0]
 8005988:	430a      	orrs	r2, r1
 800598a:	605a      	str	r2, [r3, #4]
  }

  /* if required, configure RX pin active level inversion */
  if (HAL_IS_BIT_SET(huart->AdvancedInit.AdvFeatureInit, UART_ADVFEATURE_RXINVERT_INIT))
 800598c:	687b      	ldr	r3, [r7, #4]
 800598e:	6a5b      	ldr	r3, [r3, #36]	@ 0x24
 8005990:	f003 0302 	and.w	r3, r3, #2
 8005994:	2b00      	cmp	r3, #0
 8005996:	d00a      	beq.n	80059ae <UART_AdvFeatureConfig+0x6e>
  {
    assert_param(IS_UART_ADVFEATURE_RXINV(huart->AdvancedInit.RxPinLevelInvert));
    MODIFY_REG(huart->Instance->CR2, USART_CR2_RXINV, huart->AdvancedInit.RxPinLevelInvert);
 8005998:	687b      	ldr	r3, [r7, #4]
 800599a:	681b      	ldr	r3, [r3, #0]
 800599c:	685b      	ldr	r3, [r3, #4]
 800599e:	f423 3180 	bic.w	r1, r3, #65536	@ 0x10000
 80059a2:	687b      	ldr	r3, [r7, #4]
 80059a4:	6ada      	ldr	r2, [r3, #44]	@ 0x2c
 80059a6:	687b      	ldr	r3, [r7, #4]
 80059a8:	681b      	ldr	r3, [r3, #0]
 80059aa:	430a      	orrs	r2, r1
 80059ac:	605a      	str	r2, [r3, #4]
  }

  /* if required, configure data inversion */
  if (HAL_IS_BIT_SET(huart->AdvancedInit.AdvFeatureInit, UART_ADVFEATURE_DATAINVERT_INIT))
 80059ae:	687b      	ldr	r3, [r7, #4]
 80059b0:	6a5b      	ldr	r3, [r3, #36]	@ 0x24
 80059b2:	f003 0304 	and.w	r3, r3, #4
 80059b6:	2b00      	cmp	r3, #0
 80059b8:	d00a      	beq.n	80059d0 <UART_AdvFeatureConfig+0x90>
  {
    assert_param(IS_UART_ADVFEATURE_DATAINV(huart->AdvancedInit.DataInvert));
    MODIFY_REG(huart->Instance->CR2, USART_CR2_DATAINV, huart->AdvancedInit.DataInvert);
 80059ba:	687b      	ldr	r3, [r7, #4]
 80059bc:	681b      	ldr	r3, [r3, #0]
 80059be:	685b      	ldr	r3, [r3, #4]
 80059c0:	f423 2180 	bic.w	r1, r3, #262144	@ 0x40000
 80059c4:	687b      	ldr	r3, [r7, #4]
 80059c6:	6b1a      	ldr	r2, [r3, #48]	@ 0x30
 80059c8:	687b      	ldr	r3, [r7, #4]
 80059ca:	681b      	ldr	r3, [r3, #0]
 80059cc:	430a      	orrs	r2, r1
 80059ce:	605a      	str	r2, [r3, #4]
  }

  /* if required, configure RX overrun detection disabling */
  if (HAL_IS_BIT_SET(huart->AdvancedInit.AdvFeatureInit, UART_ADVFEATURE_RXOVERRUNDISABLE_INIT))
 80059d0:	687b      	ldr	r3, [r7, #4]
 80059d2:	6a5b      	ldr	r3, [r3, #36]	@ 0x24
 80059d4:	f003 0310 	and.w	r3, r3, #16
 80059d8:	2b00      	cmp	r3, #0
 80059da:	d00a      	beq.n	80059f2 <UART_AdvFeatureConfig+0xb2>
  {
    assert_param(IS_UART_OVERRUN(huart->AdvancedInit.OverrunDisable));
    MODIFY_REG(huart->Instance->CR3, USART_CR3_OVRDIS, huart->AdvancedInit.OverrunDisable);
 80059dc:	687b      	ldr	r3, [r7, #4]
 80059de:	681b      	ldr	r3, [r3, #0]
 80059e0:	689b      	ldr	r3, [r3, #8]
 80059e2:	f423 5180 	bic.w	r1, r3, #4096	@ 0x1000
 80059e6:	687b      	ldr	r3, [r7, #4]
 80059e8:	6b9a      	ldr	r2, [r3, #56]	@ 0x38
 80059ea:	687b      	ldr	r3, [r7, #4]
 80059ec:	681b      	ldr	r3, [r3, #0]
 80059ee:	430a      	orrs	r2, r1
 80059f0:	609a      	str	r2, [r3, #8]
  }

  /* if required, configure DMA disabling on reception error */
  if (HAL_IS_BIT_SET(huart->AdvancedInit.AdvFeatureInit, UART_ADVFEATURE_DMADISABLEONERROR_INIT))
 80059f2:	687b      	ldr	r3, [r7, #4]
 80059f4:	6a5b      	ldr	r3, [r3, #36]	@ 0x24
 80059f6:	f003 0320 	and.w	r3, r3, #32
 80059fa:	2b00      	cmp	r3, #0
 80059fc:	d00a      	beq.n	8005a14 <UART_AdvFeatureConfig+0xd4>
  {
    assert_param(IS_UART_ADVFEATURE_DMAONRXERROR(huart->AdvancedInit.DMADisableonRxError));
    MODIFY_REG(huart->Instance->CR3, USART_CR3_DDRE, huart->AdvancedInit.DMADisableonRxError);
 80059fe:	687b      	ldr	r3, [r7, #4]
 8005a00:	681b      	ldr	r3, [r3, #0]
 8005a02:	689b      	ldr	r3, [r3, #8]
 8005a04:	f423 5100 	bic.w	r1, r3, #8192	@ 0x2000
 8005a08:	687b      	ldr	r3, [r7, #4]
 8005a0a:	6bda      	ldr	r2, [r3, #60]	@ 0x3c
 8005a0c:	687b      	ldr	r3, [r7, #4]
 8005a0e:	681b      	ldr	r3, [r3, #0]
 8005a10:	430a      	orrs	r2, r1
 8005a12:	609a      	str	r2, [r3, #8]
  }

  /* if required, configure auto Baud rate detection scheme */
  if (HAL_IS_BIT_SET(huart->AdvancedInit.AdvFeatureInit, UART_ADVFEATURE_AUTOBAUDRATE_INIT))
 8005a14:	687b      	ldr	r3, [r7, #4]
 8005a16:	6a5b      	ldr	r3, [r3, #36]	@ 0x24
 8005a18:	f003 0340 	and.w	r3, r3, #64	@ 0x40
 8005a1c:	2b00      	cmp	r3, #0
 8005a1e:	d01a      	beq.n	8005a56 <UART_AdvFeatureConfig+0x116>
  {
    assert_param(IS_USART_AUTOBAUDRATE_DETECTION_INSTANCE(huart->Instance));
    assert_param(IS_UART_ADVFEATURE_AUTOBAUDRATE(huart->AdvancedInit.AutoBaudRateEnable));
    MODIFY_REG(huart->Instance->CR2, USART_CR2_ABREN, huart->AdvancedInit.AutoBaudRateEnable);
 8005a20:	687b      	ldr	r3, [r7, #4]
 8005a22:	681b      	ldr	r3, [r3, #0]
 8005a24:	685b      	ldr	r3, [r3, #4]
 8005a26:	f423 1180 	bic.w	r1, r3, #1048576	@ 0x100000
 8005a2a:	687b      	ldr	r3, [r7, #4]
 8005a2c:	6c1a      	ldr	r2, [r3, #64]	@ 0x40
 8005a2e:	687b      	ldr	r3, [r7, #4]
 8005a30:	681b      	ldr	r3, [r3, #0]
 8005a32:	430a      	orrs	r2, r1
 8005a34:	605a      	str	r2, [r3, #4]
    /* set auto Baudrate detection parameters if detection is enabled */
    if (huart->AdvancedInit.AutoBaudRateEnable == UART_ADVFEATURE_AUTOBAUDRATE_ENABLE)
 8005a36:	687b      	ldr	r3, [r7, #4]
 8005a38:	6c1b      	ldr	r3, [r3, #64]	@ 0x40
 8005a3a:	f5b3 1f80 	cmp.w	r3, #1048576	@ 0x100000
 8005a3e:	d10a      	bne.n	8005a56 <UART_AdvFeatureConfig+0x116>
    {
      assert_param(IS_UART_ADVFEATURE_AUTOBAUDRATEMODE(huart->AdvancedInit.AutoBaudRateMode));
      MODIFY_REG(huart->Instance->CR2, USART_CR2_ABRMODE, huart->AdvancedInit.AutoBaudRateMode);
 8005a40:	687b      	ldr	r3, [r7, #4]
 8005a42:	681b      	ldr	r3, [r3, #0]
 8005a44:	685b      	ldr	r3, [r3, #4]
 8005a46:	f423 01c0 	bic.w	r1, r3, #6291456	@ 0x600000
 8005a4a:	687b      	ldr	r3, [r7, #4]
 8005a4c:	6c5a      	ldr	r2, [r3, #68]	@ 0x44
 8005a4e:	687b      	ldr	r3, [r7, #4]
 8005a50:	681b      	ldr	r3, [r3, #0]
 8005a52:	430a      	orrs	r2, r1
 8005a54:	605a      	str	r2, [r3, #4]
    }
  }

  /* if required, configure MSB first on communication line */
  if (HAL_IS_BIT_SET(huart->AdvancedInit.AdvFeatureInit, UART_ADVFEATURE_MSBFIRST_INIT))
 8005a56:	687b      	ldr	r3, [r7, #4]
 8005a58:	6a5b      	ldr	r3, [r3, #36]	@ 0x24
 8005a5a:	f003 0380 	and.w	r3, r3, #128	@ 0x80
 8005a5e:	2b00      	cmp	r3, #0
 8005a60:	d00a      	beq.n	8005a78 <UART_AdvFeatureConfig+0x138>
  {
    assert_param(IS_UART_ADVFEATURE_MSBFIRST(huart->AdvancedInit.MSBFirst));
    MODIFY_REG(huart->Instance->CR2, USART_CR2_MSBFIRST, huart->AdvancedInit.MSBFirst);
 8005a62:	687b      	ldr	r3, [r7, #4]
 8005a64:	681b      	ldr	r3, [r3, #0]
 8005a66:	685b      	ldr	r3, [r3, #4]
 8005a68:	f423 2100 	bic.w	r1, r3, #524288	@ 0x80000
 8005a6c:	687b      	ldr	r3, [r7, #4]
 8005a6e:	6c9a      	ldr	r2, [r3, #72]	@ 0x48
 8005a70:	687b      	ldr	r3, [r7, #4]
 8005a72:	681b      	ldr	r3, [r3, #0]
 8005a74:	430a      	orrs	r2, r1
 8005a76:	605a      	str	r2, [r3, #4]
  }
}
 8005a78:	bf00      	nop
 8005a7a:	370c      	adds	r7, #12
 8005a7c:	46bd      	mov	sp, r7
 8005a7e:	f85d 7b04 	ldr.w	r7, [sp], #4
 8005a82:	4770      	bx	lr

08005a84 <UART_CheckIdleState>:
  * @brief Check the UART Idle State.
  * @param huart UART handle.
  * @retval HAL status
  */
HAL_StatusTypeDef UART_CheckIdleState(UART_HandleTypeDef *huart)
{
 8005a84:	b580      	push	{r7, lr}
 8005a86:	b098      	sub	sp, #96	@ 0x60
 8005a88:	af02      	add	r7, sp, #8
 8005a8a:	6078      	str	r0, [r7, #4]
  uint32_t tickstart;

  /* Initialize the UART ErrorCode */
  huart->ErrorCode = HAL_UART_ERROR_NONE;
 8005a8c:	687b      	ldr	r3, [r7, #4]
 8005a8e:	2200      	movs	r2, #0
 8005a90:	f8c3 2084 	str.w	r2, [r3, #132]	@ 0x84

  /* Init tickstart for timeout management */
  tickstart = HAL_GetTick();
 8005a94:	f7fb fda6 	bl	80015e4 <HAL_GetTick>
 8005a98:	6578      	str	r0, [r7, #84]	@ 0x54

  /* Check if the Transmitter is enabled */
  if ((huart->Instance->CR1 & USART_CR1_TE) == USART_CR1_TE)
 8005a9a:	687b      	ldr	r3, [r7, #4]
 8005a9c:	681b      	ldr	r3, [r3, #0]
 8005a9e:	681b      	ldr	r3, [r3, #0]
 8005aa0:	f003 0308 	and.w	r3, r3, #8
 8005aa4:	2b08      	cmp	r3, #8
 8005aa6:	d12e      	bne.n	8005b06 <UART_CheckIdleState+0x82>
  {
    /* Wait until TEACK flag is set */
    if (UART_WaitOnFlagUntilTimeout(huart, USART_ISR_TEACK, RESET, tickstart, HAL_UART_TIMEOUT_VALUE) != HAL_OK)
 8005aa8:	f06f 437e 	mvn.w	r3, #4261412864	@ 0xfe000000
 8005aac:	9300      	str	r3, [sp, #0]
 8005aae:	6d7b      	ldr	r3, [r7, #84]	@ 0x54
 8005ab0:	2200      	movs	r2, #0
 8005ab2:	f44f 1100 	mov.w	r1, #2097152	@ 0x200000
 8005ab6:	6878      	ldr	r0, [r7, #4]
 8005ab8:	f000 f88c 	bl	8005bd4 <UART_WaitOnFlagUntilTimeout>
 8005abc:	4603      	mov	r3, r0
 8005abe:	2b00      	cmp	r3, #0
 8005ac0:	d021      	beq.n	8005b06 <UART_CheckIdleState+0x82>
    {
      /* Disable TXE interrupt for the interrupt process */
      ATOMIC_CLEAR_BIT(huart->Instance->CR1, (USART_CR1_TXEIE));
 8005ac2:	687b      	ldr	r3, [r7, #4]
 8005ac4:	681b      	ldr	r3, [r3, #0]
 8005ac6:	63bb      	str	r3, [r7, #56]	@ 0x38
 */
__STATIC_FORCEINLINE uint32_t __LDREXW(volatile uint32_t *addr)
{
    uint32_t result;

   __ASM volatile ("ldrex %0, %1" : "=r" (result) : "Q" (*addr) );
 8005ac8:	6bbb      	ldr	r3, [r7, #56]	@ 0x38
 8005aca:	e853 3f00 	ldrex	r3, [r3]
 8005ace:	637b      	str	r3, [r7, #52]	@ 0x34
   return(result);
 8005ad0:	6b7b      	ldr	r3, [r7, #52]	@ 0x34
 8005ad2:	f023 0380 	bic.w	r3, r3, #128	@ 0x80
 8005ad6:	653b      	str	r3, [r7, #80]	@ 0x50
 8005ad8:	687b      	ldr	r3, [r7, #4]
 8005ada:	681b      	ldr	r3, [r3, #0]
 8005adc:	461a      	mov	r2, r3
 8005ade:	6d3b      	ldr	r3, [r7, #80]	@ 0x50
 8005ae0:	647b      	str	r3, [r7, #68]	@ 0x44
 8005ae2:	643a      	str	r2, [r7, #64]	@ 0x40
 */
__STATIC_FORCEINLINE uint32_t __STREXW(uint32_t value, volatile uint32_t *addr)
{
   uint32_t result;

   __ASM volatile ("strex %0, %2, %1" : "=&r" (result), "=Q" (*addr) : "r" (value) );
 8005ae4:	6c39      	ldr	r1, [r7, #64]	@ 0x40
 8005ae6:	6c7a      	ldr	r2, [r7, #68]	@ 0x44
 8005ae8:	e841 2300 	strex	r3, r2, [r1]
 8005aec:	63fb      	str	r3, [r7, #60]	@ 0x3c
   return(result);
 8005aee:	6bfb      	ldr	r3, [r7, #60]	@ 0x3c
 8005af0:	2b00      	cmp	r3, #0
 8005af2:	d1e6      	bne.n	8005ac2 <UART_CheckIdleState+0x3e>

      huart->gState = HAL_UART_STATE_READY;
 8005af4:	687b      	ldr	r3, [r7, #4]
 8005af6:	2220      	movs	r2, #32
 8005af8:	67da      	str	r2, [r3, #124]	@ 0x7c

      __HAL_UNLOCK(huart);
 8005afa:	687b      	ldr	r3, [r7, #4]
 8005afc:	2200      	movs	r2, #0
 8005afe:	f883 2078 	strb.w	r2, [r3, #120]	@ 0x78

      /* Timeout occurred */
      return HAL_TIMEOUT;
 8005b02:	2303      	movs	r3, #3
 8005b04:	e062      	b.n	8005bcc <UART_CheckIdleState+0x148>
    }
  }

  /* Check if the Receiver is enabled */
  if ((huart->Instance->CR1 & USART_CR1_RE) == USART_CR1_RE)
 8005b06:	687b      	ldr	r3, [r7, #4]
 8005b08:	681b      	ldr	r3, [r3, #0]
 8005b0a:	681b      	ldr	r3, [r3, #0]
 8005b0c:	f003 0304 	and.w	r3, r3, #4
 8005b10:	2b04      	cmp	r3, #4
 8005b12:	d149      	bne.n	8005ba8 <UART_CheckIdleState+0x124>
  {
    /* Wait until REACK flag is set */
    if (UART_WaitOnFlagUntilTimeout(huart, USART_ISR_REACK, RESET, tickstart, HAL_UART_TIMEOUT_VALUE) != HAL_OK)
 8005b14:	f06f 437e 	mvn.w	r3, #4261412864	@ 0xfe000000
 8005b18:	9300      	str	r3, [sp, #0]
 8005b1a:	6d7b      	ldr	r3, [r7, #84]	@ 0x54
 8005b1c:	2200      	movs	r2, #0
 8005b1e:	f44f 0180 	mov.w	r1, #4194304	@ 0x400000
 8005b22:	6878      	ldr	r0, [r7, #4]
 8005b24:	f000 f856 	bl	8005bd4 <UART_WaitOnFlagUntilTimeout>
 8005b28:	4603      	mov	r3, r0
 8005b2a:	2b00      	cmp	r3, #0
 8005b2c:	d03c      	beq.n	8005ba8 <UART_CheckIdleState+0x124>
    {
      /* Disable RXNE, PE and ERR (Frame error, noise error, overrun error)
      interrupts for the interrupt process */
      ATOMIC_CLEAR_BIT(huart->Instance->CR1, (USART_CR1_RXNEIE | USART_CR1_PEIE));
 8005b2e:	687b      	ldr	r3, [r7, #4]
 8005b30:	681b      	ldr	r3, [r3, #0]
 8005b32:	627b      	str	r3, [r7, #36]	@ 0x24
   __ASM volatile ("ldrex %0, %1" : "=r" (result) : "Q" (*addr) );
 8005b34:	6a7b      	ldr	r3, [r7, #36]	@ 0x24
 8005b36:	e853 3f00 	ldrex	r3, [r3]
 8005b3a:	623b      	str	r3, [r7, #32]
   return(result);
 8005b3c:	6a3b      	ldr	r3, [r7, #32]
 8005b3e:	f423 7390 	bic.w	r3, r3, #288	@ 0x120
 8005b42:	64fb      	str	r3, [r7, #76]	@ 0x4c
 8005b44:	687b      	ldr	r3, [r7, #4]
 8005b46:	681b      	ldr	r3, [r3, #0]
 8005b48:	461a      	mov	r2, r3
 8005b4a:	6cfb      	ldr	r3, [r7, #76]	@ 0x4c
 8005b4c:	633b      	str	r3, [r7, #48]	@ 0x30
 8005b4e:	62fa      	str	r2, [r7, #44]	@ 0x2c
   __ASM volatile ("strex %0, %2, %1" : "=&r" (result), "=Q" (*addr) : "r" (value) );
 8005b50:	6af9      	ldr	r1, [r7, #44]	@ 0x2c
 8005b52:	6b3a      	ldr	r2, [r7, #48]	@ 0x30
 8005b54:	e841 2300 	strex	r3, r2, [r1]
 8005b58:	62bb      	str	r3, [r7, #40]	@ 0x28
   return(result);
 8005b5a:	6abb      	ldr	r3, [r7, #40]	@ 0x28
 8005b5c:	2b00      	cmp	r3, #0
 8005b5e:	d1e6      	bne.n	8005b2e <UART_CheckIdleState+0xaa>
      ATOMIC_CLEAR_BIT(huart->Instance->CR3, USART_CR3_EIE);
 8005b60:	687b      	ldr	r3, [r7, #4]
 8005b62:	681b      	ldr	r3, [r3, #0]
 8005b64:	3308      	adds	r3, #8
 8005b66:	613b      	str	r3, [r7, #16]
   __ASM volatile ("ldrex %0, %1" : "=r" (result) : "Q" (*addr) );
 8005b68:	693b      	ldr	r3, [r7, #16]
 8005b6a:	e853 3f00 	ldrex	r3, [r3]
 8005b6e:	60fb      	str	r3, [r7, #12]
   return(result);
 8005b70:	68fb      	ldr	r3, [r7, #12]
 8005b72:	f023 0301 	bic.w	r3, r3, #1
 8005b76:	64bb      	str	r3, [r7, #72]	@ 0x48
 8005b78:	687b      	ldr	r3, [r7, #4]
 8005b7a:	681b      	ldr	r3, [r3, #0]
 8005b7c:	3308      	adds	r3, #8
 8005b7e:	6cba      	ldr	r2, [r7, #72]	@ 0x48
 8005b80:	61fa      	str	r2, [r7, #28]
 8005b82:	61bb      	str	r3, [r7, #24]
   __ASM volatile ("strex %0, %2, %1" : "=&r" (result), "=Q" (*addr) : "r" (value) );
 8005b84:	69b9      	ldr	r1, [r7, #24]
 8005b86:	69fa      	ldr	r2, [r7, #28]
 8005b88:	e841 2300 	strex	r3, r2, [r1]
 8005b8c:	617b      	str	r3, [r7, #20]
   return(result);
 8005b8e:	697b      	ldr	r3, [r7, #20]
 8005b90:	2b00      	cmp	r3, #0
 8005b92:	d1e5      	bne.n	8005b60 <UART_CheckIdleState+0xdc>

      huart->RxState = HAL_UART_STATE_READY;
 8005b94:	687b      	ldr	r3, [r7, #4]
 8005b96:	2220      	movs	r2, #32
 8005b98:	f8c3 2080 	str.w	r2, [r3, #128]	@ 0x80

      __HAL_UNLOCK(huart);
 8005b9c:	687b      	ldr	r3, [r7, #4]
 8005b9e:	2200      	movs	r2, #0
 8005ba0:	f883 2078 	strb.w	r2, [r3, #120]	@ 0x78

      /* Timeout occurred */
      return HAL_TIMEOUT;
 8005ba4:	2303      	movs	r3, #3
 8005ba6:	e011      	b.n	8005bcc <UART_CheckIdleState+0x148>
    }
  }

  /* Initialize the UART State */
  huart->gState = HAL_UART_STATE_READY;
 8005ba8:	687b      	ldr	r3, [r7, #4]
 8005baa:	2220      	movs	r2, #32
 8005bac:	67da      	str	r2, [r3, #124]	@ 0x7c
  huart->RxState = HAL_UART_STATE_READY;
 8005bae:	687b      	ldr	r3, [r7, #4]
 8005bb0:	2220      	movs	r2, #32
 8005bb2:	f8c3 2080 	str.w	r2, [r3, #128]	@ 0x80
  huart->ReceptionType = HAL_UART_RECEPTION_STANDARD;
 8005bb6:	687b      	ldr	r3, [r7, #4]
 8005bb8:	2200      	movs	r2, #0
 8005bba:	661a      	str	r2, [r3, #96]	@ 0x60
  huart->RxEventType = HAL_UART_RXEVENT_TC;
 8005bbc:	687b      	ldr	r3, [r7, #4]
 8005bbe:	2200      	movs	r2, #0
 8005bc0:	665a      	str	r2, [r3, #100]	@ 0x64

  __HAL_UNLOCK(huart);
 8005bc2:	687b      	ldr	r3, [r7, #4]
 8005bc4:	2200      	movs	r2, #0
 8005bc6:	f883 2078 	strb.w	r2, [r3, #120]	@ 0x78

  return HAL_OK;
 8005bca:	2300      	movs	r3, #0
}
 8005bcc:	4618      	mov	r0, r3
 8005bce:	3758      	adds	r7, #88	@ 0x58
 8005bd0:	46bd      	mov	sp, r7
 8005bd2:	bd80      	pop	{r7, pc}

08005bd4 <UART_WaitOnFlagUntilTimeout>:
  * @param Timeout   Timeout duration
  * @retval HAL status
  */
HAL_StatusTypeDef UART_WaitOnFlagUntilTimeout(UART_HandleTypeDef *huart, uint32_t Flag, FlagStatus Status,
                                              uint32_t Tickstart, uint32_t Timeout)
{
 8005bd4:	b580      	push	{r7, lr}
 8005bd6:	b084      	sub	sp, #16
 8005bd8:	af00      	add	r7, sp, #0
 8005bda:	60f8      	str	r0, [r7, #12]
 8005bdc:	60b9      	str	r1, [r7, #8]
 8005bde:	603b      	str	r3, [r7, #0]
 8005be0:	4613      	mov	r3, r2
 8005be2:	71fb      	strb	r3, [r7, #7]
  /* Wait until flag is set */
  while ((__HAL_UART_GET_FLAG(huart, Flag) ? SET : RESET) == Status)
 8005be4:	e04f      	b.n	8005c86 <UART_WaitOnFlagUntilTimeout+0xb2>
  {
    /* Check for the Timeout */
    if (Timeout != HAL_MAX_DELAY)
 8005be6:	69bb      	ldr	r3, [r7, #24]
 8005be8:	f1b3 3fff 	cmp.w	r3, #4294967295
 8005bec:	d04b      	beq.n	8005c86 <UART_WaitOnFlagUntilTimeout+0xb2>
    {
      if (((HAL_GetTick() - Tickstart) > Timeout) || (Timeout == 0U))
 8005bee:	f7fb fcf9 	bl	80015e4 <HAL_GetTick>
 8005bf2:	4602      	mov	r2, r0
 8005bf4:	683b      	ldr	r3, [r7, #0]
 8005bf6:	1ad3      	subs	r3, r2, r3
 8005bf8:	69ba      	ldr	r2, [r7, #24]
 8005bfa:	429a      	cmp	r2, r3
 8005bfc:	d302      	bcc.n	8005c04 <UART_WaitOnFlagUntilTimeout+0x30>
 8005bfe:	69bb      	ldr	r3, [r7, #24]
 8005c00:	2b00      	cmp	r3, #0
 8005c02:	d101      	bne.n	8005c08 <UART_WaitOnFlagUntilTimeout+0x34>
      {

        return HAL_TIMEOUT;
 8005c04:	2303      	movs	r3, #3
 8005c06:	e04e      	b.n	8005ca6 <UART_WaitOnFlagUntilTimeout+0xd2>
      }

      if ((READ_BIT(huart->Instance->CR1, USART_CR1_RE) != 0U) && (Flag != UART_FLAG_TXE) && (Flag != UART_FLAG_TC))
 8005c08:	68fb      	ldr	r3, [r7, #12]
 8005c0a:	681b      	ldr	r3, [r3, #0]
 8005c0c:	681b      	ldr	r3, [r3, #0]
 8005c0e:	f003 0304 	and.w	r3, r3, #4
 8005c12:	2b00      	cmp	r3, #0
 8005c14:	d037      	beq.n	8005c86 <UART_WaitOnFlagUntilTimeout+0xb2>
 8005c16:	68bb      	ldr	r3, [r7, #8]
 8005c18:	2b80      	cmp	r3, #128	@ 0x80
 8005c1a:	d034      	beq.n	8005c86 <UART_WaitOnFlagUntilTimeout+0xb2>
 8005c1c:	68bb      	ldr	r3, [r7, #8]
 8005c1e:	2b40      	cmp	r3, #64	@ 0x40
 8005c20:	d031      	beq.n	8005c86 <UART_WaitOnFlagUntilTimeout+0xb2>
      {
        if (__HAL_UART_GET_FLAG(huart, UART_FLAG_ORE) == SET)
 8005c22:	68fb      	ldr	r3, [r7, #12]
 8005c24:	681b      	ldr	r3, [r3, #0]
 8005c26:	69db      	ldr	r3, [r3, #28]
 8005c28:	f003 0308 	and.w	r3, r3, #8
 8005c2c:	2b08      	cmp	r3, #8
 8005c2e:	d110      	bne.n	8005c52 <UART_WaitOnFlagUntilTimeout+0x7e>
        {
          /* Clear Overrun Error flag*/
          __HAL_UART_CLEAR_FLAG(huart, UART_CLEAR_OREF);
 8005c30:	68fb      	ldr	r3, [r7, #12]
 8005c32:	681b      	ldr	r3, [r3, #0]
 8005c34:	2208      	movs	r2, #8
 8005c36:	621a      	str	r2, [r3, #32]

          /* Blocking error : transfer is aborted
          Set the UART state ready to be able to start again the process,
          Disable Rx Interrupts if ongoing */
          UART_EndRxTransfer(huart);
 8005c38:	68f8      	ldr	r0, [r7, #12]
 8005c3a:	f000 f838 	bl	8005cae <UART_EndRxTransfer>

          huart->ErrorCode = HAL_UART_ERROR_ORE;
 8005c3e:	68fb      	ldr	r3, [r7, #12]
 8005c40:	2208      	movs	r2, #8
 8005c42:	f8c3 2084 	str.w	r2, [r3, #132]	@ 0x84

          /* Process Unlocked */
          __HAL_UNLOCK(huart);
 8005c46:	68fb      	ldr	r3, [r7, #12]
 8005c48:	2200      	movs	r2, #0
 8005c4a:	f883 2078 	strb.w	r2, [r3, #120]	@ 0x78

          return HAL_ERROR;
 8005c4e:	2301      	movs	r3, #1
 8005c50:	e029      	b.n	8005ca6 <UART_WaitOnFlagUntilTimeout+0xd2>
        }
        if (__HAL_UART_GET_FLAG(huart, UART_FLAG_RTOF) == SET)
 8005c52:	68fb      	ldr	r3, [r7, #12]
 8005c54:	681b      	ldr	r3, [r3, #0]
 8005c56:	69db      	ldr	r3, [r3, #28]
 8005c58:	f403 6300 	and.w	r3, r3, #2048	@ 0x800
 8005c5c:	f5b3 6f00 	cmp.w	r3, #2048	@ 0x800
 8005c60:	d111      	bne.n	8005c86 <UART_WaitOnFlagUntilTimeout+0xb2>
        {
          /* Clear Receiver Timeout flag*/
          __HAL_UART_CLEAR_FLAG(huart, UART_CLEAR_RTOF);
 8005c62:	68fb      	ldr	r3, [r7, #12]
 8005c64:	681b      	ldr	r3, [r3, #0]
 8005c66:	f44f 6200 	mov.w	r2, #2048	@ 0x800
 8005c6a:	621a      	str	r2, [r3, #32]

          /* Blocking error : transfer is aborted
          Set the UART state ready to be able to start again the process,
          Disable Rx Interrupts if ongoing */
          UART_EndRxTransfer(huart);
 8005c6c:	68f8      	ldr	r0, [r7, #12]
 8005c6e:	f000 f81e 	bl	8005cae <UART_EndRxTransfer>

          huart->ErrorCode = HAL_UART_ERROR_RTO;
 8005c72:	68fb      	ldr	r3, [r7, #12]
 8005c74:	2220      	movs	r2, #32
 8005c76:	f8c3 2084 	str.w	r2, [r3, #132]	@ 0x84

          /* Process Unlocked */
          __HAL_UNLOCK(huart);
 8005c7a:	68fb      	ldr	r3, [r7, #12]
 8005c7c:	2200      	movs	r2, #0
 8005c7e:	f883 2078 	strb.w	r2, [r3, #120]	@ 0x78

          return HAL_TIMEOUT;
 8005c82:	2303      	movs	r3, #3
 8005c84:	e00f      	b.n	8005ca6 <UART_WaitOnFlagUntilTimeout+0xd2>
  while ((__HAL_UART_GET_FLAG(huart, Flag) ? SET : RESET) == Status)
 8005c86:	68fb      	ldr	r3, [r7, #12]
 8005c88:	681b      	ldr	r3, [r3, #0]
 8005c8a:	69da      	ldr	r2, [r3, #28]
 8005c8c:	68bb      	ldr	r3, [r7, #8]
 8005c8e:	4013      	ands	r3, r2
 8005c90:	68ba      	ldr	r2, [r7, #8]
 8005c92:	429a      	cmp	r2, r3
 8005c94:	bf0c      	ite	eq
 8005c96:	2301      	moveq	r3, #1
 8005c98:	2300      	movne	r3, #0
 8005c9a:	b2db      	uxtb	r3, r3
 8005c9c:	461a      	mov	r2, r3
 8005c9e:	79fb      	ldrb	r3, [r7, #7]
 8005ca0:	429a      	cmp	r2, r3
 8005ca2:	d0a0      	beq.n	8005be6 <UART_WaitOnFlagUntilTimeout+0x12>
        }
      }
    }
  }
  return HAL_OK;
 8005ca4:	2300      	movs	r3, #0
}
 8005ca6:	4618      	mov	r0, r3
 8005ca8:	3710      	adds	r7, #16
 8005caa:	46bd      	mov	sp, r7
 8005cac:	bd80      	pop	{r7, pc}

08005cae <UART_EndRxTransfer>:
  * @brief  End ongoing Rx transfer on UART peripheral (following error detection or Reception completion).
  * @param  huart UART handle.
  * @retval None
  */
static void UART_EndRxTransfer(UART_HandleTypeDef *huart)
{
 8005cae:	b480      	push	{r7}
 8005cb0:	b095      	sub	sp, #84	@ 0x54
 8005cb2:	af00      	add	r7, sp, #0
 8005cb4:	6078      	str	r0, [r7, #4]
  /* Disable RXNE, PE and ERR (Frame error, noise error, overrun error) interrupts */
  ATOMIC_CLEAR_BIT(huart->Instance->CR1, (USART_CR1_RXNEIE | USART_CR1_PEIE));
 8005cb6:	687b      	ldr	r3, [r7, #4]
 8005cb8:	681b      	ldr	r3, [r3, #0]
 8005cba:	637b      	str	r3, [r7, #52]	@ 0x34
   __ASM volatile ("ldrex %0, %1" : "=r" (result) : "Q" (*addr) );
 8005cbc:	6b7b      	ldr	r3, [r7, #52]	@ 0x34
 8005cbe:	e853 3f00 	ldrex	r3, [r3]
 8005cc2:	633b      	str	r3, [r7, #48]	@ 0x30
   return(result);
 8005cc4:	6b3b      	ldr	r3, [r7, #48]	@ 0x30
 8005cc6:	f423 7390 	bic.w	r3, r3, #288	@ 0x120
 8005cca:	64fb      	str	r3, [r7, #76]	@ 0x4c
 8005ccc:	687b      	ldr	r3, [r7, #4]
 8005cce:	681b      	ldr	r3, [r3, #0]
 8005cd0:	461a      	mov	r2, r3
 8005cd2:	6cfb      	ldr	r3, [r7, #76]	@ 0x4c
 8005cd4:	643b      	str	r3, [r7, #64]	@ 0x40
 8005cd6:	63fa      	str	r2, [r7, #60]	@ 0x3c
   __ASM volatile ("strex %0, %2, %1" : "=&r" (result), "=Q" (*addr) : "r" (value) );
 8005cd8:	6bf9      	ldr	r1, [r7, #60]	@ 0x3c
 8005cda:	6c3a      	ldr	r2, [r7, #64]	@ 0x40
 8005cdc:	e841 2300 	strex	r3, r2, [r1]
 8005ce0:	63bb      	str	r3, [r7, #56]	@ 0x38
   return(result);
 8005ce2:	6bbb      	ldr	r3, [r7, #56]	@ 0x38
 8005ce4:	2b00      	cmp	r3, #0
 8005ce6:	d1e6      	bne.n	8005cb6 <UART_EndRxTransfer+0x8>
  ATOMIC_CLEAR_BIT(huart->Instance->CR3, USART_CR3_EIE);
 8005ce8:	687b      	ldr	r3, [r7, #4]
 8005cea:	681b      	ldr	r3, [r3, #0]
 8005cec:	3308      	adds	r3, #8
 8005cee:	623b      	str	r3, [r7, #32]
   __ASM volatile ("ldrex %0, %1" : "=r" (result) : "Q" (*addr) );
 8005cf0:	6a3b      	ldr	r3, [r7, #32]
 8005cf2:	e853 3f00 	ldrex	r3, [r3]
 8005cf6:	61fb      	str	r3, [r7, #28]
   return(result);
 8005cf8:	69fb      	ldr	r3, [r7, #28]
 8005cfa:	f023 0301 	bic.w	r3, r3, #1
 8005cfe:	64bb      	str	r3, [r7, #72]	@ 0x48
 8005d00:	687b      	ldr	r3, [r7, #4]
 8005d02:	681b      	ldr	r3, [r3, #0]
 8005d04:	3308      	adds	r3, #8
 8005d06:	6cba      	ldr	r2, [r7, #72]	@ 0x48
 8005d08:	62fa      	str	r2, [r7, #44]	@ 0x2c
 8005d0a:	62bb      	str	r3, [r7, #40]	@ 0x28
   __ASM volatile ("strex %0, %2, %1" : "=&r" (result), "=Q" (*addr) : "r" (value) );
 8005d0c:	6ab9      	ldr	r1, [r7, #40]	@ 0x28
 8005d0e:	6afa      	ldr	r2, [r7, #44]	@ 0x2c
 8005d10:	e841 2300 	strex	r3, r2, [r1]
 8005d14:	627b      	str	r3, [r7, #36]	@ 0x24
   return(result);
 8005d16:	6a7b      	ldr	r3, [r7, #36]	@ 0x24
 8005d18:	2b00      	cmp	r3, #0
 8005d1a:	d1e5      	bne.n	8005ce8 <UART_EndRxTransfer+0x3a>

  /* In case of reception waiting for IDLE event, disable also the IDLE IE interrupt source */
  if (huart->ReceptionType == HAL_UART_RECEPTION_TOIDLE)
 8005d1c:	687b      	ldr	r3, [r7, #4]
 8005d1e:	6e1b      	ldr	r3, [r3, #96]	@ 0x60
 8005d20:	2b01      	cmp	r3, #1
 8005d22:	d118      	bne.n	8005d56 <UART_EndRxTransfer+0xa8>
  {
    ATOMIC_CLEAR_BIT(huart->Instance->CR1, USART_CR1_IDLEIE);
 8005d24:	687b      	ldr	r3, [r7, #4]
 8005d26:	681b      	ldr	r3, [r3, #0]
 8005d28:	60fb      	str	r3, [r7, #12]
   __ASM volatile ("ldrex %0, %1" : "=r" (result) : "Q" (*addr) );
 8005d2a:	68fb      	ldr	r3, [r7, #12]
 8005d2c:	e853 3f00 	ldrex	r3, [r3]
 8005d30:	60bb      	str	r3, [r7, #8]
   return(result);
 8005d32:	68bb      	ldr	r3, [r7, #8]
 8005d34:	f023 0310 	bic.w	r3, r3, #16
 8005d38:	647b      	str	r3, [r7, #68]	@ 0x44
 8005d3a:	687b      	ldr	r3, [r7, #4]
 8005d3c:	681b      	ldr	r3, [r3, #0]
 8005d3e:	461a      	mov	r2, r3
 8005d40:	6c7b      	ldr	r3, [r7, #68]	@ 0x44
 8005d42:	61bb      	str	r3, [r7, #24]
 8005d44:	617a      	str	r2, [r7, #20]
   __ASM volatile ("strex %0, %2, %1" : "=&r" (result), "=Q" (*addr) : "r" (value) );
 8005d46:	6979      	ldr	r1, [r7, #20]
 8005d48:	69ba      	ldr	r2, [r7, #24]
 8005d4a:	e841 2300 	strex	r3, r2, [r1]
 8005d4e:	613b      	str	r3, [r7, #16]
   return(result);
 8005d50:	693b      	ldr	r3, [r7, #16]
 8005d52:	2b00      	cmp	r3, #0
 8005d54:	d1e6      	bne.n	8005d24 <UART_EndRxTransfer+0x76>
  }

  /* At end of Rx process, restore huart->RxState to Ready */
  huart->RxState = HAL_UART_STATE_READY;
 8005d56:	687b      	ldr	r3, [r7, #4]
 8005d58:	2220      	movs	r2, #32
 8005d5a:	f8c3 2080 	str.w	r2, [r3, #128]	@ 0x80
  huart->ReceptionType = HAL_UART_RECEPTION_STANDARD;
 8005d5e:	687b      	ldr	r3, [r7, #4]
 8005d60:	2200      	movs	r2, #0
 8005d62:	661a      	str	r2, [r3, #96]	@ 0x60

  /* Reset RxIsr function pointer */
  huart->RxISR = NULL;
 8005d64:	687b      	ldr	r3, [r7, #4]
 8005d66:	2200      	movs	r2, #0
 8005d68:	669a      	str	r2, [r3, #104]	@ 0x68
}
 8005d6a:	bf00      	nop
 8005d6c:	3754      	adds	r7, #84	@ 0x54
 8005d6e:	46bd      	mov	sp, r7
 8005d70:	f85d 7b04 	ldr.w	r7, [sp], #4
 8005d74:	4770      	bx	lr

08005d76 <__cvt>:
 8005d76:	e92d 47ff 	stmdb	sp!, {r0, r1, r2, r3, r4, r5, r6, r7, r8, r9, sl, lr}
 8005d7a:	ec57 6b10 	vmov	r6, r7, d0
 8005d7e:	2f00      	cmp	r7, #0
 8005d80:	460c      	mov	r4, r1
 8005d82:	4619      	mov	r1, r3
 8005d84:	463b      	mov	r3, r7
 8005d86:	bfbb      	ittet	lt
 8005d88:	f107 4300 	addlt.w	r3, r7, #2147483648	@ 0x80000000
 8005d8c:	461f      	movlt	r7, r3
 8005d8e:	2300      	movge	r3, #0
 8005d90:	232d      	movlt	r3, #45	@ 0x2d
 8005d92:	700b      	strb	r3, [r1, #0]
 8005d94:	9b0d      	ldr	r3, [sp, #52]	@ 0x34
 8005d96:	f8dd a030 	ldr.w	sl, [sp, #48]	@ 0x30
 8005d9a:	4691      	mov	r9, r2
 8005d9c:	f023 0820 	bic.w	r8, r3, #32
 8005da0:	bfbc      	itt	lt
 8005da2:	4632      	movlt	r2, r6
 8005da4:	4616      	movlt	r6, r2
 8005da6:	f1b8 0f46 	cmp.w	r8, #70	@ 0x46
 8005daa:	d005      	beq.n	8005db8 <__cvt+0x42>
 8005dac:	f1b8 0f45 	cmp.w	r8, #69	@ 0x45
 8005db0:	d100      	bne.n	8005db4 <__cvt+0x3e>
 8005db2:	3401      	adds	r4, #1
 8005db4:	2102      	movs	r1, #2
 8005db6:	e000      	b.n	8005dba <__cvt+0x44>
 8005db8:	2103      	movs	r1, #3
 8005dba:	ab03      	add	r3, sp, #12
 8005dbc:	9301      	str	r3, [sp, #4]
 8005dbe:	ab02      	add	r3, sp, #8
 8005dc0:	9300      	str	r3, [sp, #0]
 8005dc2:	ec47 6b10 	vmov	d0, r6, r7
 8005dc6:	4653      	mov	r3, sl
 8005dc8:	4622      	mov	r2, r4
 8005dca:	f000 fe75 	bl	8006ab8 <_dtoa_r>
 8005dce:	f1b8 0f47 	cmp.w	r8, #71	@ 0x47
 8005dd2:	4605      	mov	r5, r0
 8005dd4:	d119      	bne.n	8005e0a <__cvt+0x94>
 8005dd6:	f019 0f01 	tst.w	r9, #1
 8005dda:	d00e      	beq.n	8005dfa <__cvt+0x84>
 8005ddc:	eb00 0904 	add.w	r9, r0, r4
 8005de0:	2200      	movs	r2, #0
 8005de2:	2300      	movs	r3, #0
 8005de4:	4630      	mov	r0, r6
 8005de6:	4639      	mov	r1, r7
 8005de8:	f7fa fe6e 	bl	8000ac8 <__aeabi_dcmpeq>
 8005dec:	b108      	cbz	r0, 8005df2 <__cvt+0x7c>
 8005dee:	f8cd 900c 	str.w	r9, [sp, #12]
 8005df2:	2230      	movs	r2, #48	@ 0x30
 8005df4:	9b03      	ldr	r3, [sp, #12]
 8005df6:	454b      	cmp	r3, r9
 8005df8:	d31e      	bcc.n	8005e38 <__cvt+0xc2>
 8005dfa:	9b03      	ldr	r3, [sp, #12]
 8005dfc:	9a0e      	ldr	r2, [sp, #56]	@ 0x38
 8005dfe:	1b5b      	subs	r3, r3, r5
 8005e00:	4628      	mov	r0, r5
 8005e02:	6013      	str	r3, [r2, #0]
 8005e04:	b004      	add	sp, #16
 8005e06:	e8bd 87f0 	ldmia.w	sp!, {r4, r5, r6, r7, r8, r9, sl, pc}
 8005e0a:	f1b8 0f46 	cmp.w	r8, #70	@ 0x46
 8005e0e:	eb00 0904 	add.w	r9, r0, r4
 8005e12:	d1e5      	bne.n	8005de0 <__cvt+0x6a>
 8005e14:	7803      	ldrb	r3, [r0, #0]
 8005e16:	2b30      	cmp	r3, #48	@ 0x30
 8005e18:	d10a      	bne.n	8005e30 <__cvt+0xba>
 8005e1a:	2200      	movs	r2, #0
 8005e1c:	2300      	movs	r3, #0
 8005e1e:	4630      	mov	r0, r6
 8005e20:	4639      	mov	r1, r7
 8005e22:	f7fa fe51 	bl	8000ac8 <__aeabi_dcmpeq>
 8005e26:	b918      	cbnz	r0, 8005e30 <__cvt+0xba>
 8005e28:	f1c4 0401 	rsb	r4, r4, #1
 8005e2c:	f8ca 4000 	str.w	r4, [sl]
 8005e30:	f8da 3000 	ldr.w	r3, [sl]
 8005e34:	4499      	add	r9, r3
 8005e36:	e7d3      	b.n	8005de0 <__cvt+0x6a>
 8005e38:	1c59      	adds	r1, r3, #1
 8005e3a:	9103      	str	r1, [sp, #12]
 8005e3c:	701a      	strb	r2, [r3, #0]
 8005e3e:	e7d9      	b.n	8005df4 <__cvt+0x7e>

08005e40 <__exponent>:
 8005e40:	b5f7      	push	{r0, r1, r2, r4, r5, r6, r7, lr}
 8005e42:	2900      	cmp	r1, #0
 8005e44:	bfba      	itte	lt
 8005e46:	4249      	neglt	r1, r1
 8005e48:	232d      	movlt	r3, #45	@ 0x2d
 8005e4a:	232b      	movge	r3, #43	@ 0x2b
 8005e4c:	2909      	cmp	r1, #9
 8005e4e:	7002      	strb	r2, [r0, #0]
 8005e50:	7043      	strb	r3, [r0, #1]
 8005e52:	dd29      	ble.n	8005ea8 <__exponent+0x68>
 8005e54:	f10d 0407 	add.w	r4, sp, #7
 8005e58:	4625      	mov	r5, r4
 8005e5a:	270a      	movs	r7, #10
 8005e5c:	4622      	mov	r2, r4
 8005e5e:	fbb1 f6f7 	udiv	r6, r1, r7
 8005e62:	fb07 1316 	mls	r3, r7, r6, r1
 8005e66:	3330      	adds	r3, #48	@ 0x30
 8005e68:	f802 3c01 	strb.w	r3, [r2, #-1]
 8005e6c:	460b      	mov	r3, r1
 8005e6e:	2b63      	cmp	r3, #99	@ 0x63
 8005e70:	f104 34ff 	add.w	r4, r4, #4294967295
 8005e74:	4631      	mov	r1, r6
 8005e76:	dcf1      	bgt.n	8005e5c <__exponent+0x1c>
 8005e78:	3130      	adds	r1, #48	@ 0x30
 8005e7a:	1e93      	subs	r3, r2, #2
 8005e7c:	f804 1c01 	strb.w	r1, [r4, #-1]
 8005e80:	1c41      	adds	r1, r0, #1
 8005e82:	461c      	mov	r4, r3
 8005e84:	42ab      	cmp	r3, r5
 8005e86:	d30a      	bcc.n	8005e9e <__exponent+0x5e>
 8005e88:	f10d 0309 	add.w	r3, sp, #9
 8005e8c:	1a9b      	subs	r3, r3, r2
 8005e8e:	42a5      	cmp	r5, r4
 8005e90:	bf38      	it	cc
 8005e92:	2300      	movcc	r3, #0
 8005e94:	1c82      	adds	r2, r0, #2
 8005e96:	4413      	add	r3, r2
 8005e98:	1a18      	subs	r0, r3, r0
 8005e9a:	b003      	add	sp, #12
 8005e9c:	bdf0      	pop	{r4, r5, r6, r7, pc}
 8005e9e:	f813 6b01 	ldrb.w	r6, [r3], #1
 8005ea2:	f801 6f01 	strb.w	r6, [r1, #1]!
 8005ea6:	e7ed      	b.n	8005e84 <__exponent+0x44>
 8005ea8:	2330      	movs	r3, #48	@ 0x30
 8005eaa:	3130      	adds	r1, #48	@ 0x30
 8005eac:	7083      	strb	r3, [r0, #2]
 8005eae:	70c1      	strb	r1, [r0, #3]
 8005eb0:	1d03      	adds	r3, r0, #4
 8005eb2:	e7f1      	b.n	8005e98 <__exponent+0x58>

08005eb4 <_printf_float>:
 8005eb4:	e92d 4ff0 	stmdb	sp!, {r4, r5, r6, r7, r8, r9, sl, fp, lr}
 8005eb8:	b08d      	sub	sp, #52	@ 0x34
 8005eba:	460c      	mov	r4, r1
 8005ebc:	f8dd 8058 	ldr.w	r8, [sp, #88]	@ 0x58
 8005ec0:	4616      	mov	r6, r2
 8005ec2:	461f      	mov	r7, r3
 8005ec4:	4605      	mov	r5, r0
 8005ec6:	f000 fcf7 	bl	80068b8 <_localeconv_r>
 8005eca:	6803      	ldr	r3, [r0, #0]
 8005ecc:	9306      	str	r3, [sp, #24]
 8005ece:	4618      	mov	r0, r3
 8005ed0:	f7fa f9ce 	bl	8000270 <strlen>
 8005ed4:	2300      	movs	r3, #0
 8005ed6:	930a      	str	r3, [sp, #40]	@ 0x28
 8005ed8:	f8d8 3000 	ldr.w	r3, [r8]
 8005edc:	f894 a018 	ldrb.w	sl, [r4, #24]
 8005ee0:	f8d4 b000 	ldr.w	fp, [r4]
 8005ee4:	9007      	str	r0, [sp, #28]
 8005ee6:	3307      	adds	r3, #7
 8005ee8:	f023 0307 	bic.w	r3, r3, #7
 8005eec:	ecb3 7b02 	vldmia	r3!, {d7}
 8005ef0:	ed8d 7b04 	vstr	d7, [sp, #16]
 8005ef4:	f8c8 3000 	str.w	r3, [r8]
 8005ef8:	e9dd 8304 	ldrd	r8, r3, [sp, #16]
 8005efc:	f023 4900 	bic.w	r9, r3, #2147483648	@ 0x80000000
 8005f00:	ed84 7b12 	vstr	d7, [r4, #72]	@ 0x48
 8005f04:	4b9c      	ldr	r3, [pc, #624]	@ (8006178 <_printf_float+0x2c4>)
 8005f06:	f04f 32ff 	mov.w	r2, #4294967295
 8005f0a:	4640      	mov	r0, r8
 8005f0c:	4649      	mov	r1, r9
 8005f0e:	f7fa fe0d 	bl	8000b2c <__aeabi_dcmpun>
 8005f12:	bb70      	cbnz	r0, 8005f72 <_printf_float+0xbe>
 8005f14:	4b98      	ldr	r3, [pc, #608]	@ (8006178 <_printf_float+0x2c4>)
 8005f16:	f04f 32ff 	mov.w	r2, #4294967295
 8005f1a:	4640      	mov	r0, r8
 8005f1c:	4649      	mov	r1, r9
 8005f1e:	f7fa fde7 	bl	8000af0 <__aeabi_dcmple>
 8005f22:	bb30      	cbnz	r0, 8005f72 <_printf_float+0xbe>
 8005f24:	e9dd 0104 	ldrd	r0, r1, [sp, #16]
 8005f28:	2200      	movs	r2, #0
 8005f2a:	2300      	movs	r3, #0
 8005f2c:	f7fa fdd6 	bl	8000adc <__aeabi_dcmplt>
 8005f30:	b110      	cbz	r0, 8005f38 <_printf_float+0x84>
 8005f32:	232d      	movs	r3, #45	@ 0x2d
 8005f34:	f884 3043 	strb.w	r3, [r4, #67]	@ 0x43
 8005f38:	4a90      	ldr	r2, [pc, #576]	@ (800617c <_printf_float+0x2c8>)
 8005f3a:	4b91      	ldr	r3, [pc, #580]	@ (8006180 <_printf_float+0x2cc>)
 8005f3c:	f1ba 0f47 	cmp.w	sl, #71	@ 0x47
 8005f40:	bf8c      	ite	hi
 8005f42:	4690      	movhi	r8, r2
 8005f44:	4698      	movls	r8, r3
 8005f46:	2303      	movs	r3, #3
 8005f48:	6123      	str	r3, [r4, #16]
 8005f4a:	f02b 0304 	bic.w	r3, fp, #4
 8005f4e:	6023      	str	r3, [r4, #0]
 8005f50:	f04f 0900 	mov.w	r9, #0
 8005f54:	9700      	str	r7, [sp, #0]
 8005f56:	4633      	mov	r3, r6
 8005f58:	aa0b      	add	r2, sp, #44	@ 0x2c
 8005f5a:	4621      	mov	r1, r4
 8005f5c:	4628      	mov	r0, r5
 8005f5e:	f000 f9d1 	bl	8006304 <_printf_common>
 8005f62:	3001      	adds	r0, #1
 8005f64:	f040 808c 	bne.w	8006080 <_printf_float+0x1cc>
 8005f68:	f04f 30ff 	mov.w	r0, #4294967295
 8005f6c:	b00d      	add	sp, #52	@ 0x34
 8005f6e:	e8bd 8ff0 	ldmia.w	sp!, {r4, r5, r6, r7, r8, r9, sl, fp, pc}
 8005f72:	e9dd 2304 	ldrd	r2, r3, [sp, #16]
 8005f76:	4610      	mov	r0, r2
 8005f78:	4619      	mov	r1, r3
 8005f7a:	f7fa fdd7 	bl	8000b2c <__aeabi_dcmpun>
 8005f7e:	b140      	cbz	r0, 8005f92 <_printf_float+0xde>
 8005f80:	9b05      	ldr	r3, [sp, #20]
 8005f82:	4a80      	ldr	r2, [pc, #512]	@ (8006184 <_printf_float+0x2d0>)
 8005f84:	2b00      	cmp	r3, #0
 8005f86:	bfbc      	itt	lt
 8005f88:	232d      	movlt	r3, #45	@ 0x2d
 8005f8a:	f884 3043 	strblt.w	r3, [r4, #67]	@ 0x43
 8005f8e:	4b7e      	ldr	r3, [pc, #504]	@ (8006188 <_printf_float+0x2d4>)
 8005f90:	e7d4      	b.n	8005f3c <_printf_float+0x88>
 8005f92:	6863      	ldr	r3, [r4, #4]
 8005f94:	1c5a      	adds	r2, r3, #1
 8005f96:	f00a 09df 	and.w	r9, sl, #223	@ 0xdf
 8005f9a:	d13b      	bne.n	8006014 <_printf_float+0x160>
 8005f9c:	2306      	movs	r3, #6
 8005f9e:	6063      	str	r3, [r4, #4]
 8005fa0:	f44b 6280 	orr.w	r2, fp, #1024	@ 0x400
 8005fa4:	2300      	movs	r3, #0
 8005fa6:	6022      	str	r2, [r4, #0]
 8005fa8:	9303      	str	r3, [sp, #12]
 8005faa:	ab0a      	add	r3, sp, #40	@ 0x28
 8005fac:	e9cd a301 	strd	sl, r3, [sp, #4]
 8005fb0:	ab09      	add	r3, sp, #36	@ 0x24
 8005fb2:	9300      	str	r3, [sp, #0]
 8005fb4:	6861      	ldr	r1, [r4, #4]
 8005fb6:	ed9d 0b04 	vldr	d0, [sp, #16]
 8005fba:	f10d 0323 	add.w	r3, sp, #35	@ 0x23
 8005fbe:	4628      	mov	r0, r5
 8005fc0:	f7ff fed9 	bl	8005d76 <__cvt>
 8005fc4:	f1b9 0f47 	cmp.w	r9, #71	@ 0x47
 8005fc8:	9909      	ldr	r1, [sp, #36]	@ 0x24
 8005fca:	4680      	mov	r8, r0
 8005fcc:	d129      	bne.n	8006022 <_printf_float+0x16e>
 8005fce:	1cc8      	adds	r0, r1, #3
 8005fd0:	db02      	blt.n	8005fd8 <_printf_float+0x124>
 8005fd2:	6863      	ldr	r3, [r4, #4]
 8005fd4:	428b      	cmp	r3, r1
 8005fd6:	da41      	bge.n	800605c <_printf_float+0x1a8>
 8005fd8:	f1aa 0a02 	sub.w	sl, sl, #2
 8005fdc:	fa5f fa8a 	uxtb.w	sl, sl
 8005fe0:	3901      	subs	r1, #1
 8005fe2:	4652      	mov	r2, sl
 8005fe4:	f104 0050 	add.w	r0, r4, #80	@ 0x50
 8005fe8:	9109      	str	r1, [sp, #36]	@ 0x24
 8005fea:	f7ff ff29 	bl	8005e40 <__exponent>
 8005fee:	9a0a      	ldr	r2, [sp, #40]	@ 0x28
 8005ff0:	1813      	adds	r3, r2, r0
 8005ff2:	2a01      	cmp	r2, #1
 8005ff4:	4681      	mov	r9, r0
 8005ff6:	6123      	str	r3, [r4, #16]
 8005ff8:	dc02      	bgt.n	8006000 <_printf_float+0x14c>
 8005ffa:	6822      	ldr	r2, [r4, #0]
 8005ffc:	07d2      	lsls	r2, r2, #31
 8005ffe:	d501      	bpl.n	8006004 <_printf_float+0x150>
 8006000:	3301      	adds	r3, #1
 8006002:	6123      	str	r3, [r4, #16]
 8006004:	f89d 3023 	ldrb.w	r3, [sp, #35]	@ 0x23
 8006008:	2b00      	cmp	r3, #0
 800600a:	d0a3      	beq.n	8005f54 <_printf_float+0xa0>
 800600c:	232d      	movs	r3, #45	@ 0x2d
 800600e:	f884 3043 	strb.w	r3, [r4, #67]	@ 0x43
 8006012:	e79f      	b.n	8005f54 <_printf_float+0xa0>
 8006014:	f1b9 0f47 	cmp.w	r9, #71	@ 0x47
 8006018:	d1c2      	bne.n	8005fa0 <_printf_float+0xec>
 800601a:	2b00      	cmp	r3, #0
 800601c:	d1c0      	bne.n	8005fa0 <_printf_float+0xec>
 800601e:	2301      	movs	r3, #1
 8006020:	e7bd      	b.n	8005f9e <_printf_float+0xea>
 8006022:	f1ba 0f65 	cmp.w	sl, #101	@ 0x65
 8006026:	d9db      	bls.n	8005fe0 <_printf_float+0x12c>
 8006028:	f1ba 0f66 	cmp.w	sl, #102	@ 0x66
 800602c:	d118      	bne.n	8006060 <_printf_float+0x1ac>
 800602e:	2900      	cmp	r1, #0
 8006030:	6863      	ldr	r3, [r4, #4]
 8006032:	dd0b      	ble.n	800604c <_printf_float+0x198>
 8006034:	6121      	str	r1, [r4, #16]
 8006036:	b913      	cbnz	r3, 800603e <_printf_float+0x18a>
 8006038:	6822      	ldr	r2, [r4, #0]
 800603a:	07d0      	lsls	r0, r2, #31
 800603c:	d502      	bpl.n	8006044 <_printf_float+0x190>
 800603e:	3301      	adds	r3, #1
 8006040:	440b      	add	r3, r1
 8006042:	6123      	str	r3, [r4, #16]
 8006044:	65a1      	str	r1, [r4, #88]	@ 0x58
 8006046:	f04f 0900 	mov.w	r9, #0
 800604a:	e7db      	b.n	8006004 <_printf_float+0x150>
 800604c:	b913      	cbnz	r3, 8006054 <_printf_float+0x1a0>
 800604e:	6822      	ldr	r2, [r4, #0]
 8006050:	07d2      	lsls	r2, r2, #31
 8006052:	d501      	bpl.n	8006058 <_printf_float+0x1a4>
 8006054:	3302      	adds	r3, #2
 8006056:	e7f4      	b.n	8006042 <_printf_float+0x18e>
 8006058:	2301      	movs	r3, #1
 800605a:	e7f2      	b.n	8006042 <_printf_float+0x18e>
 800605c:	f04f 0a67 	mov.w	sl, #103	@ 0x67
 8006060:	9b0a      	ldr	r3, [sp, #40]	@ 0x28
 8006062:	428b      	cmp	r3, r1
 8006064:	dc05      	bgt.n	8006072 <_printf_float+0x1be>
 8006066:	6823      	ldr	r3, [r4, #0]
 8006068:	6121      	str	r1, [r4, #16]
 800606a:	07d8      	lsls	r0, r3, #31
 800606c:	d5ea      	bpl.n	8006044 <_printf_float+0x190>
 800606e:	1c4b      	adds	r3, r1, #1
 8006070:	e7e7      	b.n	8006042 <_printf_float+0x18e>
 8006072:	2900      	cmp	r1, #0
 8006074:	bfd4      	ite	le
 8006076:	f1c1 0202 	rsble	r2, r1, #2
 800607a:	2201      	movgt	r2, #1
 800607c:	4413      	add	r3, r2
 800607e:	e7e0      	b.n	8006042 <_printf_float+0x18e>
 8006080:	6823      	ldr	r3, [r4, #0]
 8006082:	055a      	lsls	r2, r3, #21
 8006084:	d407      	bmi.n	8006096 <_printf_float+0x1e2>
 8006086:	6923      	ldr	r3, [r4, #16]
 8006088:	4642      	mov	r2, r8
 800608a:	4631      	mov	r1, r6
 800608c:	4628      	mov	r0, r5
 800608e:	47b8      	blx	r7
 8006090:	3001      	adds	r0, #1
 8006092:	d12b      	bne.n	80060ec <_printf_float+0x238>
 8006094:	e768      	b.n	8005f68 <_printf_float+0xb4>
 8006096:	f1ba 0f65 	cmp.w	sl, #101	@ 0x65
 800609a:	f240 80dd 	bls.w	8006258 <_printf_float+0x3a4>
 800609e:	e9d4 0112 	ldrd	r0, r1, [r4, #72]	@ 0x48
 80060a2:	2200      	movs	r2, #0
 80060a4:	2300      	movs	r3, #0
 80060a6:	f7fa fd0f 	bl	8000ac8 <__aeabi_dcmpeq>
 80060aa:	2800      	cmp	r0, #0
 80060ac:	d033      	beq.n	8006116 <_printf_float+0x262>
 80060ae:	4a37      	ldr	r2, [pc, #220]	@ (800618c <_printf_float+0x2d8>)
 80060b0:	2301      	movs	r3, #1
 80060b2:	4631      	mov	r1, r6
 80060b4:	4628      	mov	r0, r5
 80060b6:	47b8      	blx	r7
 80060b8:	3001      	adds	r0, #1
 80060ba:	f43f af55 	beq.w	8005f68 <_printf_float+0xb4>
 80060be:	e9dd 3809 	ldrd	r3, r8, [sp, #36]	@ 0x24
 80060c2:	4543      	cmp	r3, r8
 80060c4:	db02      	blt.n	80060cc <_printf_float+0x218>
 80060c6:	6823      	ldr	r3, [r4, #0]
 80060c8:	07d8      	lsls	r0, r3, #31
 80060ca:	d50f      	bpl.n	80060ec <_printf_float+0x238>
 80060cc:	e9dd 2306 	ldrd	r2, r3, [sp, #24]
 80060d0:	4631      	mov	r1, r6
 80060d2:	4628      	mov	r0, r5
 80060d4:	47b8      	blx	r7
 80060d6:	3001      	adds	r0, #1
 80060d8:	f43f af46 	beq.w	8005f68 <_printf_float+0xb4>
 80060dc:	f04f 0900 	mov.w	r9, #0
 80060e0:	f108 38ff 	add.w	r8, r8, #4294967295
 80060e4:	f104 0a1a 	add.w	sl, r4, #26
 80060e8:	45c8      	cmp	r8, r9
 80060ea:	dc09      	bgt.n	8006100 <_printf_float+0x24c>
 80060ec:	6823      	ldr	r3, [r4, #0]
 80060ee:	079b      	lsls	r3, r3, #30
 80060f0:	f100 8103 	bmi.w	80062fa <_printf_float+0x446>
 80060f4:	68e0      	ldr	r0, [r4, #12]
 80060f6:	9b0b      	ldr	r3, [sp, #44]	@ 0x2c
 80060f8:	4298      	cmp	r0, r3
 80060fa:	bfb8      	it	lt
 80060fc:	4618      	movlt	r0, r3
 80060fe:	e735      	b.n	8005f6c <_printf_float+0xb8>
 8006100:	2301      	movs	r3, #1
 8006102:	4652      	mov	r2, sl
 8006104:	4631      	mov	r1, r6
 8006106:	4628      	mov	r0, r5
 8006108:	47b8      	blx	r7
 800610a:	3001      	adds	r0, #1
 800610c:	f43f af2c 	beq.w	8005f68 <_printf_float+0xb4>
 8006110:	f109 0901 	add.w	r9, r9, #1
 8006114:	e7e8      	b.n	80060e8 <_printf_float+0x234>
 8006116:	9b09      	ldr	r3, [sp, #36]	@ 0x24
 8006118:	2b00      	cmp	r3, #0
 800611a:	dc39      	bgt.n	8006190 <_printf_float+0x2dc>
 800611c:	4a1b      	ldr	r2, [pc, #108]	@ (800618c <_printf_float+0x2d8>)
 800611e:	2301      	movs	r3, #1
 8006120:	4631      	mov	r1, r6
 8006122:	4628      	mov	r0, r5
 8006124:	47b8      	blx	r7
 8006126:	3001      	adds	r0, #1
 8006128:	f43f af1e 	beq.w	8005f68 <_printf_float+0xb4>
 800612c:	e9dd 3909 	ldrd	r3, r9, [sp, #36]	@ 0x24
 8006130:	ea59 0303 	orrs.w	r3, r9, r3
 8006134:	d102      	bne.n	800613c <_printf_float+0x288>
 8006136:	6823      	ldr	r3, [r4, #0]
 8006138:	07d9      	lsls	r1, r3, #31
 800613a:	d5d7      	bpl.n	80060ec <_printf_float+0x238>
 800613c:	e9dd 2306 	ldrd	r2, r3, [sp, #24]
 8006140:	4631      	mov	r1, r6
 8006142:	4628      	mov	r0, r5
 8006144:	47b8      	blx	r7
 8006146:	3001      	adds	r0, #1
 8006148:	f43f af0e 	beq.w	8005f68 <_printf_float+0xb4>
 800614c:	f04f 0a00 	mov.w	sl, #0
 8006150:	f104 0b1a 	add.w	fp, r4, #26
 8006154:	9b09      	ldr	r3, [sp, #36]	@ 0x24
 8006156:	425b      	negs	r3, r3
 8006158:	4553      	cmp	r3, sl
 800615a:	dc01      	bgt.n	8006160 <_printf_float+0x2ac>
 800615c:	464b      	mov	r3, r9
 800615e:	e793      	b.n	8006088 <_printf_float+0x1d4>
 8006160:	2301      	movs	r3, #1
 8006162:	465a      	mov	r2, fp
 8006164:	4631      	mov	r1, r6
 8006166:	4628      	mov	r0, r5
 8006168:	47b8      	blx	r7
 800616a:	3001      	adds	r0, #1
 800616c:	f43f aefc 	beq.w	8005f68 <_printf_float+0xb4>
 8006170:	f10a 0a01 	add.w	sl, sl, #1
 8006174:	e7ee      	b.n	8006154 <_printf_float+0x2a0>
 8006176:	bf00      	nop
 8006178:	7fefffff 	.word	0x7fefffff
 800617c:	08008afc 	.word	0x08008afc
 8006180:	08008af8 	.word	0x08008af8
 8006184:	08008b04 	.word	0x08008b04
 8006188:	08008b00 	.word	0x08008b00
 800618c:	08008b08 	.word	0x08008b08
 8006190:	6da3      	ldr	r3, [r4, #88]	@ 0x58
 8006192:	f8dd a028 	ldr.w	sl, [sp, #40]	@ 0x28
 8006196:	4553      	cmp	r3, sl
 8006198:	bfa8      	it	ge
 800619a:	4653      	movge	r3, sl
 800619c:	2b00      	cmp	r3, #0
 800619e:	4699      	mov	r9, r3
 80061a0:	dc36      	bgt.n	8006210 <_printf_float+0x35c>
 80061a2:	f04f 0b00 	mov.w	fp, #0
 80061a6:	ea29 79e9 	bic.w	r9, r9, r9, asr #31
 80061aa:	f104 021a 	add.w	r2, r4, #26
 80061ae:	6da3      	ldr	r3, [r4, #88]	@ 0x58
 80061b0:	9304      	str	r3, [sp, #16]
 80061b2:	eba3 0309 	sub.w	r3, r3, r9
 80061b6:	455b      	cmp	r3, fp
 80061b8:	dc31      	bgt.n	800621e <_printf_float+0x36a>
 80061ba:	9b09      	ldr	r3, [sp, #36]	@ 0x24
 80061bc:	459a      	cmp	sl, r3
 80061be:	dc3a      	bgt.n	8006236 <_printf_float+0x382>
 80061c0:	6823      	ldr	r3, [r4, #0]
 80061c2:	07da      	lsls	r2, r3, #31
 80061c4:	d437      	bmi.n	8006236 <_printf_float+0x382>
 80061c6:	9b09      	ldr	r3, [sp, #36]	@ 0x24
 80061c8:	ebaa 0903 	sub.w	r9, sl, r3
 80061cc:	9b04      	ldr	r3, [sp, #16]
 80061ce:	ebaa 0303 	sub.w	r3, sl, r3
 80061d2:	4599      	cmp	r9, r3
 80061d4:	bfa8      	it	ge
 80061d6:	4699      	movge	r9, r3
 80061d8:	f1b9 0f00 	cmp.w	r9, #0
 80061dc:	dc33      	bgt.n	8006246 <_printf_float+0x392>
 80061de:	f04f 0800 	mov.w	r8, #0
 80061e2:	ea29 79e9 	bic.w	r9, r9, r9, asr #31
 80061e6:	f104 0b1a 	add.w	fp, r4, #26
 80061ea:	9b09      	ldr	r3, [sp, #36]	@ 0x24
 80061ec:	ebaa 0303 	sub.w	r3, sl, r3
 80061f0:	eba3 0309 	sub.w	r3, r3, r9
 80061f4:	4543      	cmp	r3, r8
 80061f6:	f77f af79 	ble.w	80060ec <_printf_float+0x238>
 80061fa:	2301      	movs	r3, #1
 80061fc:	465a      	mov	r2, fp
 80061fe:	4631      	mov	r1, r6
 8006200:	4628      	mov	r0, r5
 8006202:	47b8      	blx	r7
 8006204:	3001      	adds	r0, #1
 8006206:	f43f aeaf 	beq.w	8005f68 <_printf_float+0xb4>
 800620a:	f108 0801 	add.w	r8, r8, #1
 800620e:	e7ec      	b.n	80061ea <_printf_float+0x336>
 8006210:	4642      	mov	r2, r8
 8006212:	4631      	mov	r1, r6
 8006214:	4628      	mov	r0, r5
 8006216:	47b8      	blx	r7
 8006218:	3001      	adds	r0, #1
 800621a:	d1c2      	bne.n	80061a2 <_printf_float+0x2ee>
 800621c:	e6a4      	b.n	8005f68 <_printf_float+0xb4>
 800621e:	2301      	movs	r3, #1
 8006220:	4631      	mov	r1, r6
 8006222:	4628      	mov	r0, r5
 8006224:	9204      	str	r2, [sp, #16]
 8006226:	47b8      	blx	r7
 8006228:	3001      	adds	r0, #1
 800622a:	f43f ae9d 	beq.w	8005f68 <_printf_float+0xb4>
 800622e:	9a04      	ldr	r2, [sp, #16]
 8006230:	f10b 0b01 	add.w	fp, fp, #1
 8006234:	e7bb      	b.n	80061ae <_printf_float+0x2fa>
 8006236:	e9dd 2306 	ldrd	r2, r3, [sp, #24]
 800623a:	4631      	mov	r1, r6
 800623c:	4628      	mov	r0, r5
 800623e:	47b8      	blx	r7
 8006240:	3001      	adds	r0, #1
 8006242:	d1c0      	bne.n	80061c6 <_printf_float+0x312>
 8006244:	e690      	b.n	8005f68 <_printf_float+0xb4>
 8006246:	9a04      	ldr	r2, [sp, #16]
 8006248:	464b      	mov	r3, r9
 800624a:	4442      	add	r2, r8
 800624c:	4631      	mov	r1, r6
 800624e:	4628      	mov	r0, r5
 8006250:	47b8      	blx	r7
 8006252:	3001      	adds	r0, #1
 8006254:	d1c3      	bne.n	80061de <_printf_float+0x32a>
 8006256:	e687      	b.n	8005f68 <_printf_float+0xb4>
 8006258:	f8dd a028 	ldr.w	sl, [sp, #40]	@ 0x28
 800625c:	f1ba 0f01 	cmp.w	sl, #1
 8006260:	dc01      	bgt.n	8006266 <_printf_float+0x3b2>
 8006262:	07db      	lsls	r3, r3, #31
 8006264:	d536      	bpl.n	80062d4 <_printf_float+0x420>
 8006266:	2301      	movs	r3, #1
 8006268:	4642      	mov	r2, r8
 800626a:	4631      	mov	r1, r6
 800626c:	4628      	mov	r0, r5
 800626e:	47b8      	blx	r7
 8006270:	3001      	adds	r0, #1
 8006272:	f43f ae79 	beq.w	8005f68 <_printf_float+0xb4>
 8006276:	e9dd 2306 	ldrd	r2, r3, [sp, #24]
 800627a:	4631      	mov	r1, r6
 800627c:	4628      	mov	r0, r5
 800627e:	47b8      	blx	r7
 8006280:	3001      	adds	r0, #1
 8006282:	f43f ae71 	beq.w	8005f68 <_printf_float+0xb4>
 8006286:	e9d4 0112 	ldrd	r0, r1, [r4, #72]	@ 0x48
 800628a:	2200      	movs	r2, #0
 800628c:	2300      	movs	r3, #0
 800628e:	f10a 3aff 	add.w	sl, sl, #4294967295
 8006292:	f7fa fc19 	bl	8000ac8 <__aeabi_dcmpeq>
 8006296:	b9c0      	cbnz	r0, 80062ca <_printf_float+0x416>
 8006298:	4653      	mov	r3, sl
 800629a:	f108 0201 	add.w	r2, r8, #1
 800629e:	4631      	mov	r1, r6
 80062a0:	4628      	mov	r0, r5
 80062a2:	47b8      	blx	r7
 80062a4:	3001      	adds	r0, #1
 80062a6:	d10c      	bne.n	80062c2 <_printf_float+0x40e>
 80062a8:	e65e      	b.n	8005f68 <_printf_float+0xb4>
 80062aa:	2301      	movs	r3, #1
 80062ac:	465a      	mov	r2, fp
 80062ae:	4631      	mov	r1, r6
 80062b0:	4628      	mov	r0, r5
 80062b2:	47b8      	blx	r7
 80062b4:	3001      	adds	r0, #1
 80062b6:	f43f ae57 	beq.w	8005f68 <_printf_float+0xb4>
 80062ba:	f108 0801 	add.w	r8, r8, #1
 80062be:	45d0      	cmp	r8, sl
 80062c0:	dbf3      	blt.n	80062aa <_printf_float+0x3f6>
 80062c2:	464b      	mov	r3, r9
 80062c4:	f104 0250 	add.w	r2, r4, #80	@ 0x50
 80062c8:	e6df      	b.n	800608a <_printf_float+0x1d6>
 80062ca:	f04f 0800 	mov.w	r8, #0
 80062ce:	f104 0b1a 	add.w	fp, r4, #26
 80062d2:	e7f4      	b.n	80062be <_printf_float+0x40a>
 80062d4:	2301      	movs	r3, #1
 80062d6:	4642      	mov	r2, r8
 80062d8:	e7e1      	b.n	800629e <_printf_float+0x3ea>
 80062da:	2301      	movs	r3, #1
 80062dc:	464a      	mov	r2, r9
 80062de:	4631      	mov	r1, r6
 80062e0:	4628      	mov	r0, r5
 80062e2:	47b8      	blx	r7
 80062e4:	3001      	adds	r0, #1
 80062e6:	f43f ae3f 	beq.w	8005f68 <_printf_float+0xb4>
 80062ea:	f108 0801 	add.w	r8, r8, #1
 80062ee:	68e3      	ldr	r3, [r4, #12]
 80062f0:	990b      	ldr	r1, [sp, #44]	@ 0x2c
 80062f2:	1a5b      	subs	r3, r3, r1
 80062f4:	4543      	cmp	r3, r8
 80062f6:	dcf0      	bgt.n	80062da <_printf_float+0x426>
 80062f8:	e6fc      	b.n	80060f4 <_printf_float+0x240>
 80062fa:	f04f 0800 	mov.w	r8, #0
 80062fe:	f104 0919 	add.w	r9, r4, #25
 8006302:	e7f4      	b.n	80062ee <_printf_float+0x43a>

08006304 <_printf_common>:
 8006304:	e92d 47f0 	stmdb	sp!, {r4, r5, r6, r7, r8, r9, sl, lr}
 8006308:	4616      	mov	r6, r2
 800630a:	4698      	mov	r8, r3
 800630c:	688a      	ldr	r2, [r1, #8]
 800630e:	690b      	ldr	r3, [r1, #16]
 8006310:	f8dd 9020 	ldr.w	r9, [sp, #32]
 8006314:	4293      	cmp	r3, r2
 8006316:	bfb8      	it	lt
 8006318:	4613      	movlt	r3, r2
 800631a:	6033      	str	r3, [r6, #0]
 800631c:	f891 2043 	ldrb.w	r2, [r1, #67]	@ 0x43
 8006320:	4607      	mov	r7, r0
 8006322:	460c      	mov	r4, r1
 8006324:	b10a      	cbz	r2, 800632a <_printf_common+0x26>
 8006326:	3301      	adds	r3, #1
 8006328:	6033      	str	r3, [r6, #0]
 800632a:	6823      	ldr	r3, [r4, #0]
 800632c:	0699      	lsls	r1, r3, #26
 800632e:	bf42      	ittt	mi
 8006330:	6833      	ldrmi	r3, [r6, #0]
 8006332:	3302      	addmi	r3, #2
 8006334:	6033      	strmi	r3, [r6, #0]
 8006336:	6825      	ldr	r5, [r4, #0]
 8006338:	f015 0506 	ands.w	r5, r5, #6
 800633c:	d106      	bne.n	800634c <_printf_common+0x48>
 800633e:	f104 0a19 	add.w	sl, r4, #25
 8006342:	68e3      	ldr	r3, [r4, #12]
 8006344:	6832      	ldr	r2, [r6, #0]
 8006346:	1a9b      	subs	r3, r3, r2
 8006348:	42ab      	cmp	r3, r5
 800634a:	dc26      	bgt.n	800639a <_printf_common+0x96>
 800634c:	f894 3043 	ldrb.w	r3, [r4, #67]	@ 0x43
 8006350:	6822      	ldr	r2, [r4, #0]
 8006352:	3b00      	subs	r3, #0
 8006354:	bf18      	it	ne
 8006356:	2301      	movne	r3, #1
 8006358:	0692      	lsls	r2, r2, #26
 800635a:	d42b      	bmi.n	80063b4 <_printf_common+0xb0>
 800635c:	f104 0243 	add.w	r2, r4, #67	@ 0x43
 8006360:	4641      	mov	r1, r8
 8006362:	4638      	mov	r0, r7
 8006364:	47c8      	blx	r9
 8006366:	3001      	adds	r0, #1
 8006368:	d01e      	beq.n	80063a8 <_printf_common+0xa4>
 800636a:	6823      	ldr	r3, [r4, #0]
 800636c:	6922      	ldr	r2, [r4, #16]
 800636e:	f003 0306 	and.w	r3, r3, #6
 8006372:	2b04      	cmp	r3, #4
 8006374:	bf02      	ittt	eq
 8006376:	68e5      	ldreq	r5, [r4, #12]
 8006378:	6833      	ldreq	r3, [r6, #0]
 800637a:	1aed      	subeq	r5, r5, r3
 800637c:	68a3      	ldr	r3, [r4, #8]
 800637e:	bf0c      	ite	eq
 8006380:	ea25 75e5 	biceq.w	r5, r5, r5, asr #31
 8006384:	2500      	movne	r5, #0
 8006386:	4293      	cmp	r3, r2
 8006388:	bfc4      	itt	gt
 800638a:	1a9b      	subgt	r3, r3, r2
 800638c:	18ed      	addgt	r5, r5, r3
 800638e:	2600      	movs	r6, #0
 8006390:	341a      	adds	r4, #26
 8006392:	42b5      	cmp	r5, r6
 8006394:	d11a      	bne.n	80063cc <_printf_common+0xc8>
 8006396:	2000      	movs	r0, #0
 8006398:	e008      	b.n	80063ac <_printf_common+0xa8>
 800639a:	2301      	movs	r3, #1
 800639c:	4652      	mov	r2, sl
 800639e:	4641      	mov	r1, r8
 80063a0:	4638      	mov	r0, r7
 80063a2:	47c8      	blx	r9
 80063a4:	3001      	adds	r0, #1
 80063a6:	d103      	bne.n	80063b0 <_printf_common+0xac>
 80063a8:	f04f 30ff 	mov.w	r0, #4294967295
 80063ac:	e8bd 87f0 	ldmia.w	sp!, {r4, r5, r6, r7, r8, r9, sl, pc}
 80063b0:	3501      	adds	r5, #1
 80063b2:	e7c6      	b.n	8006342 <_printf_common+0x3e>
 80063b4:	18e1      	adds	r1, r4, r3
 80063b6:	1c5a      	adds	r2, r3, #1
 80063b8:	2030      	movs	r0, #48	@ 0x30
 80063ba:	f881 0043 	strb.w	r0, [r1, #67]	@ 0x43
 80063be:	4422      	add	r2, r4
 80063c0:	f894 1045 	ldrb.w	r1, [r4, #69]	@ 0x45
 80063c4:	f882 1043 	strb.w	r1, [r2, #67]	@ 0x43
 80063c8:	3302      	adds	r3, #2
 80063ca:	e7c7      	b.n	800635c <_printf_common+0x58>
 80063cc:	2301      	movs	r3, #1
 80063ce:	4622      	mov	r2, r4
 80063d0:	4641      	mov	r1, r8
 80063d2:	4638      	mov	r0, r7
 80063d4:	47c8      	blx	r9
 80063d6:	3001      	adds	r0, #1
 80063d8:	d0e6      	beq.n	80063a8 <_printf_common+0xa4>
 80063da:	3601      	adds	r6, #1
 80063dc:	e7d9      	b.n	8006392 <_printf_common+0x8e>
	...

080063e0 <_printf_i>:
 80063e0:	e92d 43f0 	stmdb	sp!, {r4, r5, r6, r7, r8, r9, lr}
 80063e4:	7e0d      	ldrb	r5, [r1, #24]
 80063e6:	b085      	sub	sp, #20
 80063e8:	2d78      	cmp	r5, #120	@ 0x78
 80063ea:	4690      	mov	r8, r2
 80063ec:	9e0c      	ldr	r6, [sp, #48]	@ 0x30
 80063ee:	4607      	mov	r7, r0
 80063f0:	460c      	mov	r4, r1
 80063f2:	4699      	mov	r9, r3
 80063f4:	f101 0243 	add.w	r2, r1, #67	@ 0x43
 80063f8:	d807      	bhi.n	800640a <_printf_i+0x2a>
 80063fa:	2d62      	cmp	r5, #98	@ 0x62
 80063fc:	d80a      	bhi.n	8006414 <_printf_i+0x34>
 80063fe:	2d00      	cmp	r5, #0
 8006400:	f000 80d7 	beq.w	80065b2 <_printf_i+0x1d2>
 8006404:	2d58      	cmp	r5, #88	@ 0x58
 8006406:	f000 80bc 	beq.w	8006582 <_printf_i+0x1a2>
 800640a:	f104 0642 	add.w	r6, r4, #66	@ 0x42
 800640e:	f884 5042 	strb.w	r5, [r4, #66]	@ 0x42
 8006412:	e03b      	b.n	800648c <_printf_i+0xac>
 8006414:	f1a5 0363 	sub.w	r3, r5, #99	@ 0x63
 8006418:	2b15      	cmp	r3, #21
 800641a:	d8f6      	bhi.n	800640a <_printf_i+0x2a>
 800641c:	a101      	add	r1, pc, #4	@ (adr r1, 8006424 <_printf_i+0x44>)
 800641e:	f851 f023 	ldr.w	pc, [r1, r3, lsl #2]
 8006422:	bf00      	nop
 8006424:	0800647d 	.word	0x0800647d
 8006428:	08006491 	.word	0x08006491
 800642c:	0800640b 	.word	0x0800640b
 8006430:	0800640b 	.word	0x0800640b
 8006434:	0800640b 	.word	0x0800640b
 8006438:	0800640b 	.word	0x0800640b
 800643c:	08006491 	.word	0x08006491
 8006440:	0800640b 	.word	0x0800640b
 8006444:	0800640b 	.word	0x0800640b
 8006448:	0800640b 	.word	0x0800640b
 800644c:	0800640b 	.word	0x0800640b
 8006450:	08006599 	.word	0x08006599
 8006454:	080064bb 	.word	0x080064bb
 8006458:	0800654b 	.word	0x0800654b
 800645c:	0800640b 	.word	0x0800640b
 8006460:	0800640b 	.word	0x0800640b
 8006464:	080065bb 	.word	0x080065bb
 8006468:	0800640b 	.word	0x0800640b
 800646c:	080064bb 	.word	0x080064bb
 8006470:	0800640b 	.word	0x0800640b
 8006474:	0800640b 	.word	0x0800640b
 8006478:	08006553 	.word	0x08006553
 800647c:	6833      	ldr	r3, [r6, #0]
 800647e:	1d1a      	adds	r2, r3, #4
 8006480:	681b      	ldr	r3, [r3, #0]
 8006482:	6032      	str	r2, [r6, #0]
 8006484:	f104 0642 	add.w	r6, r4, #66	@ 0x42
 8006488:	f884 3042 	strb.w	r3, [r4, #66]	@ 0x42
 800648c:	2301      	movs	r3, #1
 800648e:	e0a1      	b.n	80065d4 <_printf_i+0x1f4>
 8006490:	6833      	ldr	r3, [r6, #0]
 8006492:	6820      	ldr	r0, [r4, #0]
 8006494:	1d19      	adds	r1, r3, #4
 8006496:	6031      	str	r1, [r6, #0]
 8006498:	0606      	lsls	r6, r0, #24
 800649a:	d501      	bpl.n	80064a0 <_printf_i+0xc0>
 800649c:	681d      	ldr	r5, [r3, #0]
 800649e:	e003      	b.n	80064a8 <_printf_i+0xc8>
 80064a0:	0645      	lsls	r5, r0, #25
 80064a2:	d5fb      	bpl.n	800649c <_printf_i+0xbc>
 80064a4:	f9b3 5000 	ldrsh.w	r5, [r3]
 80064a8:	2d00      	cmp	r5, #0
 80064aa:	da03      	bge.n	80064b4 <_printf_i+0xd4>
 80064ac:	232d      	movs	r3, #45	@ 0x2d
 80064ae:	426d      	negs	r5, r5
 80064b0:	f884 3043 	strb.w	r3, [r4, #67]	@ 0x43
 80064b4:	485b      	ldr	r0, [pc, #364]	@ (8006624 <_printf_i+0x244>)
 80064b6:	230a      	movs	r3, #10
 80064b8:	e011      	b.n	80064de <_printf_i+0xfe>
 80064ba:	6821      	ldr	r1, [r4, #0]
 80064bc:	6833      	ldr	r3, [r6, #0]
 80064be:	0608      	lsls	r0, r1, #24
 80064c0:	f853 5b04 	ldr.w	r5, [r3], #4
 80064c4:	d402      	bmi.n	80064cc <_printf_i+0xec>
 80064c6:	0649      	lsls	r1, r1, #25
 80064c8:	bf48      	it	mi
 80064ca:	b2ad      	uxthmi	r5, r5
 80064cc:	6033      	str	r3, [r6, #0]
 80064ce:	7e23      	ldrb	r3, [r4, #24]
 80064d0:	4854      	ldr	r0, [pc, #336]	@ (8006624 <_printf_i+0x244>)
 80064d2:	2b6f      	cmp	r3, #111	@ 0x6f
 80064d4:	d15c      	bne.n	8006590 <_printf_i+0x1b0>
 80064d6:	2308      	movs	r3, #8
 80064d8:	2100      	movs	r1, #0
 80064da:	f884 1043 	strb.w	r1, [r4, #67]	@ 0x43
 80064de:	6866      	ldr	r6, [r4, #4]
 80064e0:	60a6      	str	r6, [r4, #8]
 80064e2:	2e00      	cmp	r6, #0
 80064e4:	db05      	blt.n	80064f2 <_printf_i+0x112>
 80064e6:	6821      	ldr	r1, [r4, #0]
 80064e8:	432e      	orrs	r6, r5
 80064ea:	f021 0104 	bic.w	r1, r1, #4
 80064ee:	6021      	str	r1, [r4, #0]
 80064f0:	d050      	beq.n	8006594 <_printf_i+0x1b4>
 80064f2:	4616      	mov	r6, r2
 80064f4:	fbb5 f1f3 	udiv	r1, r5, r3
 80064f8:	fb03 5c11 	mls	ip, r3, r1, r5
 80064fc:	f810 c00c 	ldrb.w	ip, [r0, ip]
 8006500:	f806 cd01 	strb.w	ip, [r6, #-1]!
 8006504:	46ac      	mov	ip, r5
 8006506:	4563      	cmp	r3, ip
 8006508:	460d      	mov	r5, r1
 800650a:	d9f3      	bls.n	80064f4 <_printf_i+0x114>
 800650c:	2b08      	cmp	r3, #8
 800650e:	d10b      	bne.n	8006528 <_printf_i+0x148>
 8006510:	6823      	ldr	r3, [r4, #0]
 8006512:	07db      	lsls	r3, r3, #31
 8006514:	d508      	bpl.n	8006528 <_printf_i+0x148>
 8006516:	6923      	ldr	r3, [r4, #16]
 8006518:	6861      	ldr	r1, [r4, #4]
 800651a:	4299      	cmp	r1, r3
 800651c:	bfde      	ittt	le
 800651e:	2330      	movle	r3, #48	@ 0x30
 8006520:	f806 3c01 	strble.w	r3, [r6, #-1]
 8006524:	f106 36ff 	addle.w	r6, r6, #4294967295
 8006528:	1b92      	subs	r2, r2, r6
 800652a:	6122      	str	r2, [r4, #16]
 800652c:	f8cd 9000 	str.w	r9, [sp]
 8006530:	4643      	mov	r3, r8
 8006532:	aa03      	add	r2, sp, #12
 8006534:	4621      	mov	r1, r4
 8006536:	4638      	mov	r0, r7
 8006538:	f7ff fee4 	bl	8006304 <_printf_common>
 800653c:	3001      	adds	r0, #1
 800653e:	d14e      	bne.n	80065de <_printf_i+0x1fe>
 8006540:	f04f 30ff 	mov.w	r0, #4294967295
 8006544:	b005      	add	sp, #20
 8006546:	e8bd 83f0 	ldmia.w	sp!, {r4, r5, r6, r7, r8, r9, pc}
 800654a:	6823      	ldr	r3, [r4, #0]
 800654c:	f043 0320 	orr.w	r3, r3, #32
 8006550:	6023      	str	r3, [r4, #0]
 8006552:	4835      	ldr	r0, [pc, #212]	@ (8006628 <_printf_i+0x248>)
 8006554:	2578      	movs	r5, #120	@ 0x78
 8006556:	f884 5045 	strb.w	r5, [r4, #69]	@ 0x45
 800655a:	6823      	ldr	r3, [r4, #0]
 800655c:	6831      	ldr	r1, [r6, #0]
 800655e:	f013 0f80 	tst.w	r3, #128	@ 0x80
 8006562:	f851 5b04 	ldr.w	r5, [r1], #4
 8006566:	d103      	bne.n	8006570 <_printf_i+0x190>
 8006568:	f013 0f40 	tst.w	r3, #64	@ 0x40
 800656c:	bf18      	it	ne
 800656e:	b2ad      	uxthne	r5, r5
 8006570:	6031      	str	r1, [r6, #0]
 8006572:	07d9      	lsls	r1, r3, #31
 8006574:	bf44      	itt	mi
 8006576:	f043 0320 	orrmi.w	r3, r3, #32
 800657a:	6023      	strmi	r3, [r4, #0]
 800657c:	b11d      	cbz	r5, 8006586 <_printf_i+0x1a6>
 800657e:	2310      	movs	r3, #16
 8006580:	e7aa      	b.n	80064d8 <_printf_i+0xf8>
 8006582:	4828      	ldr	r0, [pc, #160]	@ (8006624 <_printf_i+0x244>)
 8006584:	e7e7      	b.n	8006556 <_printf_i+0x176>
 8006586:	6823      	ldr	r3, [r4, #0]
 8006588:	f023 0320 	bic.w	r3, r3, #32
 800658c:	6023      	str	r3, [r4, #0]
 800658e:	e7f6      	b.n	800657e <_printf_i+0x19e>
 8006590:	230a      	movs	r3, #10
 8006592:	e7a1      	b.n	80064d8 <_printf_i+0xf8>
 8006594:	4616      	mov	r6, r2
 8006596:	e7b9      	b.n	800650c <_printf_i+0x12c>
 8006598:	6833      	ldr	r3, [r6, #0]
 800659a:	6825      	ldr	r5, [r4, #0]
 800659c:	6961      	ldr	r1, [r4, #20]
 800659e:	1d18      	adds	r0, r3, #4
 80065a0:	6030      	str	r0, [r6, #0]
 80065a2:	062e      	lsls	r6, r5, #24
 80065a4:	681b      	ldr	r3, [r3, #0]
 80065a6:	d501      	bpl.n	80065ac <_printf_i+0x1cc>
 80065a8:	6019      	str	r1, [r3, #0]
 80065aa:	e002      	b.n	80065b2 <_printf_i+0x1d2>
 80065ac:	0668      	lsls	r0, r5, #25
 80065ae:	d5fb      	bpl.n	80065a8 <_printf_i+0x1c8>
 80065b0:	8019      	strh	r1, [r3, #0]
 80065b2:	2300      	movs	r3, #0
 80065b4:	6123      	str	r3, [r4, #16]
 80065b6:	4616      	mov	r6, r2
 80065b8:	e7b8      	b.n	800652c <_printf_i+0x14c>
 80065ba:	6833      	ldr	r3, [r6, #0]
 80065bc:	1d1a      	adds	r2, r3, #4
 80065be:	6032      	str	r2, [r6, #0]
 80065c0:	681e      	ldr	r6, [r3, #0]
 80065c2:	6862      	ldr	r2, [r4, #4]
 80065c4:	2100      	movs	r1, #0
 80065c6:	4630      	mov	r0, r6
 80065c8:	f7f9 fe02 	bl	80001d0 <memchr>
 80065cc:	b108      	cbz	r0, 80065d2 <_printf_i+0x1f2>
 80065ce:	1b80      	subs	r0, r0, r6
 80065d0:	6060      	str	r0, [r4, #4]
 80065d2:	6863      	ldr	r3, [r4, #4]
 80065d4:	6123      	str	r3, [r4, #16]
 80065d6:	2300      	movs	r3, #0
 80065d8:	f884 3043 	strb.w	r3, [r4, #67]	@ 0x43
 80065dc:	e7a6      	b.n	800652c <_printf_i+0x14c>
 80065de:	6923      	ldr	r3, [r4, #16]
 80065e0:	4632      	mov	r2, r6
 80065e2:	4641      	mov	r1, r8
 80065e4:	4638      	mov	r0, r7
 80065e6:	47c8      	blx	r9
 80065e8:	3001      	adds	r0, #1
 80065ea:	d0a9      	beq.n	8006540 <_printf_i+0x160>
 80065ec:	6823      	ldr	r3, [r4, #0]
 80065ee:	079b      	lsls	r3, r3, #30
 80065f0:	d413      	bmi.n	800661a <_printf_i+0x23a>
 80065f2:	68e0      	ldr	r0, [r4, #12]
 80065f4:	9b03      	ldr	r3, [sp, #12]
 80065f6:	4298      	cmp	r0, r3
 80065f8:	bfb8      	it	lt
 80065fa:	4618      	movlt	r0, r3
 80065fc:	e7a2      	b.n	8006544 <_printf_i+0x164>
 80065fe:	2301      	movs	r3, #1
 8006600:	4632      	mov	r2, r6
 8006602:	4641      	mov	r1, r8
 8006604:	4638      	mov	r0, r7
 8006606:	47c8      	blx	r9
 8006608:	3001      	adds	r0, #1
 800660a:	d099      	beq.n	8006540 <_printf_i+0x160>
 800660c:	3501      	adds	r5, #1
 800660e:	68e3      	ldr	r3, [r4, #12]
 8006610:	9903      	ldr	r1, [sp, #12]
 8006612:	1a5b      	subs	r3, r3, r1
 8006614:	42ab      	cmp	r3, r5
 8006616:	dcf2      	bgt.n	80065fe <_printf_i+0x21e>
 8006618:	e7eb      	b.n	80065f2 <_printf_i+0x212>
 800661a:	2500      	movs	r5, #0
 800661c:	f104 0619 	add.w	r6, r4, #25
 8006620:	e7f5      	b.n	800660e <_printf_i+0x22e>
 8006622:	bf00      	nop
 8006624:	08008b0a 	.word	0x08008b0a
 8006628:	08008b1b 	.word	0x08008b1b

0800662c <std>:
 800662c:	2300      	movs	r3, #0
 800662e:	b510      	push	{r4, lr}
 8006630:	4604      	mov	r4, r0
 8006632:	e9c0 3300 	strd	r3, r3, [r0]
 8006636:	e9c0 3304 	strd	r3, r3, [r0, #16]
 800663a:	6083      	str	r3, [r0, #8]
 800663c:	8181      	strh	r1, [r0, #12]
 800663e:	6643      	str	r3, [r0, #100]	@ 0x64
 8006640:	81c2      	strh	r2, [r0, #14]
 8006642:	6183      	str	r3, [r0, #24]
 8006644:	4619      	mov	r1, r3
 8006646:	2208      	movs	r2, #8
 8006648:	305c      	adds	r0, #92	@ 0x5c
 800664a:	f000 f92d 	bl	80068a8 <memset>
 800664e:	4b0d      	ldr	r3, [pc, #52]	@ (8006684 <std+0x58>)
 8006650:	6263      	str	r3, [r4, #36]	@ 0x24
 8006652:	4b0d      	ldr	r3, [pc, #52]	@ (8006688 <std+0x5c>)
 8006654:	62a3      	str	r3, [r4, #40]	@ 0x28
 8006656:	4b0d      	ldr	r3, [pc, #52]	@ (800668c <std+0x60>)
 8006658:	62e3      	str	r3, [r4, #44]	@ 0x2c
 800665a:	4b0d      	ldr	r3, [pc, #52]	@ (8006690 <std+0x64>)
 800665c:	6323      	str	r3, [r4, #48]	@ 0x30
 800665e:	4b0d      	ldr	r3, [pc, #52]	@ (8006694 <std+0x68>)
 8006660:	6224      	str	r4, [r4, #32]
 8006662:	429c      	cmp	r4, r3
 8006664:	d006      	beq.n	8006674 <std+0x48>
 8006666:	f103 0268 	add.w	r2, r3, #104	@ 0x68
 800666a:	4294      	cmp	r4, r2
 800666c:	d002      	beq.n	8006674 <std+0x48>
 800666e:	33d0      	adds	r3, #208	@ 0xd0
 8006670:	429c      	cmp	r4, r3
 8006672:	d105      	bne.n	8006680 <std+0x54>
 8006674:	f104 0058 	add.w	r0, r4, #88	@ 0x58
 8006678:	e8bd 4010 	ldmia.w	sp!, {r4, lr}
 800667c:	f000 b990 	b.w	80069a0 <__retarget_lock_init_recursive>
 8006680:	bd10      	pop	{r4, pc}
 8006682:	bf00      	nop
 8006684:	08006821 	.word	0x08006821
 8006688:	08006843 	.word	0x08006843
 800668c:	0800687b 	.word	0x0800687b
 8006690:	080068a1 	.word	0x080068a1
 8006694:	20000368 	.word	0x20000368

08006698 <stdio_exit_handler>:
 8006698:	4a02      	ldr	r2, [pc, #8]	@ (80066a4 <stdio_exit_handler+0xc>)
 800669a:	4903      	ldr	r1, [pc, #12]	@ (80066a8 <stdio_exit_handler+0x10>)
 800669c:	4803      	ldr	r0, [pc, #12]	@ (80066ac <stdio_exit_handler+0x14>)
 800669e:	f000 b86b 	b.w	8006778 <_fwalk_sglue>
 80066a2:	bf00      	nop
 80066a4:	2000000c 	.word	0x2000000c
 80066a8:	08008335 	.word	0x08008335
 80066ac:	2000001c 	.word	0x2000001c

080066b0 <cleanup_stdio>:
 80066b0:	6841      	ldr	r1, [r0, #4]
 80066b2:	4b0c      	ldr	r3, [pc, #48]	@ (80066e4 <cleanup_stdio+0x34>)
 80066b4:	4299      	cmp	r1, r3
 80066b6:	b510      	push	{r4, lr}
 80066b8:	4604      	mov	r4, r0
 80066ba:	d001      	beq.n	80066c0 <cleanup_stdio+0x10>
 80066bc:	f001 fe3a 	bl	8008334 <_fflush_r>
 80066c0:	68a1      	ldr	r1, [r4, #8]
 80066c2:	4b09      	ldr	r3, [pc, #36]	@ (80066e8 <cleanup_stdio+0x38>)
 80066c4:	4299      	cmp	r1, r3
 80066c6:	d002      	beq.n	80066ce <cleanup_stdio+0x1e>
 80066c8:	4620      	mov	r0, r4
 80066ca:	f001 fe33 	bl	8008334 <_fflush_r>
 80066ce:	68e1      	ldr	r1, [r4, #12]
 80066d0:	4b06      	ldr	r3, [pc, #24]	@ (80066ec <cleanup_stdio+0x3c>)
 80066d2:	4299      	cmp	r1, r3
 80066d4:	d004      	beq.n	80066e0 <cleanup_stdio+0x30>
 80066d6:	4620      	mov	r0, r4
 80066d8:	e8bd 4010 	ldmia.w	sp!, {r4, lr}
 80066dc:	f001 be2a 	b.w	8008334 <_fflush_r>
 80066e0:	bd10      	pop	{r4, pc}
 80066e2:	bf00      	nop
 80066e4:	20000368 	.word	0x20000368
 80066e8:	200003d0 	.word	0x200003d0
 80066ec:	20000438 	.word	0x20000438

080066f0 <global_stdio_init.part.0>:
 80066f0:	4b0c      	ldr	r3, [pc, #48]	@ (8006724 <global_stdio_init.part.0+0x34>)
 80066f2:	4a0d      	ldr	r2, [pc, #52]	@ (8006728 <global_stdio_init.part.0+0x38>)
 80066f4:	480d      	ldr	r0, [pc, #52]	@ (800672c <global_stdio_init.part.0+0x3c>)
 80066f6:	b510      	push	{r4, lr}
 80066f8:	2104      	movs	r1, #4
 80066fa:	601a      	str	r2, [r3, #0]
 80066fc:	2200      	movs	r2, #0
 80066fe:	f7ff ff95 	bl	800662c <std>
 8006702:	4b0a      	ldr	r3, [pc, #40]	@ (800672c <global_stdio_init.part.0+0x3c>)
 8006704:	2201      	movs	r2, #1
 8006706:	461c      	mov	r4, r3
 8006708:	2109      	movs	r1, #9
 800670a:	f103 0068 	add.w	r0, r3, #104	@ 0x68
 800670e:	f7ff ff8d 	bl	800662c <std>
 8006712:	f104 00d0 	add.w	r0, r4, #208	@ 0xd0
 8006716:	2202      	movs	r2, #2
 8006718:	e8bd 4010 	ldmia.w	sp!, {r4, lr}
 800671c:	2112      	movs	r1, #18
 800671e:	f7ff bf85 	b.w	800662c <std>
 8006722:	bf00      	nop
 8006724:	200004a0 	.word	0x200004a0
 8006728:	08006699 	.word	0x08006699
 800672c:	20000368 	.word	0x20000368

08006730 <__sfp_lock_acquire>:
 8006730:	4801      	ldr	r0, [pc, #4]	@ (8006738 <__sfp_lock_acquire+0x8>)
 8006732:	f000 b936 	b.w	80069a2 <__retarget_lock_acquire_recursive>
 8006736:	bf00      	nop
 8006738:	200004a9 	.word	0x200004a9

0800673c <__sfp_lock_release>:
 800673c:	4801      	ldr	r0, [pc, #4]	@ (8006744 <__sfp_lock_release+0x8>)
 800673e:	f000 b931 	b.w	80069a4 <__retarget_lock_release_recursive>
 8006742:	bf00      	nop
 8006744:	200004a9 	.word	0x200004a9

08006748 <__sinit>:
 8006748:	b510      	push	{r4, lr}
 800674a:	4604      	mov	r4, r0
 800674c:	f7ff fff0 	bl	8006730 <__sfp_lock_acquire>
 8006750:	6a23      	ldr	r3, [r4, #32]
 8006752:	b11b      	cbz	r3, 800675c <__sinit+0x14>
 8006754:	e8bd 4010 	ldmia.w	sp!, {r4, lr}
 8006758:	f7ff bff0 	b.w	800673c <__sfp_lock_release>
 800675c:	4b04      	ldr	r3, [pc, #16]	@ (8006770 <__sinit+0x28>)
 800675e:	6223      	str	r3, [r4, #32]
 8006760:	4b04      	ldr	r3, [pc, #16]	@ (8006774 <__sinit+0x2c>)
 8006762:	681b      	ldr	r3, [r3, #0]
 8006764:	2b00      	cmp	r3, #0
 8006766:	d1f5      	bne.n	8006754 <__sinit+0xc>
 8006768:	f7ff ffc2 	bl	80066f0 <global_stdio_init.part.0>
 800676c:	e7f2      	b.n	8006754 <__sinit+0xc>
 800676e:	bf00      	nop
 8006770:	080066b1 	.word	0x080066b1
 8006774:	200004a0 	.word	0x200004a0

08006778 <_fwalk_sglue>:
 8006778:	e92d 43f8 	stmdb	sp!, {r3, r4, r5, r6, r7, r8, r9, lr}
 800677c:	4607      	mov	r7, r0
 800677e:	4688      	mov	r8, r1
 8006780:	4614      	mov	r4, r2
 8006782:	2600      	movs	r6, #0
 8006784:	e9d4 9501 	ldrd	r9, r5, [r4, #4]
 8006788:	f1b9 0901 	subs.w	r9, r9, #1
 800678c:	d505      	bpl.n	800679a <_fwalk_sglue+0x22>
 800678e:	6824      	ldr	r4, [r4, #0]
 8006790:	2c00      	cmp	r4, #0
 8006792:	d1f7      	bne.n	8006784 <_fwalk_sglue+0xc>
 8006794:	4630      	mov	r0, r6
 8006796:	e8bd 83f8 	ldmia.w	sp!, {r3, r4, r5, r6, r7, r8, r9, pc}
 800679a:	89ab      	ldrh	r3, [r5, #12]
 800679c:	2b01      	cmp	r3, #1
 800679e:	d907      	bls.n	80067b0 <_fwalk_sglue+0x38>
 80067a0:	f9b5 300e 	ldrsh.w	r3, [r5, #14]
 80067a4:	3301      	adds	r3, #1
 80067a6:	d003      	beq.n	80067b0 <_fwalk_sglue+0x38>
 80067a8:	4629      	mov	r1, r5
 80067aa:	4638      	mov	r0, r7
 80067ac:	47c0      	blx	r8
 80067ae:	4306      	orrs	r6, r0
 80067b0:	3568      	adds	r5, #104	@ 0x68
 80067b2:	e7e9      	b.n	8006788 <_fwalk_sglue+0x10>

080067b4 <sniprintf>:
 80067b4:	b40c      	push	{r2, r3}
 80067b6:	b530      	push	{r4, r5, lr}
 80067b8:	4b18      	ldr	r3, [pc, #96]	@ (800681c <sniprintf+0x68>)
 80067ba:	1e0c      	subs	r4, r1, #0
 80067bc:	681d      	ldr	r5, [r3, #0]
 80067be:	b09d      	sub	sp, #116	@ 0x74
 80067c0:	da08      	bge.n	80067d4 <sniprintf+0x20>
 80067c2:	238b      	movs	r3, #139	@ 0x8b
 80067c4:	602b      	str	r3, [r5, #0]
 80067c6:	f04f 30ff 	mov.w	r0, #4294967295
 80067ca:	b01d      	add	sp, #116	@ 0x74
 80067cc:	e8bd 4030 	ldmia.w	sp!, {r4, r5, lr}
 80067d0:	b002      	add	sp, #8
 80067d2:	4770      	bx	lr
 80067d4:	f44f 7302 	mov.w	r3, #520	@ 0x208
 80067d8:	f8ad 3014 	strh.w	r3, [sp, #20]
 80067dc:	f04f 0300 	mov.w	r3, #0
 80067e0:	931b      	str	r3, [sp, #108]	@ 0x6c
 80067e2:	bf14      	ite	ne
 80067e4:	f104 33ff 	addne.w	r3, r4, #4294967295
 80067e8:	4623      	moveq	r3, r4
 80067ea:	9304      	str	r3, [sp, #16]
 80067ec:	9307      	str	r3, [sp, #28]
 80067ee:	f64f 73ff 	movw	r3, #65535	@ 0xffff
 80067f2:	9002      	str	r0, [sp, #8]
 80067f4:	9006      	str	r0, [sp, #24]
 80067f6:	f8ad 3016 	strh.w	r3, [sp, #22]
 80067fa:	9a20      	ldr	r2, [sp, #128]	@ 0x80
 80067fc:	ab21      	add	r3, sp, #132	@ 0x84
 80067fe:	a902      	add	r1, sp, #8
 8006800:	4628      	mov	r0, r5
 8006802:	9301      	str	r3, [sp, #4]
 8006804:	f001 fc1c 	bl	8008040 <_svfiprintf_r>
 8006808:	1c43      	adds	r3, r0, #1
 800680a:	bfbc      	itt	lt
 800680c:	238b      	movlt	r3, #139	@ 0x8b
 800680e:	602b      	strlt	r3, [r5, #0]
 8006810:	2c00      	cmp	r4, #0
 8006812:	d0da      	beq.n	80067ca <sniprintf+0x16>
 8006814:	9b02      	ldr	r3, [sp, #8]
 8006816:	2200      	movs	r2, #0
 8006818:	701a      	strb	r2, [r3, #0]
 800681a:	e7d6      	b.n	80067ca <sniprintf+0x16>
 800681c:	20000018 	.word	0x20000018

08006820 <__sread>:
 8006820:	b510      	push	{r4, lr}
 8006822:	460c      	mov	r4, r1
 8006824:	f9b1 100e 	ldrsh.w	r1, [r1, #14]
 8006828:	f000 f86c 	bl	8006904 <_read_r>
 800682c:	2800      	cmp	r0, #0
 800682e:	bfab      	itete	ge
 8006830:	6d63      	ldrge	r3, [r4, #84]	@ 0x54
 8006832:	89a3      	ldrhlt	r3, [r4, #12]
 8006834:	181b      	addge	r3, r3, r0
 8006836:	f423 5380 	biclt.w	r3, r3, #4096	@ 0x1000
 800683a:	bfac      	ite	ge
 800683c:	6563      	strge	r3, [r4, #84]	@ 0x54
 800683e:	81a3      	strhlt	r3, [r4, #12]
 8006840:	bd10      	pop	{r4, pc}

08006842 <__swrite>:
 8006842:	e92d 41f0 	stmdb	sp!, {r4, r5, r6, r7, r8, lr}
 8006846:	461f      	mov	r7, r3
 8006848:	898b      	ldrh	r3, [r1, #12]
 800684a:	05db      	lsls	r3, r3, #23
 800684c:	4605      	mov	r5, r0
 800684e:	460c      	mov	r4, r1
 8006850:	4616      	mov	r6, r2
 8006852:	d505      	bpl.n	8006860 <__swrite+0x1e>
 8006854:	f9b1 100e 	ldrsh.w	r1, [r1, #14]
 8006858:	2302      	movs	r3, #2
 800685a:	2200      	movs	r2, #0
 800685c:	f000 f840 	bl	80068e0 <_lseek_r>
 8006860:	89a3      	ldrh	r3, [r4, #12]
 8006862:	f9b4 100e 	ldrsh.w	r1, [r4, #14]
 8006866:	f423 5380 	bic.w	r3, r3, #4096	@ 0x1000
 800686a:	81a3      	strh	r3, [r4, #12]
 800686c:	4632      	mov	r2, r6
 800686e:	463b      	mov	r3, r7
 8006870:	4628      	mov	r0, r5
 8006872:	e8bd 41f0 	ldmia.w	sp!, {r4, r5, r6, r7, r8, lr}
 8006876:	f000 b857 	b.w	8006928 <_write_r>

0800687a <__sseek>:
 800687a:	b510      	push	{r4, lr}
 800687c:	460c      	mov	r4, r1
 800687e:	f9b1 100e 	ldrsh.w	r1, [r1, #14]
 8006882:	f000 f82d 	bl	80068e0 <_lseek_r>
 8006886:	f9b4 300c 	ldrsh.w	r3, [r4, #12]
 800688a:	1c42      	adds	r2, r0, #1
 800688c:	bf0b      	itete	eq
 800688e:	f423 5380 	biceq.w	r3, r3, #4096	@ 0x1000
 8006892:	f443 5380 	orrne.w	r3, r3, #4096	@ 0x1000
 8006896:	81a3      	strheq	r3, [r4, #12]
 8006898:	81a3      	strhne	r3, [r4, #12]
 800689a:	bf18      	it	ne
 800689c:	6560      	strne	r0, [r4, #84]	@ 0x54
 800689e:	bd10      	pop	{r4, pc}

080068a0 <__sclose>:
 80068a0:	f9b1 100e 	ldrsh.w	r1, [r1, #14]
 80068a4:	f000 b80c 	b.w	80068c0 <_close_r>

080068a8 <memset>:
 80068a8:	4402      	add	r2, r0
 80068aa:	4603      	mov	r3, r0
 80068ac:	4293      	cmp	r3, r2
 80068ae:	d100      	bne.n	80068b2 <memset+0xa>
 80068b0:	4770      	bx	lr
 80068b2:	f803 1b01 	strb.w	r1, [r3], #1
 80068b6:	e7f9      	b.n	80068ac <memset+0x4>

080068b8 <_localeconv_r>:
 80068b8:	4800      	ldr	r0, [pc, #0]	@ (80068bc <_localeconv_r+0x4>)
 80068ba:	4770      	bx	lr
 80068bc:	20000158 	.word	0x20000158

080068c0 <_close_r>:
 80068c0:	b538      	push	{r3, r4, r5, lr}
 80068c2:	4d06      	ldr	r5, [pc, #24]	@ (80068dc <_close_r+0x1c>)
 80068c4:	2300      	movs	r3, #0
 80068c6:	4604      	mov	r4, r0
 80068c8:	4608      	mov	r0, r1
 80068ca:	602b      	str	r3, [r5, #0]
 80068cc:	f7fa fd8a 	bl	80013e4 <_close>
 80068d0:	1c43      	adds	r3, r0, #1
 80068d2:	d102      	bne.n	80068da <_close_r+0x1a>
 80068d4:	682b      	ldr	r3, [r5, #0]
 80068d6:	b103      	cbz	r3, 80068da <_close_r+0x1a>
 80068d8:	6023      	str	r3, [r4, #0]
 80068da:	bd38      	pop	{r3, r4, r5, pc}
 80068dc:	200004a4 	.word	0x200004a4

080068e0 <_lseek_r>:
 80068e0:	b538      	push	{r3, r4, r5, lr}
 80068e2:	4d07      	ldr	r5, [pc, #28]	@ (8006900 <_lseek_r+0x20>)
 80068e4:	4604      	mov	r4, r0
 80068e6:	4608      	mov	r0, r1
 80068e8:	4611      	mov	r1, r2
 80068ea:	2200      	movs	r2, #0
 80068ec:	602a      	str	r2, [r5, #0]
 80068ee:	461a      	mov	r2, r3
 80068f0:	f7fa fd9f 	bl	8001432 <_lseek>
 80068f4:	1c43      	adds	r3, r0, #1
 80068f6:	d102      	bne.n	80068fe <_lseek_r+0x1e>
 80068f8:	682b      	ldr	r3, [r5, #0]
 80068fa:	b103      	cbz	r3, 80068fe <_lseek_r+0x1e>
 80068fc:	6023      	str	r3, [r4, #0]
 80068fe:	bd38      	pop	{r3, r4, r5, pc}
 8006900:	200004a4 	.word	0x200004a4

08006904 <_read_r>:
 8006904:	b538      	push	{r3, r4, r5, lr}
 8006906:	4d07      	ldr	r5, [pc, #28]	@ (8006924 <_read_r+0x20>)
 8006908:	4604      	mov	r4, r0
 800690a:	4608      	mov	r0, r1
 800690c:	4611      	mov	r1, r2
 800690e:	2200      	movs	r2, #0
 8006910:	602a      	str	r2, [r5, #0]
 8006912:	461a      	mov	r2, r3
 8006914:	f7fa fd2d 	bl	8001372 <_read>
 8006918:	1c43      	adds	r3, r0, #1
 800691a:	d102      	bne.n	8006922 <_read_r+0x1e>
 800691c:	682b      	ldr	r3, [r5, #0]
 800691e:	b103      	cbz	r3, 8006922 <_read_r+0x1e>
 8006920:	6023      	str	r3, [r4, #0]
 8006922:	bd38      	pop	{r3, r4, r5, pc}
 8006924:	200004a4 	.word	0x200004a4

08006928 <_write_r>:
 8006928:	b538      	push	{r3, r4, r5, lr}
 800692a:	4d07      	ldr	r5, [pc, #28]	@ (8006948 <_write_r+0x20>)
 800692c:	4604      	mov	r4, r0
 800692e:	4608      	mov	r0, r1
 8006930:	4611      	mov	r1, r2
 8006932:	2200      	movs	r2, #0
 8006934:	602a      	str	r2, [r5, #0]
 8006936:	461a      	mov	r2, r3
 8006938:	f7fa fd38 	bl	80013ac <_write>
 800693c:	1c43      	adds	r3, r0, #1
 800693e:	d102      	bne.n	8006946 <_write_r+0x1e>
 8006940:	682b      	ldr	r3, [r5, #0]
 8006942:	b103      	cbz	r3, 8006946 <_write_r+0x1e>
 8006944:	6023      	str	r3, [r4, #0]
 8006946:	bd38      	pop	{r3, r4, r5, pc}
 8006948:	200004a4 	.word	0x200004a4

0800694c <__errno>:
 800694c:	4b01      	ldr	r3, [pc, #4]	@ (8006954 <__errno+0x8>)
 800694e:	6818      	ldr	r0, [r3, #0]
 8006950:	4770      	bx	lr
 8006952:	bf00      	nop
 8006954:	20000018 	.word	0x20000018

08006958 <__libc_init_array>:
 8006958:	b570      	push	{r4, r5, r6, lr}
 800695a:	4b0d      	ldr	r3, [pc, #52]	@ (8006990 <__libc_init_array+0x38>)
 800695c:	4d0d      	ldr	r5, [pc, #52]	@ (8006994 <__libc_init_array+0x3c>)
 800695e:	1b5b      	subs	r3, r3, r5
 8006960:	109c      	asrs	r4, r3, #2
 8006962:	2600      	movs	r6, #0
 8006964:	42a6      	cmp	r6, r4
 8006966:	d109      	bne.n	800697c <__libc_init_array+0x24>
 8006968:	f002 f878 	bl	8008a5c <_init>
 800696c:	4d0a      	ldr	r5, [pc, #40]	@ (8006998 <__libc_init_array+0x40>)
 800696e:	4b0b      	ldr	r3, [pc, #44]	@ (800699c <__libc_init_array+0x44>)
 8006970:	1b5b      	subs	r3, r3, r5
 8006972:	109c      	asrs	r4, r3, #2
 8006974:	2600      	movs	r6, #0
 8006976:	42a6      	cmp	r6, r4
 8006978:	d105      	bne.n	8006986 <__libc_init_array+0x2e>
 800697a:	bd70      	pop	{r4, r5, r6, pc}
 800697c:	f855 3b04 	ldr.w	r3, [r5], #4
 8006980:	4798      	blx	r3
 8006982:	3601      	adds	r6, #1
 8006984:	e7ee      	b.n	8006964 <__libc_init_array+0xc>
 8006986:	f855 3b04 	ldr.w	r3, [r5], #4
 800698a:	4798      	blx	r3
 800698c:	3601      	adds	r6, #1
 800698e:	e7f2      	b.n	8006976 <__libc_init_array+0x1e>
 8006990:	08008e74 	.word	0x08008e74
 8006994:	08008e74 	.word	0x08008e74
 8006998:	08008e74 	.word	0x08008e74
 800699c:	08008e78 	.word	0x08008e78

080069a0 <__retarget_lock_init_recursive>:
 80069a0:	4770      	bx	lr

080069a2 <__retarget_lock_acquire_recursive>:
 80069a2:	4770      	bx	lr

080069a4 <__retarget_lock_release_recursive>:
 80069a4:	4770      	bx	lr

080069a6 <quorem>:
 80069a6:	e92d 4ff7 	stmdb	sp!, {r0, r1, r2, r4, r5, r6, r7, r8, r9, sl, fp, lr}
 80069aa:	6903      	ldr	r3, [r0, #16]
 80069ac:	690c      	ldr	r4, [r1, #16]
 80069ae:	42a3      	cmp	r3, r4
 80069b0:	4607      	mov	r7, r0
 80069b2:	db7e      	blt.n	8006ab2 <quorem+0x10c>
 80069b4:	3c01      	subs	r4, #1
 80069b6:	f101 0814 	add.w	r8, r1, #20
 80069ba:	00a3      	lsls	r3, r4, #2
 80069bc:	f100 0514 	add.w	r5, r0, #20
 80069c0:	9300      	str	r3, [sp, #0]
 80069c2:	eb05 0384 	add.w	r3, r5, r4, lsl #2
 80069c6:	9301      	str	r3, [sp, #4]
 80069c8:	f858 3024 	ldr.w	r3, [r8, r4, lsl #2]
 80069cc:	f855 2024 	ldr.w	r2, [r5, r4, lsl #2]
 80069d0:	3301      	adds	r3, #1
 80069d2:	429a      	cmp	r2, r3
 80069d4:	eb08 0984 	add.w	r9, r8, r4, lsl #2
 80069d8:	fbb2 f6f3 	udiv	r6, r2, r3
 80069dc:	d32e      	bcc.n	8006a3c <quorem+0x96>
 80069de:	f04f 0a00 	mov.w	sl, #0
 80069e2:	46c4      	mov	ip, r8
 80069e4:	46ae      	mov	lr, r5
 80069e6:	46d3      	mov	fp, sl
 80069e8:	f85c 3b04 	ldr.w	r3, [ip], #4
 80069ec:	b298      	uxth	r0, r3
 80069ee:	fb06 a000 	mla	r0, r6, r0, sl
 80069f2:	0c02      	lsrs	r2, r0, #16
 80069f4:	0c1b      	lsrs	r3, r3, #16
 80069f6:	fb06 2303 	mla	r3, r6, r3, r2
 80069fa:	f8de 2000 	ldr.w	r2, [lr]
 80069fe:	b280      	uxth	r0, r0
 8006a00:	b292      	uxth	r2, r2
 8006a02:	1a12      	subs	r2, r2, r0
 8006a04:	445a      	add	r2, fp
 8006a06:	f8de 0000 	ldr.w	r0, [lr]
 8006a0a:	ea4f 4a13 	mov.w	sl, r3, lsr #16
 8006a0e:	b29b      	uxth	r3, r3
 8006a10:	ebc3 4322 	rsb	r3, r3, r2, asr #16
 8006a14:	eb03 4310 	add.w	r3, r3, r0, lsr #16
 8006a18:	b292      	uxth	r2, r2
 8006a1a:	ea42 4203 	orr.w	r2, r2, r3, lsl #16
 8006a1e:	45e1      	cmp	r9, ip
 8006a20:	f84e 2b04 	str.w	r2, [lr], #4
 8006a24:	ea4f 4b23 	mov.w	fp, r3, asr #16
 8006a28:	d2de      	bcs.n	80069e8 <quorem+0x42>
 8006a2a:	9b00      	ldr	r3, [sp, #0]
 8006a2c:	58eb      	ldr	r3, [r5, r3]
 8006a2e:	b92b      	cbnz	r3, 8006a3c <quorem+0x96>
 8006a30:	9b01      	ldr	r3, [sp, #4]
 8006a32:	3b04      	subs	r3, #4
 8006a34:	429d      	cmp	r5, r3
 8006a36:	461a      	mov	r2, r3
 8006a38:	d32f      	bcc.n	8006a9a <quorem+0xf4>
 8006a3a:	613c      	str	r4, [r7, #16]
 8006a3c:	4638      	mov	r0, r7
 8006a3e:	f001 f993 	bl	8007d68 <__mcmp>
 8006a42:	2800      	cmp	r0, #0
 8006a44:	db25      	blt.n	8006a92 <quorem+0xec>
 8006a46:	4629      	mov	r1, r5
 8006a48:	2000      	movs	r0, #0
 8006a4a:	f858 2b04 	ldr.w	r2, [r8], #4
 8006a4e:	f8d1 c000 	ldr.w	ip, [r1]
 8006a52:	fa1f fe82 	uxth.w	lr, r2
 8006a56:	fa1f f38c 	uxth.w	r3, ip
 8006a5a:	eba3 030e 	sub.w	r3, r3, lr
 8006a5e:	4403      	add	r3, r0
 8006a60:	0c12      	lsrs	r2, r2, #16
 8006a62:	ebc2 4223 	rsb	r2, r2, r3, asr #16
 8006a66:	eb02 421c 	add.w	r2, r2, ip, lsr #16
 8006a6a:	b29b      	uxth	r3, r3
 8006a6c:	ea43 4302 	orr.w	r3, r3, r2, lsl #16
 8006a70:	45c1      	cmp	r9, r8
 8006a72:	f841 3b04 	str.w	r3, [r1], #4
 8006a76:	ea4f 4022 	mov.w	r0, r2, asr #16
 8006a7a:	d2e6      	bcs.n	8006a4a <quorem+0xa4>
 8006a7c:	f855 2024 	ldr.w	r2, [r5, r4, lsl #2]
 8006a80:	eb05 0384 	add.w	r3, r5, r4, lsl #2
 8006a84:	b922      	cbnz	r2, 8006a90 <quorem+0xea>
 8006a86:	3b04      	subs	r3, #4
 8006a88:	429d      	cmp	r5, r3
 8006a8a:	461a      	mov	r2, r3
 8006a8c:	d30b      	bcc.n	8006aa6 <quorem+0x100>
 8006a8e:	613c      	str	r4, [r7, #16]
 8006a90:	3601      	adds	r6, #1
 8006a92:	4630      	mov	r0, r6
 8006a94:	b003      	add	sp, #12
 8006a96:	e8bd 8ff0 	ldmia.w	sp!, {r4, r5, r6, r7, r8, r9, sl, fp, pc}
 8006a9a:	6812      	ldr	r2, [r2, #0]
 8006a9c:	3b04      	subs	r3, #4
 8006a9e:	2a00      	cmp	r2, #0
 8006aa0:	d1cb      	bne.n	8006a3a <quorem+0x94>
 8006aa2:	3c01      	subs	r4, #1
 8006aa4:	e7c6      	b.n	8006a34 <quorem+0x8e>
 8006aa6:	6812      	ldr	r2, [r2, #0]
 8006aa8:	3b04      	subs	r3, #4
 8006aaa:	2a00      	cmp	r2, #0
 8006aac:	d1ef      	bne.n	8006a8e <quorem+0xe8>
 8006aae:	3c01      	subs	r4, #1
 8006ab0:	e7ea      	b.n	8006a88 <quorem+0xe2>
 8006ab2:	2000      	movs	r0, #0
 8006ab4:	e7ee      	b.n	8006a94 <quorem+0xee>
	...

08006ab8 <_dtoa_r>:
 8006ab8:	e92d 4ff0 	stmdb	sp!, {r4, r5, r6, r7, r8, r9, sl, fp, lr}
 8006abc:	b099      	sub	sp, #100	@ 0x64
 8006abe:	ed8d 0b0e 	vstr	d0, [sp, #56]	@ 0x38
 8006ac2:	920c      	str	r2, [sp, #48]	@ 0x30
 8006ac4:	69c2      	ldr	r2, [r0, #28]
 8006ac6:	9c22      	ldr	r4, [sp, #136]	@ 0x88
 8006ac8:	910a      	str	r1, [sp, #40]	@ 0x28
 8006aca:	ec57 6b10 	vmov	r6, r7, d0
 8006ace:	4681      	mov	r9, r0
 8006ad0:	9313      	str	r3, [sp, #76]	@ 0x4c
 8006ad2:	b982      	cbnz	r2, 8006af6 <_dtoa_r+0x3e>
 8006ad4:	2010      	movs	r0, #16
 8006ad6:	f000 fe15 	bl	8007704 <malloc>
 8006ada:	4602      	mov	r2, r0
 8006adc:	f8c9 001c 	str.w	r0, [r9, #28]
 8006ae0:	b920      	cbnz	r0, 8006aec <_dtoa_r+0x34>
 8006ae2:	4bab      	ldr	r3, [pc, #684]	@ (8006d90 <_dtoa_r+0x2d8>)
 8006ae4:	21ef      	movs	r1, #239	@ 0xef
 8006ae6:	48ab      	ldr	r0, [pc, #684]	@ (8006d94 <_dtoa_r+0x2dc>)
 8006ae8:	f001 fc84 	bl	80083f4 <__assert_func>
 8006aec:	2300      	movs	r3, #0
 8006aee:	e9c0 3301 	strd	r3, r3, [r0, #4]
 8006af2:	6003      	str	r3, [r0, #0]
 8006af4:	60c3      	str	r3, [r0, #12]
 8006af6:	6811      	ldr	r1, [r2, #0]
 8006af8:	b159      	cbz	r1, 8006b12 <_dtoa_r+0x5a>
 8006afa:	6852      	ldr	r2, [r2, #4]
 8006afc:	604a      	str	r2, [r1, #4]
 8006afe:	2301      	movs	r3, #1
 8006b00:	4093      	lsls	r3, r2
 8006b02:	608b      	str	r3, [r1, #8]
 8006b04:	4648      	mov	r0, r9
 8006b06:	f000 fef1 	bl	80078ec <_Bfree>
 8006b0a:	f8d9 301c 	ldr.w	r3, [r9, #28]
 8006b0e:	2200      	movs	r2, #0
 8006b10:	601a      	str	r2, [r3, #0]
 8006b12:	f1b7 0800 	subs.w	r8, r7, #0
 8006b16:	bfb5      	itete	lt
 8006b18:	2301      	movlt	r3, #1
 8006b1a:	2300      	movge	r3, #0
 8006b1c:	6023      	strlt	r3, [r4, #0]
 8006b1e:	6023      	strge	r3, [r4, #0]
 8006b20:	4b9d      	ldr	r3, [pc, #628]	@ (8006d98 <_dtoa_r+0x2e0>)
 8006b22:	bfbc      	itt	lt
 8006b24:	f028 4800 	biclt.w	r8, r8, #2147483648	@ 0x80000000
 8006b28:	f8cd 803c 	strlt.w	r8, [sp, #60]	@ 0x3c
 8006b2c:	ea33 0308 	bics.w	r3, r3, r8
 8006b30:	d11a      	bne.n	8006b68 <_dtoa_r+0xb0>
 8006b32:	9a13      	ldr	r2, [sp, #76]	@ 0x4c
 8006b34:	f3c8 0813 	ubfx	r8, r8, #0, #20
 8006b38:	f242 730f 	movw	r3, #9999	@ 0x270f
 8006b3c:	ea58 0806 	orrs.w	r8, r8, r6
 8006b40:	6013      	str	r3, [r2, #0]
 8006b42:	f000 8568 	beq.w	8007616 <_dtoa_r+0xb5e>
 8006b46:	9b23      	ldr	r3, [sp, #140]	@ 0x8c
 8006b48:	b953      	cbnz	r3, 8006b60 <_dtoa_r+0xa8>
 8006b4a:	4b94      	ldr	r3, [pc, #592]	@ (8006d9c <_dtoa_r+0x2e4>)
 8006b4c:	e021      	b.n	8006b92 <_dtoa_r+0xda>
 8006b4e:	4b94      	ldr	r3, [pc, #592]	@ (8006da0 <_dtoa_r+0x2e8>)
 8006b50:	9300      	str	r3, [sp, #0]
 8006b52:	3308      	adds	r3, #8
 8006b54:	9a23      	ldr	r2, [sp, #140]	@ 0x8c
 8006b56:	6013      	str	r3, [r2, #0]
 8006b58:	9800      	ldr	r0, [sp, #0]
 8006b5a:	b019      	add	sp, #100	@ 0x64
 8006b5c:	e8bd 8ff0 	ldmia.w	sp!, {r4, r5, r6, r7, r8, r9, sl, fp, pc}
 8006b60:	4b8e      	ldr	r3, [pc, #568]	@ (8006d9c <_dtoa_r+0x2e4>)
 8006b62:	9300      	str	r3, [sp, #0]
 8006b64:	3303      	adds	r3, #3
 8006b66:	e7f5      	b.n	8006b54 <_dtoa_r+0x9c>
 8006b68:	ed9d 7b0e 	vldr	d7, [sp, #56]	@ 0x38
 8006b6c:	2200      	movs	r2, #0
 8006b6e:	ec51 0b17 	vmov	r0, r1, d7
 8006b72:	2300      	movs	r3, #0
 8006b74:	ed8d 7b06 	vstr	d7, [sp, #24]
 8006b78:	f7f9 ffa6 	bl	8000ac8 <__aeabi_dcmpeq>
 8006b7c:	4682      	mov	sl, r0
 8006b7e:	b150      	cbz	r0, 8006b96 <_dtoa_r+0xde>
 8006b80:	9a13      	ldr	r2, [sp, #76]	@ 0x4c
 8006b82:	2301      	movs	r3, #1
 8006b84:	6013      	str	r3, [r2, #0]
 8006b86:	9b23      	ldr	r3, [sp, #140]	@ 0x8c
 8006b88:	b113      	cbz	r3, 8006b90 <_dtoa_r+0xd8>
 8006b8a:	9a23      	ldr	r2, [sp, #140]	@ 0x8c
 8006b8c:	4b85      	ldr	r3, [pc, #532]	@ (8006da4 <_dtoa_r+0x2ec>)
 8006b8e:	6013      	str	r3, [r2, #0]
 8006b90:	4b85      	ldr	r3, [pc, #532]	@ (8006da8 <_dtoa_r+0x2f0>)
 8006b92:	9300      	str	r3, [sp, #0]
 8006b94:	e7e0      	b.n	8006b58 <_dtoa_r+0xa0>
 8006b96:	ed9d 0b06 	vldr	d0, [sp, #24]
 8006b9a:	aa16      	add	r2, sp, #88	@ 0x58
 8006b9c:	a917      	add	r1, sp, #92	@ 0x5c
 8006b9e:	4648      	mov	r0, r9
 8006ba0:	f001 f996 	bl	8007ed0 <__d2b>
 8006ba4:	ea5f 5418 	movs.w	r4, r8, lsr #20
 8006ba8:	9d16      	ldr	r5, [sp, #88]	@ 0x58
 8006baa:	9001      	str	r0, [sp, #4]
 8006bac:	d079      	beq.n	8006ca2 <_dtoa_r+0x1ea>
 8006bae:	9b07      	ldr	r3, [sp, #28]
 8006bb0:	f8cd a050 	str.w	sl, [sp, #80]	@ 0x50
 8006bb4:	f3c3 0313 	ubfx	r3, r3, #0, #20
 8006bb8:	e9dd 0106 	ldrd	r0, r1, [sp, #24]
 8006bbc:	f043 537f 	orr.w	r3, r3, #1069547520	@ 0x3fc00000
 8006bc0:	f443 1340 	orr.w	r3, r3, #3145728	@ 0x300000
 8006bc4:	f2a4 34ff 	subw	r4, r4, #1023	@ 0x3ff
 8006bc8:	4619      	mov	r1, r3
 8006bca:	2200      	movs	r2, #0
 8006bcc:	4b77      	ldr	r3, [pc, #476]	@ (8006dac <_dtoa_r+0x2f4>)
 8006bce:	f7f9 fb5b 	bl	8000288 <__aeabi_dsub>
 8006bd2:	a369      	add	r3, pc, #420	@ (adr r3, 8006d78 <_dtoa_r+0x2c0>)
 8006bd4:	e9d3 2300 	ldrd	r2, r3, [r3]
 8006bd8:	f7f9 fd0e 	bl	80005f8 <__aeabi_dmul>
 8006bdc:	a368      	add	r3, pc, #416	@ (adr r3, 8006d80 <_dtoa_r+0x2c8>)
 8006bde:	e9d3 2300 	ldrd	r2, r3, [r3]
 8006be2:	f7f9 fb53 	bl	800028c <__adddf3>
 8006be6:	4606      	mov	r6, r0
 8006be8:	4620      	mov	r0, r4
 8006bea:	460f      	mov	r7, r1
 8006bec:	f7f9 fc9a 	bl	8000524 <__aeabi_i2d>
 8006bf0:	a365      	add	r3, pc, #404	@ (adr r3, 8006d88 <_dtoa_r+0x2d0>)
 8006bf2:	e9d3 2300 	ldrd	r2, r3, [r3]
 8006bf6:	f7f9 fcff 	bl	80005f8 <__aeabi_dmul>
 8006bfa:	4602      	mov	r2, r0
 8006bfc:	460b      	mov	r3, r1
 8006bfe:	4630      	mov	r0, r6
 8006c00:	4639      	mov	r1, r7
 8006c02:	f7f9 fb43 	bl	800028c <__adddf3>
 8006c06:	4606      	mov	r6, r0
 8006c08:	460f      	mov	r7, r1
 8006c0a:	f7f9 ffa5 	bl	8000b58 <__aeabi_d2iz>
 8006c0e:	2200      	movs	r2, #0
 8006c10:	4680      	mov	r8, r0
 8006c12:	2300      	movs	r3, #0
 8006c14:	4630      	mov	r0, r6
 8006c16:	4639      	mov	r1, r7
 8006c18:	f7f9 ff60 	bl	8000adc <__aeabi_dcmplt>
 8006c1c:	b148      	cbz	r0, 8006c32 <_dtoa_r+0x17a>
 8006c1e:	4640      	mov	r0, r8
 8006c20:	f7f9 fc80 	bl	8000524 <__aeabi_i2d>
 8006c24:	4632      	mov	r2, r6
 8006c26:	463b      	mov	r3, r7
 8006c28:	f7f9 ff4e 	bl	8000ac8 <__aeabi_dcmpeq>
 8006c2c:	b908      	cbnz	r0, 8006c32 <_dtoa_r+0x17a>
 8006c2e:	f108 38ff 	add.w	r8, r8, #4294967295
 8006c32:	f1b8 0f16 	cmp.w	r8, #22
 8006c36:	d851      	bhi.n	8006cdc <_dtoa_r+0x224>
 8006c38:	4b5d      	ldr	r3, [pc, #372]	@ (8006db0 <_dtoa_r+0x2f8>)
 8006c3a:	eb03 03c8 	add.w	r3, r3, r8, lsl #3
 8006c3e:	e9d3 2300 	ldrd	r2, r3, [r3]
 8006c42:	e9dd 0106 	ldrd	r0, r1, [sp, #24]
 8006c46:	f7f9 ff49 	bl	8000adc <__aeabi_dcmplt>
 8006c4a:	2800      	cmp	r0, #0
 8006c4c:	d048      	beq.n	8006ce0 <_dtoa_r+0x228>
 8006c4e:	f108 38ff 	add.w	r8, r8, #4294967295
 8006c52:	2300      	movs	r3, #0
 8006c54:	9312      	str	r3, [sp, #72]	@ 0x48
 8006c56:	1b2d      	subs	r5, r5, r4
 8006c58:	1e6b      	subs	r3, r5, #1
 8006c5a:	9308      	str	r3, [sp, #32]
 8006c5c:	bf43      	ittte	mi
 8006c5e:	2300      	movmi	r3, #0
 8006c60:	f1c5 0701 	rsbmi	r7, r5, #1
 8006c64:	9308      	strmi	r3, [sp, #32]
 8006c66:	2700      	movpl	r7, #0
 8006c68:	f1b8 0f00 	cmp.w	r8, #0
 8006c6c:	db3a      	blt.n	8006ce4 <_dtoa_r+0x22c>
 8006c6e:	9b08      	ldr	r3, [sp, #32]
 8006c70:	f8cd 8034 	str.w	r8, [sp, #52]	@ 0x34
 8006c74:	4443      	add	r3, r8
 8006c76:	9308      	str	r3, [sp, #32]
 8006c78:	2300      	movs	r3, #0
 8006c7a:	9309      	str	r3, [sp, #36]	@ 0x24
 8006c7c:	9b0a      	ldr	r3, [sp, #40]	@ 0x28
 8006c7e:	2b09      	cmp	r3, #9
 8006c80:	d862      	bhi.n	8006d48 <_dtoa_r+0x290>
 8006c82:	2b05      	cmp	r3, #5
 8006c84:	bfc4      	itt	gt
 8006c86:	3b04      	subgt	r3, #4
 8006c88:	930a      	strgt	r3, [sp, #40]	@ 0x28
 8006c8a:	9b0a      	ldr	r3, [sp, #40]	@ 0x28
 8006c8c:	f1a3 0302 	sub.w	r3, r3, #2
 8006c90:	bfcc      	ite	gt
 8006c92:	2400      	movgt	r4, #0
 8006c94:	2401      	movle	r4, #1
 8006c96:	2b03      	cmp	r3, #3
 8006c98:	d862      	bhi.n	8006d60 <_dtoa_r+0x2a8>
 8006c9a:	e8df f003 	tbb	[pc, r3]
 8006c9e:	5351      	.short	0x5351
 8006ca0:	2b36      	.short	0x2b36
 8006ca2:	9c17      	ldr	r4, [sp, #92]	@ 0x5c
 8006ca4:	442c      	add	r4, r5
 8006ca6:	f204 4332 	addw	r3, r4, #1074	@ 0x432
 8006caa:	2b20      	cmp	r3, #32
 8006cac:	bfc1      	itttt	gt
 8006cae:	f1c3 0340 	rsbgt	r3, r3, #64	@ 0x40
 8006cb2:	fa08 f803 	lslgt.w	r8, r8, r3
 8006cb6:	f204 4312 	addwgt	r3, r4, #1042	@ 0x412
 8006cba:	fa26 f303 	lsrgt.w	r3, r6, r3
 8006cbe:	bfd6      	itet	le
 8006cc0:	f1c3 0320 	rsble	r3, r3, #32
 8006cc4:	ea48 0003 	orrgt.w	r0, r8, r3
 8006cc8:	fa06 f003 	lslle.w	r0, r6, r3
 8006ccc:	f7f9 fc1a 	bl	8000504 <__aeabi_ui2d>
 8006cd0:	2201      	movs	r2, #1
 8006cd2:	f1a1 73f8 	sub.w	r3, r1, #32505856	@ 0x1f00000
 8006cd6:	3c01      	subs	r4, #1
 8006cd8:	9214      	str	r2, [sp, #80]	@ 0x50
 8006cda:	e775      	b.n	8006bc8 <_dtoa_r+0x110>
 8006cdc:	2301      	movs	r3, #1
 8006cde:	e7b9      	b.n	8006c54 <_dtoa_r+0x19c>
 8006ce0:	9012      	str	r0, [sp, #72]	@ 0x48
 8006ce2:	e7b8      	b.n	8006c56 <_dtoa_r+0x19e>
 8006ce4:	f1c8 0300 	rsb	r3, r8, #0
 8006ce8:	9309      	str	r3, [sp, #36]	@ 0x24
 8006cea:	2300      	movs	r3, #0
 8006cec:	eba7 0708 	sub.w	r7, r7, r8
 8006cf0:	930d      	str	r3, [sp, #52]	@ 0x34
 8006cf2:	e7c3      	b.n	8006c7c <_dtoa_r+0x1c4>
 8006cf4:	2301      	movs	r3, #1
 8006cf6:	930b      	str	r3, [sp, #44]	@ 0x2c
 8006cf8:	9b0c      	ldr	r3, [sp, #48]	@ 0x30
 8006cfa:	4443      	add	r3, r8
 8006cfc:	9305      	str	r3, [sp, #20]
 8006cfe:	3301      	adds	r3, #1
 8006d00:	2b01      	cmp	r3, #1
 8006d02:	9304      	str	r3, [sp, #16]
 8006d04:	bfb8      	it	lt
 8006d06:	2301      	movlt	r3, #1
 8006d08:	e006      	b.n	8006d18 <_dtoa_r+0x260>
 8006d0a:	2301      	movs	r3, #1
 8006d0c:	930b      	str	r3, [sp, #44]	@ 0x2c
 8006d0e:	9b0c      	ldr	r3, [sp, #48]	@ 0x30
 8006d10:	2b00      	cmp	r3, #0
 8006d12:	dd28      	ble.n	8006d66 <_dtoa_r+0x2ae>
 8006d14:	e9cd 3304 	strd	r3, r3, [sp, #16]
 8006d18:	f8d9 001c 	ldr.w	r0, [r9, #28]
 8006d1c:	2100      	movs	r1, #0
 8006d1e:	2204      	movs	r2, #4
 8006d20:	f102 0514 	add.w	r5, r2, #20
 8006d24:	429d      	cmp	r5, r3
 8006d26:	d923      	bls.n	8006d70 <_dtoa_r+0x2b8>
 8006d28:	6041      	str	r1, [r0, #4]
 8006d2a:	4648      	mov	r0, r9
 8006d2c:	f000 fda0 	bl	8007870 <_Balloc>
 8006d30:	9000      	str	r0, [sp, #0]
 8006d32:	2800      	cmp	r0, #0
 8006d34:	d140      	bne.n	8006db8 <_dtoa_r+0x300>
 8006d36:	4b1f      	ldr	r3, [pc, #124]	@ (8006db4 <_dtoa_r+0x2fc>)
 8006d38:	4602      	mov	r2, r0
 8006d3a:	f240 11af 	movw	r1, #431	@ 0x1af
 8006d3e:	e6d2      	b.n	8006ae6 <_dtoa_r+0x2e>
 8006d40:	2300      	movs	r3, #0
 8006d42:	e7e3      	b.n	8006d0c <_dtoa_r+0x254>
 8006d44:	2300      	movs	r3, #0
 8006d46:	e7d6      	b.n	8006cf6 <_dtoa_r+0x23e>
 8006d48:	2401      	movs	r4, #1
 8006d4a:	2300      	movs	r3, #0
 8006d4c:	e9cd 340a 	strd	r3, r4, [sp, #40]	@ 0x28
 8006d50:	f04f 33ff 	mov.w	r3, #4294967295
 8006d54:	e9cd 3304 	strd	r3, r3, [sp, #16]
 8006d58:	2200      	movs	r2, #0
 8006d5a:	2312      	movs	r3, #18
 8006d5c:	920c      	str	r2, [sp, #48]	@ 0x30
 8006d5e:	e7db      	b.n	8006d18 <_dtoa_r+0x260>
 8006d60:	2301      	movs	r3, #1
 8006d62:	930b      	str	r3, [sp, #44]	@ 0x2c
 8006d64:	e7f4      	b.n	8006d50 <_dtoa_r+0x298>
 8006d66:	2301      	movs	r3, #1
 8006d68:	e9cd 3304 	strd	r3, r3, [sp, #16]
 8006d6c:	461a      	mov	r2, r3
 8006d6e:	e7f5      	b.n	8006d5c <_dtoa_r+0x2a4>
 8006d70:	3101      	adds	r1, #1
 8006d72:	0052      	lsls	r2, r2, #1
 8006d74:	e7d4      	b.n	8006d20 <_dtoa_r+0x268>
 8006d76:	bf00      	nop
 8006d78:	636f4361 	.word	0x636f4361
 8006d7c:	3fd287a7 	.word	0x3fd287a7
 8006d80:	8b60c8b3 	.word	0x8b60c8b3
 8006d84:	3fc68a28 	.word	0x3fc68a28
 8006d88:	509f79fb 	.word	0x509f79fb
 8006d8c:	3fd34413 	.word	0x3fd34413
 8006d90:	08008b39 	.word	0x08008b39
 8006d94:	08008b50 	.word	0x08008b50
 8006d98:	7ff00000 	.word	0x7ff00000
 8006d9c:	08008b35 	.word	0x08008b35
 8006da0:	08008b2c 	.word	0x08008b2c
 8006da4:	08008b09 	.word	0x08008b09
 8006da8:	08008b08 	.word	0x08008b08
 8006dac:	3ff80000 	.word	0x3ff80000
 8006db0:	08008ca0 	.word	0x08008ca0
 8006db4:	08008ba8 	.word	0x08008ba8
 8006db8:	f8d9 301c 	ldr.w	r3, [r9, #28]
 8006dbc:	9a00      	ldr	r2, [sp, #0]
 8006dbe:	601a      	str	r2, [r3, #0]
 8006dc0:	9b04      	ldr	r3, [sp, #16]
 8006dc2:	2b0e      	cmp	r3, #14
 8006dc4:	f200 80a1 	bhi.w	8006f0a <_dtoa_r+0x452>
 8006dc8:	2c00      	cmp	r4, #0
 8006dca:	f000 809e 	beq.w	8006f0a <_dtoa_r+0x452>
 8006dce:	f1b8 0f00 	cmp.w	r8, #0
 8006dd2:	dd36      	ble.n	8006e42 <_dtoa_r+0x38a>
 8006dd4:	4b9e      	ldr	r3, [pc, #632]	@ (8007050 <_dtoa_r+0x598>)
 8006dd6:	f008 020f 	and.w	r2, r8, #15
 8006dda:	eb03 03c2 	add.w	r3, r3, r2, lsl #3
 8006dde:	f418 7f80 	tst.w	r8, #256	@ 0x100
 8006de2:	e9d3 ab00 	ldrd	sl, fp, [r3]
 8006de6:	ea4f 1528 	mov.w	r5, r8, asr #4
 8006dea:	d016      	beq.n	8006e1a <_dtoa_r+0x362>
 8006dec:	4b99      	ldr	r3, [pc, #612]	@ (8007054 <_dtoa_r+0x59c>)
 8006dee:	e9dd 0106 	ldrd	r0, r1, [sp, #24]
 8006df2:	e9d3 2308 	ldrd	r2, r3, [r3, #32]
 8006df6:	f7f9 fd29 	bl	800084c <__aeabi_ddiv>
 8006dfa:	e9cd 0102 	strd	r0, r1, [sp, #8]
 8006dfe:	f005 050f 	and.w	r5, r5, #15
 8006e02:	2403      	movs	r4, #3
 8006e04:	4e93      	ldr	r6, [pc, #588]	@ (8007054 <_dtoa_r+0x59c>)
 8006e06:	b975      	cbnz	r5, 8006e26 <_dtoa_r+0x36e>
 8006e08:	e9dd 0102 	ldrd	r0, r1, [sp, #8]
 8006e0c:	4652      	mov	r2, sl
 8006e0e:	465b      	mov	r3, fp
 8006e10:	f7f9 fd1c 	bl	800084c <__aeabi_ddiv>
 8006e14:	4682      	mov	sl, r0
 8006e16:	468b      	mov	fp, r1
 8006e18:	e02d      	b.n	8006e76 <_dtoa_r+0x3be>
 8006e1a:	ed9d 7b06 	vldr	d7, [sp, #24]
 8006e1e:	2402      	movs	r4, #2
 8006e20:	ed8d 7b02 	vstr	d7, [sp, #8]
 8006e24:	e7ee      	b.n	8006e04 <_dtoa_r+0x34c>
 8006e26:	07e9      	lsls	r1, r5, #31
 8006e28:	d508      	bpl.n	8006e3c <_dtoa_r+0x384>
 8006e2a:	4650      	mov	r0, sl
 8006e2c:	4659      	mov	r1, fp
 8006e2e:	e9d6 2300 	ldrd	r2, r3, [r6]
 8006e32:	f7f9 fbe1 	bl	80005f8 <__aeabi_dmul>
 8006e36:	3401      	adds	r4, #1
 8006e38:	4682      	mov	sl, r0
 8006e3a:	468b      	mov	fp, r1
 8006e3c:	106d      	asrs	r5, r5, #1
 8006e3e:	3608      	adds	r6, #8
 8006e40:	e7e1      	b.n	8006e06 <_dtoa_r+0x34e>
 8006e42:	f000 80ad 	beq.w	8006fa0 <_dtoa_r+0x4e8>
 8006e46:	f1c8 0500 	rsb	r5, r8, #0
 8006e4a:	4b81      	ldr	r3, [pc, #516]	@ (8007050 <_dtoa_r+0x598>)
 8006e4c:	4e81      	ldr	r6, [pc, #516]	@ (8007054 <_dtoa_r+0x59c>)
 8006e4e:	f005 020f 	and.w	r2, r5, #15
 8006e52:	eb03 03c2 	add.w	r3, r3, r2, lsl #3
 8006e56:	e9d3 2300 	ldrd	r2, r3, [r3]
 8006e5a:	e9dd 0106 	ldrd	r0, r1, [sp, #24]
 8006e5e:	f7f9 fbcb 	bl	80005f8 <__aeabi_dmul>
 8006e62:	112d      	asrs	r5, r5, #4
 8006e64:	4682      	mov	sl, r0
 8006e66:	468b      	mov	fp, r1
 8006e68:	2300      	movs	r3, #0
 8006e6a:	2402      	movs	r4, #2
 8006e6c:	2d00      	cmp	r5, #0
 8006e6e:	f040 808c 	bne.w	8006f8a <_dtoa_r+0x4d2>
 8006e72:	2b00      	cmp	r3, #0
 8006e74:	d1ce      	bne.n	8006e14 <_dtoa_r+0x35c>
 8006e76:	9b12      	ldr	r3, [sp, #72]	@ 0x48
 8006e78:	2b00      	cmp	r3, #0
 8006e7a:	f000 8095 	beq.w	8006fa8 <_dtoa_r+0x4f0>
 8006e7e:	4b76      	ldr	r3, [pc, #472]	@ (8007058 <_dtoa_r+0x5a0>)
 8006e80:	2200      	movs	r2, #0
 8006e82:	4650      	mov	r0, sl
 8006e84:	4659      	mov	r1, fp
 8006e86:	f7f9 fe29 	bl	8000adc <__aeabi_dcmplt>
 8006e8a:	2800      	cmp	r0, #0
 8006e8c:	f000 808c 	beq.w	8006fa8 <_dtoa_r+0x4f0>
 8006e90:	9b04      	ldr	r3, [sp, #16]
 8006e92:	2b00      	cmp	r3, #0
 8006e94:	f000 8088 	beq.w	8006fa8 <_dtoa_r+0x4f0>
 8006e98:	9b05      	ldr	r3, [sp, #20]
 8006e9a:	2b00      	cmp	r3, #0
 8006e9c:	dd35      	ble.n	8006f0a <_dtoa_r+0x452>
 8006e9e:	f108 33ff 	add.w	r3, r8, #4294967295
 8006ea2:	9302      	str	r3, [sp, #8]
 8006ea4:	4650      	mov	r0, sl
 8006ea6:	4659      	mov	r1, fp
 8006ea8:	4b6c      	ldr	r3, [pc, #432]	@ (800705c <_dtoa_r+0x5a4>)
 8006eaa:	2200      	movs	r2, #0
 8006eac:	f7f9 fba4 	bl	80005f8 <__aeabi_dmul>
 8006eb0:	9e05      	ldr	r6, [sp, #20]
 8006eb2:	4682      	mov	sl, r0
 8006eb4:	468b      	mov	fp, r1
 8006eb6:	3401      	adds	r4, #1
 8006eb8:	4620      	mov	r0, r4
 8006eba:	f7f9 fb33 	bl	8000524 <__aeabi_i2d>
 8006ebe:	4652      	mov	r2, sl
 8006ec0:	465b      	mov	r3, fp
 8006ec2:	f7f9 fb99 	bl	80005f8 <__aeabi_dmul>
 8006ec6:	4b66      	ldr	r3, [pc, #408]	@ (8007060 <_dtoa_r+0x5a8>)
 8006ec8:	2200      	movs	r2, #0
 8006eca:	f7f9 f9df 	bl	800028c <__adddf3>
 8006ece:	4604      	mov	r4, r0
 8006ed0:	f1a1 7550 	sub.w	r5, r1, #54525952	@ 0x3400000
 8006ed4:	e9cd 4510 	strd	r4, r5, [sp, #64]	@ 0x40
 8006ed8:	2e00      	cmp	r6, #0
 8006eda:	d169      	bne.n	8006fb0 <_dtoa_r+0x4f8>
 8006edc:	4b61      	ldr	r3, [pc, #388]	@ (8007064 <_dtoa_r+0x5ac>)
 8006ede:	2200      	movs	r2, #0
 8006ee0:	4650      	mov	r0, sl
 8006ee2:	4659      	mov	r1, fp
 8006ee4:	f7f9 f9d0 	bl	8000288 <__aeabi_dsub>
 8006ee8:	4622      	mov	r2, r4
 8006eea:	462b      	mov	r3, r5
 8006eec:	4682      	mov	sl, r0
 8006eee:	468b      	mov	fp, r1
 8006ef0:	f7f9 fe12 	bl	8000b18 <__aeabi_dcmpgt>
 8006ef4:	2800      	cmp	r0, #0
 8006ef6:	f040 8294 	bne.w	8007422 <_dtoa_r+0x96a>
 8006efa:	4622      	mov	r2, r4
 8006efc:	f105 4300 	add.w	r3, r5, #2147483648	@ 0x80000000
 8006f00:	4650      	mov	r0, sl
 8006f02:	4659      	mov	r1, fp
 8006f04:	f7f9 fdea 	bl	8000adc <__aeabi_dcmplt>
 8006f08:	bb20      	cbnz	r0, 8006f54 <_dtoa_r+0x49c>
 8006f0a:	9b17      	ldr	r3, [sp, #92]	@ 0x5c
 8006f0c:	2b00      	cmp	r3, #0
 8006f0e:	f2c0 8160 	blt.w	80071d2 <_dtoa_r+0x71a>
 8006f12:	f1b8 0f0e 	cmp.w	r8, #14
 8006f16:	f300 815c 	bgt.w	80071d2 <_dtoa_r+0x71a>
 8006f1a:	4b4d      	ldr	r3, [pc, #308]	@ (8007050 <_dtoa_r+0x598>)
 8006f1c:	eb03 03c8 	add.w	r3, r3, r8, lsl #3
 8006f20:	e9d3 ab00 	ldrd	sl, fp, [r3]
 8006f24:	9b0c      	ldr	r3, [sp, #48]	@ 0x30
 8006f26:	2b00      	cmp	r3, #0
 8006f28:	f280 80ee 	bge.w	8007108 <_dtoa_r+0x650>
 8006f2c:	9b04      	ldr	r3, [sp, #16]
 8006f2e:	2b00      	cmp	r3, #0
 8006f30:	f300 80ea 	bgt.w	8007108 <_dtoa_r+0x650>
 8006f34:	d10e      	bne.n	8006f54 <_dtoa_r+0x49c>
 8006f36:	4b4b      	ldr	r3, [pc, #300]	@ (8007064 <_dtoa_r+0x5ac>)
 8006f38:	2200      	movs	r2, #0
 8006f3a:	4650      	mov	r0, sl
 8006f3c:	4659      	mov	r1, fp
 8006f3e:	f7f9 fb5b 	bl	80005f8 <__aeabi_dmul>
 8006f42:	4602      	mov	r2, r0
 8006f44:	460b      	mov	r3, r1
 8006f46:	e9dd 0106 	ldrd	r0, r1, [sp, #24]
 8006f4a:	f7f9 fdd1 	bl	8000af0 <__aeabi_dcmple>
 8006f4e:	2800      	cmp	r0, #0
 8006f50:	f000 826a 	beq.w	8007428 <_dtoa_r+0x970>
 8006f54:	2500      	movs	r5, #0
 8006f56:	462c      	mov	r4, r5
 8006f58:	9b0c      	ldr	r3, [sp, #48]	@ 0x30
 8006f5a:	9e00      	ldr	r6, [sp, #0]
 8006f5c:	43db      	mvns	r3, r3
 8006f5e:	9302      	str	r3, [sp, #8]
 8006f60:	4627      	mov	r7, r4
 8006f62:	2400      	movs	r4, #0
 8006f64:	4629      	mov	r1, r5
 8006f66:	4648      	mov	r0, r9
 8006f68:	f000 fcc0 	bl	80078ec <_Bfree>
 8006f6c:	2f00      	cmp	r7, #0
 8006f6e:	f000 80c1 	beq.w	80070f4 <_dtoa_r+0x63c>
 8006f72:	b12c      	cbz	r4, 8006f80 <_dtoa_r+0x4c8>
 8006f74:	42bc      	cmp	r4, r7
 8006f76:	d003      	beq.n	8006f80 <_dtoa_r+0x4c8>
 8006f78:	4621      	mov	r1, r4
 8006f7a:	4648      	mov	r0, r9
 8006f7c:	f000 fcb6 	bl	80078ec <_Bfree>
 8006f80:	4639      	mov	r1, r7
 8006f82:	4648      	mov	r0, r9
 8006f84:	f000 fcb2 	bl	80078ec <_Bfree>
 8006f88:	e0b4      	b.n	80070f4 <_dtoa_r+0x63c>
 8006f8a:	07ea      	lsls	r2, r5, #31
 8006f8c:	d505      	bpl.n	8006f9a <_dtoa_r+0x4e2>
 8006f8e:	e9d6 2300 	ldrd	r2, r3, [r6]
 8006f92:	f7f9 fb31 	bl	80005f8 <__aeabi_dmul>
 8006f96:	3401      	adds	r4, #1
 8006f98:	2301      	movs	r3, #1
 8006f9a:	106d      	asrs	r5, r5, #1
 8006f9c:	3608      	adds	r6, #8
 8006f9e:	e765      	b.n	8006e6c <_dtoa_r+0x3b4>
 8006fa0:	e9dd ab06 	ldrd	sl, fp, [sp, #24]
 8006fa4:	2402      	movs	r4, #2
 8006fa6:	e766      	b.n	8006e76 <_dtoa_r+0x3be>
 8006fa8:	9e04      	ldr	r6, [sp, #16]
 8006faa:	f8cd 8008 	str.w	r8, [sp, #8]
 8006fae:	e783      	b.n	8006eb8 <_dtoa_r+0x400>
 8006fb0:	4b27      	ldr	r3, [pc, #156]	@ (8007050 <_dtoa_r+0x598>)
 8006fb2:	eb03 03c6 	add.w	r3, r3, r6, lsl #3
 8006fb6:	e953 0102 	ldrd	r0, r1, [r3, #-8]
 8006fba:	9b0b      	ldr	r3, [sp, #44]	@ 0x2c
 8006fbc:	2b00      	cmp	r3, #0
 8006fbe:	d055      	beq.n	800706c <_dtoa_r+0x5b4>
 8006fc0:	4602      	mov	r2, r0
 8006fc2:	460b      	mov	r3, r1
 8006fc4:	2000      	movs	r0, #0
 8006fc6:	4928      	ldr	r1, [pc, #160]	@ (8007068 <_dtoa_r+0x5b0>)
 8006fc8:	f7f9 fc40 	bl	800084c <__aeabi_ddiv>
 8006fcc:	e9dd 2310 	ldrd	r2, r3, [sp, #64]	@ 0x40
 8006fd0:	f7f9 f95a 	bl	8000288 <__aeabi_dsub>
 8006fd4:	9b00      	ldr	r3, [sp, #0]
 8006fd6:	e9cd 0110 	strd	r0, r1, [sp, #64]	@ 0x40
 8006fda:	199d      	adds	r5, r3, r6
 8006fdc:	461e      	mov	r6, r3
 8006fde:	4659      	mov	r1, fp
 8006fe0:	4650      	mov	r0, sl
 8006fe2:	f7f9 fdb9 	bl	8000b58 <__aeabi_d2iz>
 8006fe6:	4604      	mov	r4, r0
 8006fe8:	f7f9 fa9c 	bl	8000524 <__aeabi_i2d>
 8006fec:	4602      	mov	r2, r0
 8006fee:	460b      	mov	r3, r1
 8006ff0:	4650      	mov	r0, sl
 8006ff2:	4659      	mov	r1, fp
 8006ff4:	f7f9 f948 	bl	8000288 <__aeabi_dsub>
 8006ff8:	3430      	adds	r4, #48	@ 0x30
 8006ffa:	e9dd 2310 	ldrd	r2, r3, [sp, #64]	@ 0x40
 8006ffe:	f806 4b01 	strb.w	r4, [r6], #1
 8007002:	4682      	mov	sl, r0
 8007004:	468b      	mov	fp, r1
 8007006:	f7f9 fd69 	bl	8000adc <__aeabi_dcmplt>
 800700a:	2800      	cmp	r0, #0
 800700c:	d172      	bne.n	80070f4 <_dtoa_r+0x63c>
 800700e:	4652      	mov	r2, sl
 8007010:	465b      	mov	r3, fp
 8007012:	4911      	ldr	r1, [pc, #68]	@ (8007058 <_dtoa_r+0x5a0>)
 8007014:	2000      	movs	r0, #0
 8007016:	f7f9 f937 	bl	8000288 <__aeabi_dsub>
 800701a:	e9dd 2310 	ldrd	r2, r3, [sp, #64]	@ 0x40
 800701e:	f7f9 fd5d 	bl	8000adc <__aeabi_dcmplt>
 8007022:	2800      	cmp	r0, #0
 8007024:	f040 80b6 	bne.w	8007194 <_dtoa_r+0x6dc>
 8007028:	42ae      	cmp	r6, r5
 800702a:	f43f af6e 	beq.w	8006f0a <_dtoa_r+0x452>
 800702e:	e9dd 0110 	ldrd	r0, r1, [sp, #64]	@ 0x40
 8007032:	4b0a      	ldr	r3, [pc, #40]	@ (800705c <_dtoa_r+0x5a4>)
 8007034:	2200      	movs	r2, #0
 8007036:	f7f9 fadf 	bl	80005f8 <__aeabi_dmul>
 800703a:	4b08      	ldr	r3, [pc, #32]	@ (800705c <_dtoa_r+0x5a4>)
 800703c:	e9cd 0110 	strd	r0, r1, [sp, #64]	@ 0x40
 8007040:	2200      	movs	r2, #0
 8007042:	4650      	mov	r0, sl
 8007044:	4659      	mov	r1, fp
 8007046:	f7f9 fad7 	bl	80005f8 <__aeabi_dmul>
 800704a:	4682      	mov	sl, r0
 800704c:	468b      	mov	fp, r1
 800704e:	e7c6      	b.n	8006fde <_dtoa_r+0x526>
 8007050:	08008ca0 	.word	0x08008ca0
 8007054:	08008c78 	.word	0x08008c78
 8007058:	3ff00000 	.word	0x3ff00000
 800705c:	40240000 	.word	0x40240000
 8007060:	401c0000 	.word	0x401c0000
 8007064:	40140000 	.word	0x40140000
 8007068:	3fe00000 	.word	0x3fe00000
 800706c:	e9dd 2310 	ldrd	r2, r3, [sp, #64]	@ 0x40
 8007070:	f7f9 fac2 	bl	80005f8 <__aeabi_dmul>
 8007074:	9b00      	ldr	r3, [sp, #0]
 8007076:	9d00      	ldr	r5, [sp, #0]
 8007078:	e9cd 0110 	strd	r0, r1, [sp, #64]	@ 0x40
 800707c:	4433      	add	r3, r6
 800707e:	9315      	str	r3, [sp, #84]	@ 0x54
 8007080:	4659      	mov	r1, fp
 8007082:	4650      	mov	r0, sl
 8007084:	f7f9 fd68 	bl	8000b58 <__aeabi_d2iz>
 8007088:	4604      	mov	r4, r0
 800708a:	f7f9 fa4b 	bl	8000524 <__aeabi_i2d>
 800708e:	3430      	adds	r4, #48	@ 0x30
 8007090:	460b      	mov	r3, r1
 8007092:	4602      	mov	r2, r0
 8007094:	4659      	mov	r1, fp
 8007096:	4650      	mov	r0, sl
 8007098:	f7f9 f8f6 	bl	8000288 <__aeabi_dsub>
 800709c:	f805 4b01 	strb.w	r4, [r5], #1
 80070a0:	9b15      	ldr	r3, [sp, #84]	@ 0x54
 80070a2:	429d      	cmp	r5, r3
 80070a4:	4682      	mov	sl, r0
 80070a6:	468b      	mov	fp, r1
 80070a8:	d127      	bne.n	80070fa <_dtoa_r+0x642>
 80070aa:	9b00      	ldr	r3, [sp, #0]
 80070ac:	2200      	movs	r2, #0
 80070ae:	e9dd 0110 	ldrd	r0, r1, [sp, #64]	@ 0x40
 80070b2:	441e      	add	r6, r3
 80070b4:	4bb3      	ldr	r3, [pc, #716]	@ (8007384 <_dtoa_r+0x8cc>)
 80070b6:	f7f9 f8e9 	bl	800028c <__adddf3>
 80070ba:	4602      	mov	r2, r0
 80070bc:	460b      	mov	r3, r1
 80070be:	4650      	mov	r0, sl
 80070c0:	4659      	mov	r1, fp
 80070c2:	f7f9 fd29 	bl	8000b18 <__aeabi_dcmpgt>
 80070c6:	2800      	cmp	r0, #0
 80070c8:	d164      	bne.n	8007194 <_dtoa_r+0x6dc>
 80070ca:	e9dd 2310 	ldrd	r2, r3, [sp, #64]	@ 0x40
 80070ce:	49ad      	ldr	r1, [pc, #692]	@ (8007384 <_dtoa_r+0x8cc>)
 80070d0:	2000      	movs	r0, #0
 80070d2:	f7f9 f8d9 	bl	8000288 <__aeabi_dsub>
 80070d6:	4602      	mov	r2, r0
 80070d8:	460b      	mov	r3, r1
 80070da:	4650      	mov	r0, sl
 80070dc:	4659      	mov	r1, fp
 80070de:	f7f9 fcfd 	bl	8000adc <__aeabi_dcmplt>
 80070e2:	2800      	cmp	r0, #0
 80070e4:	f43f af11 	beq.w	8006f0a <_dtoa_r+0x452>
 80070e8:	4633      	mov	r3, r6
 80070ea:	f816 2d01 	ldrb.w	r2, [r6, #-1]!
 80070ee:	2a30      	cmp	r2, #48	@ 0x30
 80070f0:	d0fa      	beq.n	80070e8 <_dtoa_r+0x630>
 80070f2:	461e      	mov	r6, r3
 80070f4:	f8dd 8008 	ldr.w	r8, [sp, #8]
 80070f8:	e03a      	b.n	8007170 <_dtoa_r+0x6b8>
 80070fa:	4ba3      	ldr	r3, [pc, #652]	@ (8007388 <_dtoa_r+0x8d0>)
 80070fc:	2200      	movs	r2, #0
 80070fe:	f7f9 fa7b 	bl	80005f8 <__aeabi_dmul>
 8007102:	4682      	mov	sl, r0
 8007104:	468b      	mov	fp, r1
 8007106:	e7bb      	b.n	8007080 <_dtoa_r+0x5c8>
 8007108:	9e00      	ldr	r6, [sp, #0]
 800710a:	4652      	mov	r2, sl
 800710c:	465b      	mov	r3, fp
 800710e:	e9dd 0106 	ldrd	r0, r1, [sp, #24]
 8007112:	f7f9 fb9b 	bl	800084c <__aeabi_ddiv>
 8007116:	f7f9 fd1f 	bl	8000b58 <__aeabi_d2iz>
 800711a:	4607      	mov	r7, r0
 800711c:	f7f9 fa02 	bl	8000524 <__aeabi_i2d>
 8007120:	4652      	mov	r2, sl
 8007122:	465b      	mov	r3, fp
 8007124:	f7f9 fa68 	bl	80005f8 <__aeabi_dmul>
 8007128:	4602      	mov	r2, r0
 800712a:	460b      	mov	r3, r1
 800712c:	e9dd 0106 	ldrd	r0, r1, [sp, #24]
 8007130:	f7f9 f8aa 	bl	8000288 <__aeabi_dsub>
 8007134:	f107 0c30 	add.w	ip, r7, #48	@ 0x30
 8007138:	9c00      	ldr	r4, [sp, #0]
 800713a:	f806 cb01 	strb.w	ip, [r6], #1
 800713e:	eba6 0c04 	sub.w	ip, r6, r4
 8007142:	9c04      	ldr	r4, [sp, #16]
 8007144:	4564      	cmp	r4, ip
 8007146:	4602      	mov	r2, r0
 8007148:	460b      	mov	r3, r1
 800714a:	d133      	bne.n	80071b4 <_dtoa_r+0x6fc>
 800714c:	f7f9 f89e 	bl	800028c <__adddf3>
 8007150:	4652      	mov	r2, sl
 8007152:	465b      	mov	r3, fp
 8007154:	4604      	mov	r4, r0
 8007156:	460d      	mov	r5, r1
 8007158:	f7f9 fcde 	bl	8000b18 <__aeabi_dcmpgt>
 800715c:	b9c0      	cbnz	r0, 8007190 <_dtoa_r+0x6d8>
 800715e:	4652      	mov	r2, sl
 8007160:	465b      	mov	r3, fp
 8007162:	4620      	mov	r0, r4
 8007164:	4629      	mov	r1, r5
 8007166:	f7f9 fcaf 	bl	8000ac8 <__aeabi_dcmpeq>
 800716a:	b108      	cbz	r0, 8007170 <_dtoa_r+0x6b8>
 800716c:	07fb      	lsls	r3, r7, #31
 800716e:	d40f      	bmi.n	8007190 <_dtoa_r+0x6d8>
 8007170:	9901      	ldr	r1, [sp, #4]
 8007172:	4648      	mov	r0, r9
 8007174:	f000 fbba 	bl	80078ec <_Bfree>
 8007178:	2300      	movs	r3, #0
 800717a:	9a13      	ldr	r2, [sp, #76]	@ 0x4c
 800717c:	7033      	strb	r3, [r6, #0]
 800717e:	f108 0301 	add.w	r3, r8, #1
 8007182:	6013      	str	r3, [r2, #0]
 8007184:	9b23      	ldr	r3, [sp, #140]	@ 0x8c
 8007186:	2b00      	cmp	r3, #0
 8007188:	f43f ace6 	beq.w	8006b58 <_dtoa_r+0xa0>
 800718c:	601e      	str	r6, [r3, #0]
 800718e:	e4e3      	b.n	8006b58 <_dtoa_r+0xa0>
 8007190:	f8cd 8008 	str.w	r8, [sp, #8]
 8007194:	4633      	mov	r3, r6
 8007196:	461e      	mov	r6, r3
 8007198:	f813 2d01 	ldrb.w	r2, [r3, #-1]!
 800719c:	2a39      	cmp	r2, #57	@ 0x39
 800719e:	d106      	bne.n	80071ae <_dtoa_r+0x6f6>
 80071a0:	9a00      	ldr	r2, [sp, #0]
 80071a2:	429a      	cmp	r2, r3
 80071a4:	d1f7      	bne.n	8007196 <_dtoa_r+0x6de>
 80071a6:	9a02      	ldr	r2, [sp, #8]
 80071a8:	3201      	adds	r2, #1
 80071aa:	9202      	str	r2, [sp, #8]
 80071ac:	2230      	movs	r2, #48	@ 0x30
 80071ae:	3201      	adds	r2, #1
 80071b0:	701a      	strb	r2, [r3, #0]
 80071b2:	e79f      	b.n	80070f4 <_dtoa_r+0x63c>
 80071b4:	4b74      	ldr	r3, [pc, #464]	@ (8007388 <_dtoa_r+0x8d0>)
 80071b6:	2200      	movs	r2, #0
 80071b8:	f7f9 fa1e 	bl	80005f8 <__aeabi_dmul>
 80071bc:	4602      	mov	r2, r0
 80071be:	460b      	mov	r3, r1
 80071c0:	e9cd 2306 	strd	r2, r3, [sp, #24]
 80071c4:	2200      	movs	r2, #0
 80071c6:	2300      	movs	r3, #0
 80071c8:	f7f9 fc7e 	bl	8000ac8 <__aeabi_dcmpeq>
 80071cc:	2800      	cmp	r0, #0
 80071ce:	d09c      	beq.n	800710a <_dtoa_r+0x652>
 80071d0:	e7ce      	b.n	8007170 <_dtoa_r+0x6b8>
 80071d2:	9a0b      	ldr	r2, [sp, #44]	@ 0x2c
 80071d4:	2a00      	cmp	r2, #0
 80071d6:	f000 80e3 	beq.w	80073a0 <_dtoa_r+0x8e8>
 80071da:	9a0a      	ldr	r2, [sp, #40]	@ 0x28
 80071dc:	2a01      	cmp	r2, #1
 80071de:	f300 80c2 	bgt.w	8007366 <_dtoa_r+0x8ae>
 80071e2:	9a14      	ldr	r2, [sp, #80]	@ 0x50
 80071e4:	2a00      	cmp	r2, #0
 80071e6:	f000 80ba 	beq.w	800735e <_dtoa_r+0x8a6>
 80071ea:	f203 4333 	addw	r3, r3, #1075	@ 0x433
 80071ee:	9d09      	ldr	r5, [sp, #36]	@ 0x24
 80071f0:	463e      	mov	r6, r7
 80071f2:	9a08      	ldr	r2, [sp, #32]
 80071f4:	2101      	movs	r1, #1
 80071f6:	441a      	add	r2, r3
 80071f8:	4648      	mov	r0, r9
 80071fa:	441f      	add	r7, r3
 80071fc:	9208      	str	r2, [sp, #32]
 80071fe:	f000 fc29 	bl	8007a54 <__i2b>
 8007202:	4604      	mov	r4, r0
 8007204:	b156      	cbz	r6, 800721c <_dtoa_r+0x764>
 8007206:	9b08      	ldr	r3, [sp, #32]
 8007208:	2b00      	cmp	r3, #0
 800720a:	dd07      	ble.n	800721c <_dtoa_r+0x764>
 800720c:	42b3      	cmp	r3, r6
 800720e:	9a08      	ldr	r2, [sp, #32]
 8007210:	bfa8      	it	ge
 8007212:	4633      	movge	r3, r6
 8007214:	1aff      	subs	r7, r7, r3
 8007216:	1af6      	subs	r6, r6, r3
 8007218:	1ad3      	subs	r3, r2, r3
 800721a:	9308      	str	r3, [sp, #32]
 800721c:	9b09      	ldr	r3, [sp, #36]	@ 0x24
 800721e:	b30b      	cbz	r3, 8007264 <_dtoa_r+0x7ac>
 8007220:	9b0b      	ldr	r3, [sp, #44]	@ 0x2c
 8007222:	2b00      	cmp	r3, #0
 8007224:	f000 80c3 	beq.w	80073ae <_dtoa_r+0x8f6>
 8007228:	2d00      	cmp	r5, #0
 800722a:	f000 80bd 	beq.w	80073a8 <_dtoa_r+0x8f0>
 800722e:	4621      	mov	r1, r4
 8007230:	462a      	mov	r2, r5
 8007232:	4648      	mov	r0, r9
 8007234:	f000 fcce 	bl	8007bd4 <__pow5mult>
 8007238:	9a01      	ldr	r2, [sp, #4]
 800723a:	4601      	mov	r1, r0
 800723c:	4604      	mov	r4, r0
 800723e:	4648      	mov	r0, r9
 8007240:	f000 fc1e 	bl	8007a80 <__multiply>
 8007244:	9901      	ldr	r1, [sp, #4]
 8007246:	4682      	mov	sl, r0
 8007248:	4648      	mov	r0, r9
 800724a:	f000 fb4f 	bl	80078ec <_Bfree>
 800724e:	9b09      	ldr	r3, [sp, #36]	@ 0x24
 8007250:	1b5b      	subs	r3, r3, r5
 8007252:	9309      	str	r3, [sp, #36]	@ 0x24
 8007254:	f000 80ae 	beq.w	80073b4 <_dtoa_r+0x8fc>
 8007258:	9a09      	ldr	r2, [sp, #36]	@ 0x24
 800725a:	4651      	mov	r1, sl
 800725c:	4648      	mov	r0, r9
 800725e:	f000 fcb9 	bl	8007bd4 <__pow5mult>
 8007262:	9001      	str	r0, [sp, #4]
 8007264:	2101      	movs	r1, #1
 8007266:	4648      	mov	r0, r9
 8007268:	f000 fbf4 	bl	8007a54 <__i2b>
 800726c:	9b0d      	ldr	r3, [sp, #52]	@ 0x34
 800726e:	4605      	mov	r5, r0
 8007270:	2b00      	cmp	r3, #0
 8007272:	f000 81d7 	beq.w	8007624 <_dtoa_r+0xb6c>
 8007276:	461a      	mov	r2, r3
 8007278:	4601      	mov	r1, r0
 800727a:	4648      	mov	r0, r9
 800727c:	f000 fcaa 	bl	8007bd4 <__pow5mult>
 8007280:	9b0a      	ldr	r3, [sp, #40]	@ 0x28
 8007282:	2b01      	cmp	r3, #1
 8007284:	4605      	mov	r5, r0
 8007286:	f300 809d 	bgt.w	80073c4 <_dtoa_r+0x90c>
 800728a:	9b0e      	ldr	r3, [sp, #56]	@ 0x38
 800728c:	2b00      	cmp	r3, #0
 800728e:	f040 8094 	bne.w	80073ba <_dtoa_r+0x902>
 8007292:	9b0f      	ldr	r3, [sp, #60]	@ 0x3c
 8007294:	f3c3 0313 	ubfx	r3, r3, #0, #20
 8007298:	2b00      	cmp	r3, #0
 800729a:	f040 808e 	bne.w	80073ba <_dtoa_r+0x902>
 800729e:	9b0f      	ldr	r3, [sp, #60]	@ 0x3c
 80072a0:	f023 4300 	bic.w	r3, r3, #2147483648	@ 0x80000000
 80072a4:	0d1b      	lsrs	r3, r3, #20
 80072a6:	051b      	lsls	r3, r3, #20
 80072a8:	2b00      	cmp	r3, #0
 80072aa:	f000 8089 	beq.w	80073c0 <_dtoa_r+0x908>
 80072ae:	9b08      	ldr	r3, [sp, #32]
 80072b0:	3301      	adds	r3, #1
 80072b2:	3701      	adds	r7, #1
 80072b4:	9308      	str	r3, [sp, #32]
 80072b6:	f04f 0a01 	mov.w	sl, #1
 80072ba:	9b0d      	ldr	r3, [sp, #52]	@ 0x34
 80072bc:	2b00      	cmp	r3, #0
 80072be:	f000 81b7 	beq.w	8007630 <_dtoa_r+0xb78>
 80072c2:	692b      	ldr	r3, [r5, #16]
 80072c4:	eb05 0383 	add.w	r3, r5, r3, lsl #2
 80072c8:	6918      	ldr	r0, [r3, #16]
 80072ca:	f000 fb77 	bl	80079bc <__hi0bits>
 80072ce:	f1c0 0020 	rsb	r0, r0, #32
 80072d2:	9b08      	ldr	r3, [sp, #32]
 80072d4:	4418      	add	r0, r3
 80072d6:	f010 001f 	ands.w	r0, r0, #31
 80072da:	d07e      	beq.n	80073da <_dtoa_r+0x922>
 80072dc:	f1c0 0320 	rsb	r3, r0, #32
 80072e0:	2b04      	cmp	r3, #4
 80072e2:	dd72      	ble.n	80073ca <_dtoa_r+0x912>
 80072e4:	9b08      	ldr	r3, [sp, #32]
 80072e6:	f1c0 001c 	rsb	r0, r0, #28
 80072ea:	4403      	add	r3, r0
 80072ec:	4407      	add	r7, r0
 80072ee:	4406      	add	r6, r0
 80072f0:	9308      	str	r3, [sp, #32]
 80072f2:	2f00      	cmp	r7, #0
 80072f4:	dd05      	ble.n	8007302 <_dtoa_r+0x84a>
 80072f6:	9901      	ldr	r1, [sp, #4]
 80072f8:	463a      	mov	r2, r7
 80072fa:	4648      	mov	r0, r9
 80072fc:	f000 fcc6 	bl	8007c8c <__lshift>
 8007300:	9001      	str	r0, [sp, #4]
 8007302:	9b08      	ldr	r3, [sp, #32]
 8007304:	2b00      	cmp	r3, #0
 8007306:	dd05      	ble.n	8007314 <_dtoa_r+0x85c>
 8007308:	4629      	mov	r1, r5
 800730a:	461a      	mov	r2, r3
 800730c:	4648      	mov	r0, r9
 800730e:	f000 fcbd 	bl	8007c8c <__lshift>
 8007312:	4605      	mov	r5, r0
 8007314:	9b12      	ldr	r3, [sp, #72]	@ 0x48
 8007316:	2b00      	cmp	r3, #0
 8007318:	d061      	beq.n	80073de <_dtoa_r+0x926>
 800731a:	9801      	ldr	r0, [sp, #4]
 800731c:	4629      	mov	r1, r5
 800731e:	f000 fd23 	bl	8007d68 <__mcmp>
 8007322:	2800      	cmp	r0, #0
 8007324:	da5b      	bge.n	80073de <_dtoa_r+0x926>
 8007326:	f108 33ff 	add.w	r3, r8, #4294967295
 800732a:	9302      	str	r3, [sp, #8]
 800732c:	9901      	ldr	r1, [sp, #4]
 800732e:	2300      	movs	r3, #0
 8007330:	220a      	movs	r2, #10
 8007332:	4648      	mov	r0, r9
 8007334:	f000 fafc 	bl	8007930 <__multadd>
 8007338:	9b0b      	ldr	r3, [sp, #44]	@ 0x2c
 800733a:	9001      	str	r0, [sp, #4]
 800733c:	2b00      	cmp	r3, #0
 800733e:	f000 8179 	beq.w	8007634 <_dtoa_r+0xb7c>
 8007342:	2300      	movs	r3, #0
 8007344:	4621      	mov	r1, r4
 8007346:	220a      	movs	r2, #10
 8007348:	4648      	mov	r0, r9
 800734a:	f000 faf1 	bl	8007930 <__multadd>
 800734e:	9b05      	ldr	r3, [sp, #20]
 8007350:	2b00      	cmp	r3, #0
 8007352:	4604      	mov	r4, r0
 8007354:	dc72      	bgt.n	800743c <_dtoa_r+0x984>
 8007356:	9b0a      	ldr	r3, [sp, #40]	@ 0x28
 8007358:	2b02      	cmp	r3, #2
 800735a:	dc49      	bgt.n	80073f0 <_dtoa_r+0x938>
 800735c:	e06e      	b.n	800743c <_dtoa_r+0x984>
 800735e:	9b16      	ldr	r3, [sp, #88]	@ 0x58
 8007360:	f1c3 0336 	rsb	r3, r3, #54	@ 0x36
 8007364:	e743      	b.n	80071ee <_dtoa_r+0x736>
 8007366:	9b04      	ldr	r3, [sp, #16]
 8007368:	1e5d      	subs	r5, r3, #1
 800736a:	9b09      	ldr	r3, [sp, #36]	@ 0x24
 800736c:	42ab      	cmp	r3, r5
 800736e:	db0d      	blt.n	800738c <_dtoa_r+0x8d4>
 8007370:	1b5d      	subs	r5, r3, r5
 8007372:	9b04      	ldr	r3, [sp, #16]
 8007374:	2b00      	cmp	r3, #0
 8007376:	f6bf af3b 	bge.w	80071f0 <_dtoa_r+0x738>
 800737a:	9b04      	ldr	r3, [sp, #16]
 800737c:	1afe      	subs	r6, r7, r3
 800737e:	2300      	movs	r3, #0
 8007380:	e737      	b.n	80071f2 <_dtoa_r+0x73a>
 8007382:	bf00      	nop
 8007384:	3fe00000 	.word	0x3fe00000
 8007388:	40240000 	.word	0x40240000
 800738c:	9b09      	ldr	r3, [sp, #36]	@ 0x24
 800738e:	9a0d      	ldr	r2, [sp, #52]	@ 0x34
 8007390:	9509      	str	r5, [sp, #36]	@ 0x24
 8007392:	1aeb      	subs	r3, r5, r3
 8007394:	441a      	add	r2, r3
 8007396:	920d      	str	r2, [sp, #52]	@ 0x34
 8007398:	9b04      	ldr	r3, [sp, #16]
 800739a:	463e      	mov	r6, r7
 800739c:	2500      	movs	r5, #0
 800739e:	e728      	b.n	80071f2 <_dtoa_r+0x73a>
 80073a0:	9d09      	ldr	r5, [sp, #36]	@ 0x24
 80073a2:	9c0b      	ldr	r4, [sp, #44]	@ 0x2c
 80073a4:	463e      	mov	r6, r7
 80073a6:	e72d      	b.n	8007204 <_dtoa_r+0x74c>
 80073a8:	f8dd a004 	ldr.w	sl, [sp, #4]
 80073ac:	e754      	b.n	8007258 <_dtoa_r+0x7a0>
 80073ae:	9a09      	ldr	r2, [sp, #36]	@ 0x24
 80073b0:	9901      	ldr	r1, [sp, #4]
 80073b2:	e753      	b.n	800725c <_dtoa_r+0x7a4>
 80073b4:	f8cd a004 	str.w	sl, [sp, #4]
 80073b8:	e754      	b.n	8007264 <_dtoa_r+0x7ac>
 80073ba:	f04f 0a00 	mov.w	sl, #0
 80073be:	e77c      	b.n	80072ba <_dtoa_r+0x802>
 80073c0:	469a      	mov	sl, r3
 80073c2:	e77a      	b.n	80072ba <_dtoa_r+0x802>
 80073c4:	f04f 0a00 	mov.w	sl, #0
 80073c8:	e77b      	b.n	80072c2 <_dtoa_r+0x80a>
 80073ca:	d092      	beq.n	80072f2 <_dtoa_r+0x83a>
 80073cc:	9a08      	ldr	r2, [sp, #32]
 80073ce:	331c      	adds	r3, #28
 80073d0:	441a      	add	r2, r3
 80073d2:	441f      	add	r7, r3
 80073d4:	441e      	add	r6, r3
 80073d6:	9208      	str	r2, [sp, #32]
 80073d8:	e78b      	b.n	80072f2 <_dtoa_r+0x83a>
 80073da:	4603      	mov	r3, r0
 80073dc:	e7f6      	b.n	80073cc <_dtoa_r+0x914>
 80073de:	9b04      	ldr	r3, [sp, #16]
 80073e0:	f8cd 8008 	str.w	r8, [sp, #8]
 80073e4:	2b00      	cmp	r3, #0
 80073e6:	dc23      	bgt.n	8007430 <_dtoa_r+0x978>
 80073e8:	9305      	str	r3, [sp, #20]
 80073ea:	9b0a      	ldr	r3, [sp, #40]	@ 0x28
 80073ec:	2b02      	cmp	r3, #2
 80073ee:	dd21      	ble.n	8007434 <_dtoa_r+0x97c>
 80073f0:	9b05      	ldr	r3, [sp, #20]
 80073f2:	2b00      	cmp	r3, #0
 80073f4:	f47f adb0 	bne.w	8006f58 <_dtoa_r+0x4a0>
 80073f8:	4629      	mov	r1, r5
 80073fa:	2205      	movs	r2, #5
 80073fc:	4648      	mov	r0, r9
 80073fe:	f000 fa97 	bl	8007930 <__multadd>
 8007402:	4601      	mov	r1, r0
 8007404:	4605      	mov	r5, r0
 8007406:	9801      	ldr	r0, [sp, #4]
 8007408:	f000 fcae 	bl	8007d68 <__mcmp>
 800740c:	2800      	cmp	r0, #0
 800740e:	f77f ada3 	ble.w	8006f58 <_dtoa_r+0x4a0>
 8007412:	9e00      	ldr	r6, [sp, #0]
 8007414:	2331      	movs	r3, #49	@ 0x31
 8007416:	f806 3b01 	strb.w	r3, [r6], #1
 800741a:	9b02      	ldr	r3, [sp, #8]
 800741c:	3301      	adds	r3, #1
 800741e:	9302      	str	r3, [sp, #8]
 8007420:	e59e      	b.n	8006f60 <_dtoa_r+0x4a8>
 8007422:	4635      	mov	r5, r6
 8007424:	462c      	mov	r4, r5
 8007426:	e7f4      	b.n	8007412 <_dtoa_r+0x95a>
 8007428:	9d04      	ldr	r5, [sp, #16]
 800742a:	f8cd 8008 	str.w	r8, [sp, #8]
 800742e:	e7f9      	b.n	8007424 <_dtoa_r+0x96c>
 8007430:	9b04      	ldr	r3, [sp, #16]
 8007432:	9305      	str	r3, [sp, #20]
 8007434:	9b0b      	ldr	r3, [sp, #44]	@ 0x2c
 8007436:	2b00      	cmp	r3, #0
 8007438:	f000 8100 	beq.w	800763c <_dtoa_r+0xb84>
 800743c:	2e00      	cmp	r6, #0
 800743e:	dd05      	ble.n	800744c <_dtoa_r+0x994>
 8007440:	4621      	mov	r1, r4
 8007442:	4632      	mov	r2, r6
 8007444:	4648      	mov	r0, r9
 8007446:	f000 fc21 	bl	8007c8c <__lshift>
 800744a:	4604      	mov	r4, r0
 800744c:	f1ba 0f00 	cmp.w	sl, #0
 8007450:	d05a      	beq.n	8007508 <_dtoa_r+0xa50>
 8007452:	6861      	ldr	r1, [r4, #4]
 8007454:	4648      	mov	r0, r9
 8007456:	f000 fa0b 	bl	8007870 <_Balloc>
 800745a:	4606      	mov	r6, r0
 800745c:	b928      	cbnz	r0, 800746a <_dtoa_r+0x9b2>
 800745e:	4b82      	ldr	r3, [pc, #520]	@ (8007668 <_dtoa_r+0xbb0>)
 8007460:	4602      	mov	r2, r0
 8007462:	f240 21ef 	movw	r1, #751	@ 0x2ef
 8007466:	f7ff bb3e 	b.w	8006ae6 <_dtoa_r+0x2e>
 800746a:	6922      	ldr	r2, [r4, #16]
 800746c:	3202      	adds	r2, #2
 800746e:	0092      	lsls	r2, r2, #2
 8007470:	f104 010c 	add.w	r1, r4, #12
 8007474:	300c      	adds	r0, #12
 8007476:	f000 ffaf 	bl	80083d8 <memcpy>
 800747a:	2201      	movs	r2, #1
 800747c:	4631      	mov	r1, r6
 800747e:	4648      	mov	r0, r9
 8007480:	f000 fc04 	bl	8007c8c <__lshift>
 8007484:	4607      	mov	r7, r0
 8007486:	9b00      	ldr	r3, [sp, #0]
 8007488:	9a00      	ldr	r2, [sp, #0]
 800748a:	f103 0b01 	add.w	fp, r3, #1
 800748e:	9b05      	ldr	r3, [sp, #20]
 8007490:	4413      	add	r3, r2
 8007492:	9306      	str	r3, [sp, #24]
 8007494:	9b0e      	ldr	r3, [sp, #56]	@ 0x38
 8007496:	f003 0301 	and.w	r3, r3, #1
 800749a:	9308      	str	r3, [sp, #32]
 800749c:	f10b 33ff 	add.w	r3, fp, #4294967295
 80074a0:	4629      	mov	r1, r5
 80074a2:	9801      	ldr	r0, [sp, #4]
 80074a4:	9304      	str	r3, [sp, #16]
 80074a6:	f7ff fa7e 	bl	80069a6 <quorem>
 80074aa:	4621      	mov	r1, r4
 80074ac:	9005      	str	r0, [sp, #20]
 80074ae:	f100 0a30 	add.w	sl, r0, #48	@ 0x30
 80074b2:	9801      	ldr	r0, [sp, #4]
 80074b4:	f000 fc58 	bl	8007d68 <__mcmp>
 80074b8:	463a      	mov	r2, r7
 80074ba:	4680      	mov	r8, r0
 80074bc:	4629      	mov	r1, r5
 80074be:	4648      	mov	r0, r9
 80074c0:	f000 fc6e 	bl	8007da0 <__mdiff>
 80074c4:	68c2      	ldr	r2, [r0, #12]
 80074c6:	4606      	mov	r6, r0
 80074c8:	bb02      	cbnz	r2, 800750c <_dtoa_r+0xa54>
 80074ca:	4601      	mov	r1, r0
 80074cc:	9801      	ldr	r0, [sp, #4]
 80074ce:	f000 fc4b 	bl	8007d68 <__mcmp>
 80074d2:	4602      	mov	r2, r0
 80074d4:	4631      	mov	r1, r6
 80074d6:	4648      	mov	r0, r9
 80074d8:	9209      	str	r2, [sp, #36]	@ 0x24
 80074da:	f000 fa07 	bl	80078ec <_Bfree>
 80074de:	e9dd 2309 	ldrd	r2, r3, [sp, #36]	@ 0x24
 80074e2:	ea42 0103 	orr.w	r1, r2, r3
 80074e6:	9b08      	ldr	r3, [sp, #32]
 80074e8:	4319      	orrs	r1, r3
 80074ea:	465e      	mov	r6, fp
 80074ec:	d110      	bne.n	8007510 <_dtoa_r+0xa58>
 80074ee:	f1ba 0f39 	cmp.w	sl, #57	@ 0x39
 80074f2:	d02b      	beq.n	800754c <_dtoa_r+0xa94>
 80074f4:	f1b8 0f00 	cmp.w	r8, #0
 80074f8:	dd02      	ble.n	8007500 <_dtoa_r+0xa48>
 80074fa:	9b05      	ldr	r3, [sp, #20]
 80074fc:	f103 0a31 	add.w	sl, r3, #49	@ 0x31
 8007500:	9b04      	ldr	r3, [sp, #16]
 8007502:	f883 a000 	strb.w	sl, [r3]
 8007506:	e52d      	b.n	8006f64 <_dtoa_r+0x4ac>
 8007508:	4627      	mov	r7, r4
 800750a:	e7bc      	b.n	8007486 <_dtoa_r+0x9ce>
 800750c:	2201      	movs	r2, #1
 800750e:	e7e1      	b.n	80074d4 <_dtoa_r+0xa1c>
 8007510:	f1b8 0f00 	cmp.w	r8, #0
 8007514:	db06      	blt.n	8007524 <_dtoa_r+0xa6c>
 8007516:	9b0a      	ldr	r3, [sp, #40]	@ 0x28
 8007518:	ea48 0803 	orr.w	r8, r8, r3
 800751c:	9b08      	ldr	r3, [sp, #32]
 800751e:	ea58 0803 	orrs.w	r8, r8, r3
 8007522:	d120      	bne.n	8007566 <_dtoa_r+0xaae>
 8007524:	2a00      	cmp	r2, #0
 8007526:	ddeb      	ble.n	8007500 <_dtoa_r+0xa48>
 8007528:	9901      	ldr	r1, [sp, #4]
 800752a:	2201      	movs	r2, #1
 800752c:	4648      	mov	r0, r9
 800752e:	f000 fbad 	bl	8007c8c <__lshift>
 8007532:	4629      	mov	r1, r5
 8007534:	9001      	str	r0, [sp, #4]
 8007536:	f000 fc17 	bl	8007d68 <__mcmp>
 800753a:	2800      	cmp	r0, #0
 800753c:	dc03      	bgt.n	8007546 <_dtoa_r+0xa8e>
 800753e:	d1df      	bne.n	8007500 <_dtoa_r+0xa48>
 8007540:	f01a 0f01 	tst.w	sl, #1
 8007544:	d0dc      	beq.n	8007500 <_dtoa_r+0xa48>
 8007546:	f1ba 0f39 	cmp.w	sl, #57	@ 0x39
 800754a:	d1d6      	bne.n	80074fa <_dtoa_r+0xa42>
 800754c:	9a04      	ldr	r2, [sp, #16]
 800754e:	2339      	movs	r3, #57	@ 0x39
 8007550:	7013      	strb	r3, [r2, #0]
 8007552:	4633      	mov	r3, r6
 8007554:	461e      	mov	r6, r3
 8007556:	3b01      	subs	r3, #1
 8007558:	f816 2c01 	ldrb.w	r2, [r6, #-1]
 800755c:	2a39      	cmp	r2, #57	@ 0x39
 800755e:	d052      	beq.n	8007606 <_dtoa_r+0xb4e>
 8007560:	3201      	adds	r2, #1
 8007562:	701a      	strb	r2, [r3, #0]
 8007564:	e4fe      	b.n	8006f64 <_dtoa_r+0x4ac>
 8007566:	2a00      	cmp	r2, #0
 8007568:	dd07      	ble.n	800757a <_dtoa_r+0xac2>
 800756a:	f1ba 0f39 	cmp.w	sl, #57	@ 0x39
 800756e:	d0ed      	beq.n	800754c <_dtoa_r+0xa94>
 8007570:	9a04      	ldr	r2, [sp, #16]
 8007572:	f10a 0301 	add.w	r3, sl, #1
 8007576:	7013      	strb	r3, [r2, #0]
 8007578:	e4f4      	b.n	8006f64 <_dtoa_r+0x4ac>
 800757a:	9b06      	ldr	r3, [sp, #24]
 800757c:	f80b ac01 	strb.w	sl, [fp, #-1]
 8007580:	455b      	cmp	r3, fp
 8007582:	d02a      	beq.n	80075da <_dtoa_r+0xb22>
 8007584:	9901      	ldr	r1, [sp, #4]
 8007586:	2300      	movs	r3, #0
 8007588:	220a      	movs	r2, #10
 800758a:	4648      	mov	r0, r9
 800758c:	f000 f9d0 	bl	8007930 <__multadd>
 8007590:	42bc      	cmp	r4, r7
 8007592:	9001      	str	r0, [sp, #4]
 8007594:	f04f 0300 	mov.w	r3, #0
 8007598:	f04f 020a 	mov.w	r2, #10
 800759c:	4621      	mov	r1, r4
 800759e:	4648      	mov	r0, r9
 80075a0:	d106      	bne.n	80075b0 <_dtoa_r+0xaf8>
 80075a2:	f000 f9c5 	bl	8007930 <__multadd>
 80075a6:	4604      	mov	r4, r0
 80075a8:	4607      	mov	r7, r0
 80075aa:	f10b 0b01 	add.w	fp, fp, #1
 80075ae:	e775      	b.n	800749c <_dtoa_r+0x9e4>
 80075b0:	f000 f9be 	bl	8007930 <__multadd>
 80075b4:	4639      	mov	r1, r7
 80075b6:	4604      	mov	r4, r0
 80075b8:	2300      	movs	r3, #0
 80075ba:	220a      	movs	r2, #10
 80075bc:	4648      	mov	r0, r9
 80075be:	f000 f9b7 	bl	8007930 <__multadd>
 80075c2:	4607      	mov	r7, r0
 80075c4:	e7f1      	b.n	80075aa <_dtoa_r+0xaf2>
 80075c6:	9b05      	ldr	r3, [sp, #20]
 80075c8:	1e5e      	subs	r6, r3, #1
 80075ca:	2b00      	cmp	r3, #0
 80075cc:	9b00      	ldr	r3, [sp, #0]
 80075ce:	bfd8      	it	le
 80075d0:	2600      	movle	r6, #0
 80075d2:	1c5a      	adds	r2, r3, #1
 80075d4:	4627      	mov	r7, r4
 80075d6:	4416      	add	r6, r2
 80075d8:	2400      	movs	r4, #0
 80075da:	9901      	ldr	r1, [sp, #4]
 80075dc:	2201      	movs	r2, #1
 80075de:	4648      	mov	r0, r9
 80075e0:	f000 fb54 	bl	8007c8c <__lshift>
 80075e4:	4629      	mov	r1, r5
 80075e6:	9001      	str	r0, [sp, #4]
 80075e8:	f000 fbbe 	bl	8007d68 <__mcmp>
 80075ec:	2800      	cmp	r0, #0
 80075ee:	dcb0      	bgt.n	8007552 <_dtoa_r+0xa9a>
 80075f0:	d102      	bne.n	80075f8 <_dtoa_r+0xb40>
 80075f2:	f01a 0f01 	tst.w	sl, #1
 80075f6:	d1ac      	bne.n	8007552 <_dtoa_r+0xa9a>
 80075f8:	4633      	mov	r3, r6
 80075fa:	461e      	mov	r6, r3
 80075fc:	f813 2d01 	ldrb.w	r2, [r3, #-1]!
 8007600:	2a30      	cmp	r2, #48	@ 0x30
 8007602:	d0fa      	beq.n	80075fa <_dtoa_r+0xb42>
 8007604:	e4ae      	b.n	8006f64 <_dtoa_r+0x4ac>
 8007606:	9a00      	ldr	r2, [sp, #0]
 8007608:	429a      	cmp	r2, r3
 800760a:	d1a3      	bne.n	8007554 <_dtoa_r+0xa9c>
 800760c:	9b02      	ldr	r3, [sp, #8]
 800760e:	3301      	adds	r3, #1
 8007610:	9302      	str	r3, [sp, #8]
 8007612:	2331      	movs	r3, #49	@ 0x31
 8007614:	e7af      	b.n	8007576 <_dtoa_r+0xabe>
 8007616:	9b23      	ldr	r3, [sp, #140]	@ 0x8c
 8007618:	2b00      	cmp	r3, #0
 800761a:	f47f aa98 	bne.w	8006b4e <_dtoa_r+0x96>
 800761e:	4b13      	ldr	r3, [pc, #76]	@ (800766c <_dtoa_r+0xbb4>)
 8007620:	f7ff bab7 	b.w	8006b92 <_dtoa_r+0xda>
 8007624:	9b0a      	ldr	r3, [sp, #40]	@ 0x28
 8007626:	2b01      	cmp	r3, #1
 8007628:	f77f ae2f 	ble.w	800728a <_dtoa_r+0x7d2>
 800762c:	f8dd a034 	ldr.w	sl, [sp, #52]	@ 0x34
 8007630:	2001      	movs	r0, #1
 8007632:	e64e      	b.n	80072d2 <_dtoa_r+0x81a>
 8007634:	9b05      	ldr	r3, [sp, #20]
 8007636:	2b00      	cmp	r3, #0
 8007638:	f77f aed7 	ble.w	80073ea <_dtoa_r+0x932>
 800763c:	9e00      	ldr	r6, [sp, #0]
 800763e:	9801      	ldr	r0, [sp, #4]
 8007640:	4629      	mov	r1, r5
 8007642:	f7ff f9b0 	bl	80069a6 <quorem>
 8007646:	f100 0a30 	add.w	sl, r0, #48	@ 0x30
 800764a:	9b00      	ldr	r3, [sp, #0]
 800764c:	f806 ab01 	strb.w	sl, [r6], #1
 8007650:	1af2      	subs	r2, r6, r3
 8007652:	9b05      	ldr	r3, [sp, #20]
 8007654:	4293      	cmp	r3, r2
 8007656:	ddb6      	ble.n	80075c6 <_dtoa_r+0xb0e>
 8007658:	9901      	ldr	r1, [sp, #4]
 800765a:	2300      	movs	r3, #0
 800765c:	220a      	movs	r2, #10
 800765e:	4648      	mov	r0, r9
 8007660:	f000 f966 	bl	8007930 <__multadd>
 8007664:	9001      	str	r0, [sp, #4]
 8007666:	e7ea      	b.n	800763e <_dtoa_r+0xb86>
 8007668:	08008ba8 	.word	0x08008ba8
 800766c:	08008b2c 	.word	0x08008b2c

08007670 <_free_r>:
 8007670:	b538      	push	{r3, r4, r5, lr}
 8007672:	4605      	mov	r5, r0
 8007674:	2900      	cmp	r1, #0
 8007676:	d041      	beq.n	80076fc <_free_r+0x8c>
 8007678:	f851 3c04 	ldr.w	r3, [r1, #-4]
 800767c:	1f0c      	subs	r4, r1, #4
 800767e:	2b00      	cmp	r3, #0
 8007680:	bfb8      	it	lt
 8007682:	18e4      	addlt	r4, r4, r3
 8007684:	f000 f8e8 	bl	8007858 <__malloc_lock>
 8007688:	4a1d      	ldr	r2, [pc, #116]	@ (8007700 <_free_r+0x90>)
 800768a:	6813      	ldr	r3, [r2, #0]
 800768c:	b933      	cbnz	r3, 800769c <_free_r+0x2c>
 800768e:	6063      	str	r3, [r4, #4]
 8007690:	6014      	str	r4, [r2, #0]
 8007692:	4628      	mov	r0, r5
 8007694:	e8bd 4038 	ldmia.w	sp!, {r3, r4, r5, lr}
 8007698:	f000 b8e4 	b.w	8007864 <__malloc_unlock>
 800769c:	42a3      	cmp	r3, r4
 800769e:	d908      	bls.n	80076b2 <_free_r+0x42>
 80076a0:	6820      	ldr	r0, [r4, #0]
 80076a2:	1821      	adds	r1, r4, r0
 80076a4:	428b      	cmp	r3, r1
 80076a6:	bf01      	itttt	eq
 80076a8:	6819      	ldreq	r1, [r3, #0]
 80076aa:	685b      	ldreq	r3, [r3, #4]
 80076ac:	1809      	addeq	r1, r1, r0
 80076ae:	6021      	streq	r1, [r4, #0]
 80076b0:	e7ed      	b.n	800768e <_free_r+0x1e>
 80076b2:	461a      	mov	r2, r3
 80076b4:	685b      	ldr	r3, [r3, #4]
 80076b6:	b10b      	cbz	r3, 80076bc <_free_r+0x4c>
 80076b8:	42a3      	cmp	r3, r4
 80076ba:	d9fa      	bls.n	80076b2 <_free_r+0x42>
 80076bc:	6811      	ldr	r1, [r2, #0]
 80076be:	1850      	adds	r0, r2, r1
 80076c0:	42a0      	cmp	r0, r4
 80076c2:	d10b      	bne.n	80076dc <_free_r+0x6c>
 80076c4:	6820      	ldr	r0, [r4, #0]
 80076c6:	4401      	add	r1, r0
 80076c8:	1850      	adds	r0, r2, r1
 80076ca:	4283      	cmp	r3, r0
 80076cc:	6011      	str	r1, [r2, #0]
 80076ce:	d1e0      	bne.n	8007692 <_free_r+0x22>
 80076d0:	6818      	ldr	r0, [r3, #0]
 80076d2:	685b      	ldr	r3, [r3, #4]
 80076d4:	6053      	str	r3, [r2, #4]
 80076d6:	4408      	add	r0, r1
 80076d8:	6010      	str	r0, [r2, #0]
 80076da:	e7da      	b.n	8007692 <_free_r+0x22>
 80076dc:	d902      	bls.n	80076e4 <_free_r+0x74>
 80076de:	230c      	movs	r3, #12
 80076e0:	602b      	str	r3, [r5, #0]
 80076e2:	e7d6      	b.n	8007692 <_free_r+0x22>
 80076e4:	6820      	ldr	r0, [r4, #0]
 80076e6:	1821      	adds	r1, r4, r0
 80076e8:	428b      	cmp	r3, r1
 80076ea:	bf04      	itt	eq
 80076ec:	6819      	ldreq	r1, [r3, #0]
 80076ee:	685b      	ldreq	r3, [r3, #4]
 80076f0:	6063      	str	r3, [r4, #4]
 80076f2:	bf04      	itt	eq
 80076f4:	1809      	addeq	r1, r1, r0
 80076f6:	6021      	streq	r1, [r4, #0]
 80076f8:	6054      	str	r4, [r2, #4]
 80076fa:	e7ca      	b.n	8007692 <_free_r+0x22>
 80076fc:	bd38      	pop	{r3, r4, r5, pc}
 80076fe:	bf00      	nop
 8007700:	200004b0 	.word	0x200004b0

08007704 <malloc>:
 8007704:	4b02      	ldr	r3, [pc, #8]	@ (8007710 <malloc+0xc>)
 8007706:	4601      	mov	r1, r0
 8007708:	6818      	ldr	r0, [r3, #0]
 800770a:	f000 b825 	b.w	8007758 <_malloc_r>
 800770e:	bf00      	nop
 8007710:	20000018 	.word	0x20000018

08007714 <sbrk_aligned>:
 8007714:	b570      	push	{r4, r5, r6, lr}
 8007716:	4e0f      	ldr	r6, [pc, #60]	@ (8007754 <sbrk_aligned+0x40>)
 8007718:	460c      	mov	r4, r1
 800771a:	6831      	ldr	r1, [r6, #0]
 800771c:	4605      	mov	r5, r0
 800771e:	b911      	cbnz	r1, 8007726 <sbrk_aligned+0x12>
 8007720:	f000 fe4a 	bl	80083b8 <_sbrk_r>
 8007724:	6030      	str	r0, [r6, #0]
 8007726:	4621      	mov	r1, r4
 8007728:	4628      	mov	r0, r5
 800772a:	f000 fe45 	bl	80083b8 <_sbrk_r>
 800772e:	1c43      	adds	r3, r0, #1
 8007730:	d103      	bne.n	800773a <sbrk_aligned+0x26>
 8007732:	f04f 34ff 	mov.w	r4, #4294967295
 8007736:	4620      	mov	r0, r4
 8007738:	bd70      	pop	{r4, r5, r6, pc}
 800773a:	1cc4      	adds	r4, r0, #3
 800773c:	f024 0403 	bic.w	r4, r4, #3
 8007740:	42a0      	cmp	r0, r4
 8007742:	d0f8      	beq.n	8007736 <sbrk_aligned+0x22>
 8007744:	1a21      	subs	r1, r4, r0
 8007746:	4628      	mov	r0, r5
 8007748:	f000 fe36 	bl	80083b8 <_sbrk_r>
 800774c:	3001      	adds	r0, #1
 800774e:	d1f2      	bne.n	8007736 <sbrk_aligned+0x22>
 8007750:	e7ef      	b.n	8007732 <sbrk_aligned+0x1e>
 8007752:	bf00      	nop
 8007754:	200004ac 	.word	0x200004ac

08007758 <_malloc_r>:
 8007758:	e92d 43f8 	stmdb	sp!, {r3, r4, r5, r6, r7, r8, r9, lr}
 800775c:	1ccd      	adds	r5, r1, #3
 800775e:	f025 0503 	bic.w	r5, r5, #3
 8007762:	3508      	adds	r5, #8
 8007764:	2d0c      	cmp	r5, #12
 8007766:	bf38      	it	cc
 8007768:	250c      	movcc	r5, #12
 800776a:	2d00      	cmp	r5, #0
 800776c:	4606      	mov	r6, r0
 800776e:	db01      	blt.n	8007774 <_malloc_r+0x1c>
 8007770:	42a9      	cmp	r1, r5
 8007772:	d904      	bls.n	800777e <_malloc_r+0x26>
 8007774:	230c      	movs	r3, #12
 8007776:	6033      	str	r3, [r6, #0]
 8007778:	2000      	movs	r0, #0
 800777a:	e8bd 83f8 	ldmia.w	sp!, {r3, r4, r5, r6, r7, r8, r9, pc}
 800777e:	f8df 80d4 	ldr.w	r8, [pc, #212]	@ 8007854 <_malloc_r+0xfc>
 8007782:	f000 f869 	bl	8007858 <__malloc_lock>
 8007786:	f8d8 3000 	ldr.w	r3, [r8]
 800778a:	461c      	mov	r4, r3
 800778c:	bb44      	cbnz	r4, 80077e0 <_malloc_r+0x88>
 800778e:	4629      	mov	r1, r5
 8007790:	4630      	mov	r0, r6
 8007792:	f7ff ffbf 	bl	8007714 <sbrk_aligned>
 8007796:	1c43      	adds	r3, r0, #1
 8007798:	4604      	mov	r4, r0
 800779a:	d158      	bne.n	800784e <_malloc_r+0xf6>
 800779c:	f8d8 4000 	ldr.w	r4, [r8]
 80077a0:	4627      	mov	r7, r4
 80077a2:	2f00      	cmp	r7, #0
 80077a4:	d143      	bne.n	800782e <_malloc_r+0xd6>
 80077a6:	2c00      	cmp	r4, #0
 80077a8:	d04b      	beq.n	8007842 <_malloc_r+0xea>
 80077aa:	6823      	ldr	r3, [r4, #0]
 80077ac:	4639      	mov	r1, r7
 80077ae:	4630      	mov	r0, r6
 80077b0:	eb04 0903 	add.w	r9, r4, r3
 80077b4:	f000 fe00 	bl	80083b8 <_sbrk_r>
 80077b8:	4581      	cmp	r9, r0
 80077ba:	d142      	bne.n	8007842 <_malloc_r+0xea>
 80077bc:	6821      	ldr	r1, [r4, #0]
 80077be:	1a6d      	subs	r5, r5, r1
 80077c0:	4629      	mov	r1, r5
 80077c2:	4630      	mov	r0, r6
 80077c4:	f7ff ffa6 	bl	8007714 <sbrk_aligned>
 80077c8:	3001      	adds	r0, #1
 80077ca:	d03a      	beq.n	8007842 <_malloc_r+0xea>
 80077cc:	6823      	ldr	r3, [r4, #0]
 80077ce:	442b      	add	r3, r5
 80077d0:	6023      	str	r3, [r4, #0]
 80077d2:	f8d8 3000 	ldr.w	r3, [r8]
 80077d6:	685a      	ldr	r2, [r3, #4]
 80077d8:	bb62      	cbnz	r2, 8007834 <_malloc_r+0xdc>
 80077da:	f8c8 7000 	str.w	r7, [r8]
 80077de:	e00f      	b.n	8007800 <_malloc_r+0xa8>
 80077e0:	6822      	ldr	r2, [r4, #0]
 80077e2:	1b52      	subs	r2, r2, r5
 80077e4:	d420      	bmi.n	8007828 <_malloc_r+0xd0>
 80077e6:	2a0b      	cmp	r2, #11
 80077e8:	d917      	bls.n	800781a <_malloc_r+0xc2>
 80077ea:	1961      	adds	r1, r4, r5
 80077ec:	42a3      	cmp	r3, r4
 80077ee:	6025      	str	r5, [r4, #0]
 80077f0:	bf18      	it	ne
 80077f2:	6059      	strne	r1, [r3, #4]
 80077f4:	6863      	ldr	r3, [r4, #4]
 80077f6:	bf08      	it	eq
 80077f8:	f8c8 1000 	streq.w	r1, [r8]
 80077fc:	5162      	str	r2, [r4, r5]
 80077fe:	604b      	str	r3, [r1, #4]
 8007800:	4630      	mov	r0, r6
 8007802:	f000 f82f 	bl	8007864 <__malloc_unlock>
 8007806:	f104 000b 	add.w	r0, r4, #11
 800780a:	1d23      	adds	r3, r4, #4
 800780c:	f020 0007 	bic.w	r0, r0, #7
 8007810:	1ac2      	subs	r2, r0, r3
 8007812:	bf1c      	itt	ne
 8007814:	1a1b      	subne	r3, r3, r0
 8007816:	50a3      	strne	r3, [r4, r2]
 8007818:	e7af      	b.n	800777a <_malloc_r+0x22>
 800781a:	6862      	ldr	r2, [r4, #4]
 800781c:	42a3      	cmp	r3, r4
 800781e:	bf0c      	ite	eq
 8007820:	f8c8 2000 	streq.w	r2, [r8]
 8007824:	605a      	strne	r2, [r3, #4]
 8007826:	e7eb      	b.n	8007800 <_malloc_r+0xa8>
 8007828:	4623      	mov	r3, r4
 800782a:	6864      	ldr	r4, [r4, #4]
 800782c:	e7ae      	b.n	800778c <_malloc_r+0x34>
 800782e:	463c      	mov	r4, r7
 8007830:	687f      	ldr	r7, [r7, #4]
 8007832:	e7b6      	b.n	80077a2 <_malloc_r+0x4a>
 8007834:	461a      	mov	r2, r3
 8007836:	685b      	ldr	r3, [r3, #4]
 8007838:	42a3      	cmp	r3, r4
 800783a:	d1fb      	bne.n	8007834 <_malloc_r+0xdc>
 800783c:	2300      	movs	r3, #0
 800783e:	6053      	str	r3, [r2, #4]
 8007840:	e7de      	b.n	8007800 <_malloc_r+0xa8>
 8007842:	230c      	movs	r3, #12
 8007844:	6033      	str	r3, [r6, #0]
 8007846:	4630      	mov	r0, r6
 8007848:	f000 f80c 	bl	8007864 <__malloc_unlock>
 800784c:	e794      	b.n	8007778 <_malloc_r+0x20>
 800784e:	6005      	str	r5, [r0, #0]
 8007850:	e7d6      	b.n	8007800 <_malloc_r+0xa8>
 8007852:	bf00      	nop
 8007854:	200004b0 	.word	0x200004b0

08007858 <__malloc_lock>:
 8007858:	4801      	ldr	r0, [pc, #4]	@ (8007860 <__malloc_lock+0x8>)
 800785a:	f7ff b8a2 	b.w	80069a2 <__retarget_lock_acquire_recursive>
 800785e:	bf00      	nop
 8007860:	200004a8 	.word	0x200004a8

08007864 <__malloc_unlock>:
 8007864:	4801      	ldr	r0, [pc, #4]	@ (800786c <__malloc_unlock+0x8>)
 8007866:	f7ff b89d 	b.w	80069a4 <__retarget_lock_release_recursive>
 800786a:	bf00      	nop
 800786c:	200004a8 	.word	0x200004a8

08007870 <_Balloc>:
 8007870:	b570      	push	{r4, r5, r6, lr}
 8007872:	69c4      	ldr	r4, [r0, #28]
 8007874:	4605      	mov	r5, r0
 8007876:	460e      	mov	r6, r1
 8007878:	b984      	cbnz	r4, 800789c <_Balloc+0x2c>
 800787a:	2010      	movs	r0, #16
 800787c:	f7ff ff42 	bl	8007704 <malloc>
 8007880:	4604      	mov	r4, r0
 8007882:	61e8      	str	r0, [r5, #28]
 8007884:	b928      	cbnz	r0, 8007892 <_Balloc+0x22>
 8007886:	4602      	mov	r2, r0
 8007888:	4b16      	ldr	r3, [pc, #88]	@ (80078e4 <_Balloc+0x74>)
 800788a:	4817      	ldr	r0, [pc, #92]	@ (80078e8 <_Balloc+0x78>)
 800788c:	216b      	movs	r1, #107	@ 0x6b
 800788e:	f000 fdb1 	bl	80083f4 <__assert_func>
 8007892:	2300      	movs	r3, #0
 8007894:	e9c0 3301 	strd	r3, r3, [r0, #4]
 8007898:	6003      	str	r3, [r0, #0]
 800789a:	60c3      	str	r3, [r0, #12]
 800789c:	68e3      	ldr	r3, [r4, #12]
 800789e:	b953      	cbnz	r3, 80078b6 <_Balloc+0x46>
 80078a0:	2221      	movs	r2, #33	@ 0x21
 80078a2:	2104      	movs	r1, #4
 80078a4:	4628      	mov	r0, r5
 80078a6:	f000 fdc3 	bl	8008430 <_calloc_r>
 80078aa:	69eb      	ldr	r3, [r5, #28]
 80078ac:	60e0      	str	r0, [r4, #12]
 80078ae:	68db      	ldr	r3, [r3, #12]
 80078b0:	b90b      	cbnz	r3, 80078b6 <_Balloc+0x46>
 80078b2:	2000      	movs	r0, #0
 80078b4:	bd70      	pop	{r4, r5, r6, pc}
 80078b6:	f853 0026 	ldr.w	r0, [r3, r6, lsl #2]
 80078ba:	b130      	cbz	r0, 80078ca <_Balloc+0x5a>
 80078bc:	6802      	ldr	r2, [r0, #0]
 80078be:	f843 2026 	str.w	r2, [r3, r6, lsl #2]
 80078c2:	2300      	movs	r3, #0
 80078c4:	e9c0 3303 	strd	r3, r3, [r0, #12]
 80078c8:	e7f4      	b.n	80078b4 <_Balloc+0x44>
 80078ca:	2101      	movs	r1, #1
 80078cc:	fa01 f406 	lsl.w	r4, r1, r6
 80078d0:	1d62      	adds	r2, r4, #5
 80078d2:	0092      	lsls	r2, r2, #2
 80078d4:	4628      	mov	r0, r5
 80078d6:	f000 fdab 	bl	8008430 <_calloc_r>
 80078da:	2800      	cmp	r0, #0
 80078dc:	d0e9      	beq.n	80078b2 <_Balloc+0x42>
 80078de:	e9c0 6401 	strd	r6, r4, [r0, #4]
 80078e2:	e7ee      	b.n	80078c2 <_Balloc+0x52>
 80078e4:	08008b39 	.word	0x08008b39
 80078e8:	08008bb9 	.word	0x08008bb9

080078ec <_Bfree>:
 80078ec:	b570      	push	{r4, r5, r6, lr}
 80078ee:	69c6      	ldr	r6, [r0, #28]
 80078f0:	4605      	mov	r5, r0
 80078f2:	460c      	mov	r4, r1
 80078f4:	b976      	cbnz	r6, 8007914 <_Bfree+0x28>
 80078f6:	2010      	movs	r0, #16
 80078f8:	f7ff ff04 	bl	8007704 <malloc>
 80078fc:	4602      	mov	r2, r0
 80078fe:	61e8      	str	r0, [r5, #28]
 8007900:	b920      	cbnz	r0, 800790c <_Bfree+0x20>
 8007902:	4b09      	ldr	r3, [pc, #36]	@ (8007928 <_Bfree+0x3c>)
 8007904:	4809      	ldr	r0, [pc, #36]	@ (800792c <_Bfree+0x40>)
 8007906:	218f      	movs	r1, #143	@ 0x8f
 8007908:	f000 fd74 	bl	80083f4 <__assert_func>
 800790c:	e9c0 6601 	strd	r6, r6, [r0, #4]
 8007910:	6006      	str	r6, [r0, #0]
 8007912:	60c6      	str	r6, [r0, #12]
 8007914:	b13c      	cbz	r4, 8007926 <_Bfree+0x3a>
 8007916:	69eb      	ldr	r3, [r5, #28]
 8007918:	6862      	ldr	r2, [r4, #4]
 800791a:	68db      	ldr	r3, [r3, #12]
 800791c:	f853 1022 	ldr.w	r1, [r3, r2, lsl #2]
 8007920:	6021      	str	r1, [r4, #0]
 8007922:	f843 4022 	str.w	r4, [r3, r2, lsl #2]
 8007926:	bd70      	pop	{r4, r5, r6, pc}
 8007928:	08008b39 	.word	0x08008b39
 800792c:	08008bb9 	.word	0x08008bb9

08007930 <__multadd>:
 8007930:	e92d 41f0 	stmdb	sp!, {r4, r5, r6, r7, r8, lr}
 8007934:	690d      	ldr	r5, [r1, #16]
 8007936:	4607      	mov	r7, r0
 8007938:	460c      	mov	r4, r1
 800793a:	461e      	mov	r6, r3
 800793c:	f101 0c14 	add.w	ip, r1, #20
 8007940:	2000      	movs	r0, #0
 8007942:	f8dc 3000 	ldr.w	r3, [ip]
 8007946:	b299      	uxth	r1, r3
 8007948:	fb02 6101 	mla	r1, r2, r1, r6
 800794c:	0c1e      	lsrs	r6, r3, #16
 800794e:	0c0b      	lsrs	r3, r1, #16
 8007950:	fb02 3306 	mla	r3, r2, r6, r3
 8007954:	b289      	uxth	r1, r1
 8007956:	3001      	adds	r0, #1
 8007958:	eb01 4103 	add.w	r1, r1, r3, lsl #16
 800795c:	4285      	cmp	r5, r0
 800795e:	f84c 1b04 	str.w	r1, [ip], #4
 8007962:	ea4f 4613 	mov.w	r6, r3, lsr #16
 8007966:	dcec      	bgt.n	8007942 <__multadd+0x12>
 8007968:	b30e      	cbz	r6, 80079ae <__multadd+0x7e>
 800796a:	68a3      	ldr	r3, [r4, #8]
 800796c:	42ab      	cmp	r3, r5
 800796e:	dc19      	bgt.n	80079a4 <__multadd+0x74>
 8007970:	6861      	ldr	r1, [r4, #4]
 8007972:	4638      	mov	r0, r7
 8007974:	3101      	adds	r1, #1
 8007976:	f7ff ff7b 	bl	8007870 <_Balloc>
 800797a:	4680      	mov	r8, r0
 800797c:	b928      	cbnz	r0, 800798a <__multadd+0x5a>
 800797e:	4602      	mov	r2, r0
 8007980:	4b0c      	ldr	r3, [pc, #48]	@ (80079b4 <__multadd+0x84>)
 8007982:	480d      	ldr	r0, [pc, #52]	@ (80079b8 <__multadd+0x88>)
 8007984:	21ba      	movs	r1, #186	@ 0xba
 8007986:	f000 fd35 	bl	80083f4 <__assert_func>
 800798a:	6922      	ldr	r2, [r4, #16]
 800798c:	3202      	adds	r2, #2
 800798e:	f104 010c 	add.w	r1, r4, #12
 8007992:	0092      	lsls	r2, r2, #2
 8007994:	300c      	adds	r0, #12
 8007996:	f000 fd1f 	bl	80083d8 <memcpy>
 800799a:	4621      	mov	r1, r4
 800799c:	4638      	mov	r0, r7
 800799e:	f7ff ffa5 	bl	80078ec <_Bfree>
 80079a2:	4644      	mov	r4, r8
 80079a4:	eb04 0385 	add.w	r3, r4, r5, lsl #2
 80079a8:	3501      	adds	r5, #1
 80079aa:	615e      	str	r6, [r3, #20]
 80079ac:	6125      	str	r5, [r4, #16]
 80079ae:	4620      	mov	r0, r4
 80079b0:	e8bd 81f0 	ldmia.w	sp!, {r4, r5, r6, r7, r8, pc}
 80079b4:	08008ba8 	.word	0x08008ba8
 80079b8:	08008bb9 	.word	0x08008bb9

080079bc <__hi0bits>:
 80079bc:	f5b0 3f80 	cmp.w	r0, #65536	@ 0x10000
 80079c0:	4603      	mov	r3, r0
 80079c2:	bf36      	itet	cc
 80079c4:	0403      	lslcc	r3, r0, #16
 80079c6:	2000      	movcs	r0, #0
 80079c8:	2010      	movcc	r0, #16
 80079ca:	f1b3 7f80 	cmp.w	r3, #16777216	@ 0x1000000
 80079ce:	bf3c      	itt	cc
 80079d0:	021b      	lslcc	r3, r3, #8
 80079d2:	3008      	addcc	r0, #8
 80079d4:	f1b3 5f80 	cmp.w	r3, #268435456	@ 0x10000000
 80079d8:	bf3c      	itt	cc
 80079da:	011b      	lslcc	r3, r3, #4
 80079dc:	3004      	addcc	r0, #4
 80079de:	f1b3 4f80 	cmp.w	r3, #1073741824	@ 0x40000000
 80079e2:	bf3c      	itt	cc
 80079e4:	009b      	lslcc	r3, r3, #2
 80079e6:	3002      	addcc	r0, #2
 80079e8:	2b00      	cmp	r3, #0
 80079ea:	db05      	blt.n	80079f8 <__hi0bits+0x3c>
 80079ec:	f013 4f80 	tst.w	r3, #1073741824	@ 0x40000000
 80079f0:	f100 0001 	add.w	r0, r0, #1
 80079f4:	bf08      	it	eq
 80079f6:	2020      	moveq	r0, #32
 80079f8:	4770      	bx	lr

080079fa <__lo0bits>:
 80079fa:	6803      	ldr	r3, [r0, #0]
 80079fc:	4602      	mov	r2, r0
 80079fe:	f013 0007 	ands.w	r0, r3, #7
 8007a02:	d00b      	beq.n	8007a1c <__lo0bits+0x22>
 8007a04:	07d9      	lsls	r1, r3, #31
 8007a06:	d421      	bmi.n	8007a4c <__lo0bits+0x52>
 8007a08:	0798      	lsls	r0, r3, #30
 8007a0a:	bf49      	itett	mi
 8007a0c:	085b      	lsrmi	r3, r3, #1
 8007a0e:	089b      	lsrpl	r3, r3, #2
 8007a10:	2001      	movmi	r0, #1
 8007a12:	6013      	strmi	r3, [r2, #0]
 8007a14:	bf5c      	itt	pl
 8007a16:	6013      	strpl	r3, [r2, #0]
 8007a18:	2002      	movpl	r0, #2
 8007a1a:	4770      	bx	lr
 8007a1c:	b299      	uxth	r1, r3
 8007a1e:	b909      	cbnz	r1, 8007a24 <__lo0bits+0x2a>
 8007a20:	0c1b      	lsrs	r3, r3, #16
 8007a22:	2010      	movs	r0, #16
 8007a24:	b2d9      	uxtb	r1, r3
 8007a26:	b909      	cbnz	r1, 8007a2c <__lo0bits+0x32>
 8007a28:	3008      	adds	r0, #8
 8007a2a:	0a1b      	lsrs	r3, r3, #8
 8007a2c:	0719      	lsls	r1, r3, #28
 8007a2e:	bf04      	itt	eq
 8007a30:	091b      	lsreq	r3, r3, #4
 8007a32:	3004      	addeq	r0, #4
 8007a34:	0799      	lsls	r1, r3, #30
 8007a36:	bf04      	itt	eq
 8007a38:	089b      	lsreq	r3, r3, #2
 8007a3a:	3002      	addeq	r0, #2
 8007a3c:	07d9      	lsls	r1, r3, #31
 8007a3e:	d403      	bmi.n	8007a48 <__lo0bits+0x4e>
 8007a40:	085b      	lsrs	r3, r3, #1
 8007a42:	f100 0001 	add.w	r0, r0, #1
 8007a46:	d003      	beq.n	8007a50 <__lo0bits+0x56>
 8007a48:	6013      	str	r3, [r2, #0]
 8007a4a:	4770      	bx	lr
 8007a4c:	2000      	movs	r0, #0
 8007a4e:	4770      	bx	lr
 8007a50:	2020      	movs	r0, #32
 8007a52:	4770      	bx	lr

08007a54 <__i2b>:
 8007a54:	b510      	push	{r4, lr}
 8007a56:	460c      	mov	r4, r1
 8007a58:	2101      	movs	r1, #1
 8007a5a:	f7ff ff09 	bl	8007870 <_Balloc>
 8007a5e:	4602      	mov	r2, r0
 8007a60:	b928      	cbnz	r0, 8007a6e <__i2b+0x1a>
 8007a62:	4b05      	ldr	r3, [pc, #20]	@ (8007a78 <__i2b+0x24>)
 8007a64:	4805      	ldr	r0, [pc, #20]	@ (8007a7c <__i2b+0x28>)
 8007a66:	f240 1145 	movw	r1, #325	@ 0x145
 8007a6a:	f000 fcc3 	bl	80083f4 <__assert_func>
 8007a6e:	2301      	movs	r3, #1
 8007a70:	6144      	str	r4, [r0, #20]
 8007a72:	6103      	str	r3, [r0, #16]
 8007a74:	bd10      	pop	{r4, pc}
 8007a76:	bf00      	nop
 8007a78:	08008ba8 	.word	0x08008ba8
 8007a7c:	08008bb9 	.word	0x08008bb9

08007a80 <__multiply>:
 8007a80:	e92d 4ff0 	stmdb	sp!, {r4, r5, r6, r7, r8, r9, sl, fp, lr}
 8007a84:	f8d1 9010 	ldr.w	r9, [r1, #16]
 8007a88:	f8d2 a010 	ldr.w	sl, [r2, #16]
 8007a8c:	45d1      	cmp	r9, sl
 8007a8e:	b085      	sub	sp, #20
 8007a90:	4688      	mov	r8, r1
 8007a92:	4614      	mov	r4, r2
 8007a94:	db04      	blt.n	8007aa0 <__multiply+0x20>
 8007a96:	4653      	mov	r3, sl
 8007a98:	460c      	mov	r4, r1
 8007a9a:	46ca      	mov	sl, r9
 8007a9c:	4690      	mov	r8, r2
 8007a9e:	4699      	mov	r9, r3
 8007aa0:	68a3      	ldr	r3, [r4, #8]
 8007aa2:	6861      	ldr	r1, [r4, #4]
 8007aa4:	eb0a 0609 	add.w	r6, sl, r9
 8007aa8:	42b3      	cmp	r3, r6
 8007aaa:	bfb8      	it	lt
 8007aac:	3101      	addlt	r1, #1
 8007aae:	f7ff fedf 	bl	8007870 <_Balloc>
 8007ab2:	b930      	cbnz	r0, 8007ac2 <__multiply+0x42>
 8007ab4:	4602      	mov	r2, r0
 8007ab6:	4b45      	ldr	r3, [pc, #276]	@ (8007bcc <__multiply+0x14c>)
 8007ab8:	4845      	ldr	r0, [pc, #276]	@ (8007bd0 <__multiply+0x150>)
 8007aba:	f44f 71b1 	mov.w	r1, #354	@ 0x162
 8007abe:	f000 fc99 	bl	80083f4 <__assert_func>
 8007ac2:	f100 0514 	add.w	r5, r0, #20
 8007ac6:	eb05 0786 	add.w	r7, r5, r6, lsl #2
 8007aca:	462b      	mov	r3, r5
 8007acc:	2200      	movs	r2, #0
 8007ace:	42bb      	cmp	r3, r7
 8007ad0:	d31f      	bcc.n	8007b12 <__multiply+0x92>
 8007ad2:	f104 0c14 	add.w	ip, r4, #20
 8007ad6:	f108 0114 	add.w	r1, r8, #20
 8007ada:	eb0c 038a 	add.w	r3, ip, sl, lsl #2
 8007ade:	eb01 0289 	add.w	r2, r1, r9, lsl #2
 8007ae2:	9202      	str	r2, [sp, #8]
 8007ae4:	1b1a      	subs	r2, r3, r4
 8007ae6:	3a15      	subs	r2, #21
 8007ae8:	f022 0203 	bic.w	r2, r2, #3
 8007aec:	3415      	adds	r4, #21
 8007aee:	429c      	cmp	r4, r3
 8007af0:	bf88      	it	hi
 8007af2:	2200      	movhi	r2, #0
 8007af4:	9201      	str	r2, [sp, #4]
 8007af6:	9a02      	ldr	r2, [sp, #8]
 8007af8:	9103      	str	r1, [sp, #12]
 8007afa:	428a      	cmp	r2, r1
 8007afc:	d80c      	bhi.n	8007b18 <__multiply+0x98>
 8007afe:	2e00      	cmp	r6, #0
 8007b00:	dd03      	ble.n	8007b0a <__multiply+0x8a>
 8007b02:	f857 3d04 	ldr.w	r3, [r7, #-4]!
 8007b06:	2b00      	cmp	r3, #0
 8007b08:	d05d      	beq.n	8007bc6 <__multiply+0x146>
 8007b0a:	6106      	str	r6, [r0, #16]
 8007b0c:	b005      	add	sp, #20
 8007b0e:	e8bd 8ff0 	ldmia.w	sp!, {r4, r5, r6, r7, r8, r9, sl, fp, pc}
 8007b12:	f843 2b04 	str.w	r2, [r3], #4
 8007b16:	e7da      	b.n	8007ace <__multiply+0x4e>
 8007b18:	f8b1 a000 	ldrh.w	sl, [r1]
 8007b1c:	f1ba 0f00 	cmp.w	sl, #0
 8007b20:	d024      	beq.n	8007b6c <__multiply+0xec>
 8007b22:	46e0      	mov	r8, ip
 8007b24:	46a9      	mov	r9, r5
 8007b26:	f04f 0e00 	mov.w	lr, #0
 8007b2a:	f858 2b04 	ldr.w	r2, [r8], #4
 8007b2e:	f8d9 4000 	ldr.w	r4, [r9]
 8007b32:	fa1f fb82 	uxth.w	fp, r2
 8007b36:	b2a4      	uxth	r4, r4
 8007b38:	fb0a 440b 	mla	r4, sl, fp, r4
 8007b3c:	ea4f 4b12 	mov.w	fp, r2, lsr #16
 8007b40:	f8d9 2000 	ldr.w	r2, [r9]
 8007b44:	4474      	add	r4, lr
 8007b46:	ea4f 4e12 	mov.w	lr, r2, lsr #16
 8007b4a:	fb0a e20b 	mla	r2, sl, fp, lr
 8007b4e:	eb02 4214 	add.w	r2, r2, r4, lsr #16
 8007b52:	b2a4      	uxth	r4, r4
 8007b54:	ea44 4402 	orr.w	r4, r4, r2, lsl #16
 8007b58:	4543      	cmp	r3, r8
 8007b5a:	f849 4b04 	str.w	r4, [r9], #4
 8007b5e:	ea4f 4e12 	mov.w	lr, r2, lsr #16
 8007b62:	d8e2      	bhi.n	8007b2a <__multiply+0xaa>
 8007b64:	9a01      	ldr	r2, [sp, #4]
 8007b66:	18aa      	adds	r2, r5, r2
 8007b68:	f8c2 e004 	str.w	lr, [r2, #4]
 8007b6c:	9a03      	ldr	r2, [sp, #12]
 8007b6e:	f8b2 8002 	ldrh.w	r8, [r2, #2]
 8007b72:	3104      	adds	r1, #4
 8007b74:	f1b8 0f00 	cmp.w	r8, #0
 8007b78:	d023      	beq.n	8007bc2 <__multiply+0x142>
 8007b7a:	682a      	ldr	r2, [r5, #0]
 8007b7c:	46e6      	mov	lr, ip
 8007b7e:	4691      	mov	r9, r2
 8007b80:	46aa      	mov	sl, r5
 8007b82:	f04f 0b00 	mov.w	fp, #0
 8007b86:	f8be 4000 	ldrh.w	r4, [lr]
 8007b8a:	fb08 b404 	mla	r4, r8, r4, fp
 8007b8e:	eb04 4419 	add.w	r4, r4, r9, lsr #16
 8007b92:	b292      	uxth	r2, r2
 8007b94:	ea42 4204 	orr.w	r2, r2, r4, lsl #16
 8007b98:	f84a 2b04 	str.w	r2, [sl], #4
 8007b9c:	f85e 2b04 	ldr.w	r2, [lr], #4
 8007ba0:	f8da 9000 	ldr.w	r9, [sl]
 8007ba4:	ea4f 4b12 	mov.w	fp, r2, lsr #16
 8007ba8:	fa1f f289 	uxth.w	r2, r9
 8007bac:	fb08 220b 	mla	r2, r8, fp, r2
 8007bb0:	eb02 4214 	add.w	r2, r2, r4, lsr #16
 8007bb4:	4573      	cmp	r3, lr
 8007bb6:	ea4f 4b12 	mov.w	fp, r2, lsr #16
 8007bba:	d8e4      	bhi.n	8007b86 <__multiply+0x106>
 8007bbc:	9c01      	ldr	r4, [sp, #4]
 8007bbe:	192c      	adds	r4, r5, r4
 8007bc0:	6062      	str	r2, [r4, #4]
 8007bc2:	3504      	adds	r5, #4
 8007bc4:	e797      	b.n	8007af6 <__multiply+0x76>
 8007bc6:	3e01      	subs	r6, #1
 8007bc8:	e799      	b.n	8007afe <__multiply+0x7e>
 8007bca:	bf00      	nop
 8007bcc:	08008ba8 	.word	0x08008ba8
 8007bd0:	08008bb9 	.word	0x08008bb9

08007bd4 <__pow5mult>:
 8007bd4:	e92d 43f8 	stmdb	sp!, {r3, r4, r5, r6, r7, r8, r9, lr}
 8007bd8:	4617      	mov	r7, r2
 8007bda:	f012 0203 	ands.w	r2, r2, #3
 8007bde:	4680      	mov	r8, r0
 8007be0:	460d      	mov	r5, r1
 8007be2:	d007      	beq.n	8007bf4 <__pow5mult+0x20>
 8007be4:	4c26      	ldr	r4, [pc, #152]	@ (8007c80 <__pow5mult+0xac>)
 8007be6:	3a01      	subs	r2, #1
 8007be8:	2300      	movs	r3, #0
 8007bea:	f854 2022 	ldr.w	r2, [r4, r2, lsl #2]
 8007bee:	f7ff fe9f 	bl	8007930 <__multadd>
 8007bf2:	4605      	mov	r5, r0
 8007bf4:	10bf      	asrs	r7, r7, #2
 8007bf6:	d03f      	beq.n	8007c78 <__pow5mult+0xa4>
 8007bf8:	f8d8 401c 	ldr.w	r4, [r8, #28]
 8007bfc:	b994      	cbnz	r4, 8007c24 <__pow5mult+0x50>
 8007bfe:	2010      	movs	r0, #16
 8007c00:	f7ff fd80 	bl	8007704 <malloc>
 8007c04:	4604      	mov	r4, r0
 8007c06:	f8c8 001c 	str.w	r0, [r8, #28]
 8007c0a:	b930      	cbnz	r0, 8007c1a <__pow5mult+0x46>
 8007c0c:	4602      	mov	r2, r0
 8007c0e:	4b1d      	ldr	r3, [pc, #116]	@ (8007c84 <__pow5mult+0xb0>)
 8007c10:	481d      	ldr	r0, [pc, #116]	@ (8007c88 <__pow5mult+0xb4>)
 8007c12:	f240 11b3 	movw	r1, #435	@ 0x1b3
 8007c16:	f000 fbed 	bl	80083f4 <__assert_func>
 8007c1a:	2300      	movs	r3, #0
 8007c1c:	e9c0 3301 	strd	r3, r3, [r0, #4]
 8007c20:	6003      	str	r3, [r0, #0]
 8007c22:	60c3      	str	r3, [r0, #12]
 8007c24:	68a6      	ldr	r6, [r4, #8]
 8007c26:	b946      	cbnz	r6, 8007c3a <__pow5mult+0x66>
 8007c28:	f240 2171 	movw	r1, #625	@ 0x271
 8007c2c:	4640      	mov	r0, r8
 8007c2e:	f7ff ff11 	bl	8007a54 <__i2b>
 8007c32:	2300      	movs	r3, #0
 8007c34:	60a0      	str	r0, [r4, #8]
 8007c36:	4606      	mov	r6, r0
 8007c38:	6003      	str	r3, [r0, #0]
 8007c3a:	462c      	mov	r4, r5
 8007c3c:	f04f 0900 	mov.w	r9, #0
 8007c40:	f007 0301 	and.w	r3, r7, #1
 8007c44:	107f      	asrs	r7, r7, #1
 8007c46:	b153      	cbz	r3, 8007c5e <__pow5mult+0x8a>
 8007c48:	4629      	mov	r1, r5
 8007c4a:	4632      	mov	r2, r6
 8007c4c:	4640      	mov	r0, r8
 8007c4e:	f7ff ff17 	bl	8007a80 <__multiply>
 8007c52:	4621      	mov	r1, r4
 8007c54:	4605      	mov	r5, r0
 8007c56:	4640      	mov	r0, r8
 8007c58:	f7ff fe48 	bl	80078ec <_Bfree>
 8007c5c:	b167      	cbz	r7, 8007c78 <__pow5mult+0xa4>
 8007c5e:	6830      	ldr	r0, [r6, #0]
 8007c60:	b938      	cbnz	r0, 8007c72 <__pow5mult+0x9e>
 8007c62:	4632      	mov	r2, r6
 8007c64:	4631      	mov	r1, r6
 8007c66:	4640      	mov	r0, r8
 8007c68:	f7ff ff0a 	bl	8007a80 <__multiply>
 8007c6c:	6030      	str	r0, [r6, #0]
 8007c6e:	f8c0 9000 	str.w	r9, [r0]
 8007c72:	4606      	mov	r6, r0
 8007c74:	462c      	mov	r4, r5
 8007c76:	e7e3      	b.n	8007c40 <__pow5mult+0x6c>
 8007c78:	4628      	mov	r0, r5
 8007c7a:	e8bd 83f8 	ldmia.w	sp!, {r3, r4, r5, r6, r7, r8, r9, pc}
 8007c7e:	bf00      	nop
 8007c80:	08008c6c 	.word	0x08008c6c
 8007c84:	08008b39 	.word	0x08008b39
 8007c88:	08008bb9 	.word	0x08008bb9

08007c8c <__lshift>:
 8007c8c:	e92d 4ff8 	stmdb	sp!, {r3, r4, r5, r6, r7, r8, r9, sl, fp, lr}
 8007c90:	460c      	mov	r4, r1
 8007c92:	6849      	ldr	r1, [r1, #4]
 8007c94:	6923      	ldr	r3, [r4, #16]
 8007c96:	eb03 1862 	add.w	r8, r3, r2, asr #5
 8007c9a:	68a3      	ldr	r3, [r4, #8]
 8007c9c:	4607      	mov	r7, r0
 8007c9e:	4615      	mov	r5, r2
 8007ca0:	ea4f 1a62 	mov.w	sl, r2, asr #5
 8007ca4:	f108 0901 	add.w	r9, r8, #1
 8007ca8:	454b      	cmp	r3, r9
 8007caa:	db0b      	blt.n	8007cc4 <__lshift+0x38>
 8007cac:	4638      	mov	r0, r7
 8007cae:	f7ff fddf 	bl	8007870 <_Balloc>
 8007cb2:	4606      	mov	r6, r0
 8007cb4:	b948      	cbnz	r0, 8007cca <__lshift+0x3e>
 8007cb6:	4602      	mov	r2, r0
 8007cb8:	4b29      	ldr	r3, [pc, #164]	@ (8007d60 <__lshift+0xd4>)
 8007cba:	482a      	ldr	r0, [pc, #168]	@ (8007d64 <__lshift+0xd8>)
 8007cbc:	f44f 71ef 	mov.w	r1, #478	@ 0x1de
 8007cc0:	f000 fb98 	bl	80083f4 <__assert_func>
 8007cc4:	3101      	adds	r1, #1
 8007cc6:	005b      	lsls	r3, r3, #1
 8007cc8:	e7ee      	b.n	8007ca8 <__lshift+0x1c>
 8007cca:	2300      	movs	r3, #0
 8007ccc:	f100 0c14 	add.w	ip, r0, #20
 8007cd0:	f100 0210 	add.w	r2, r0, #16
 8007cd4:	4619      	mov	r1, r3
 8007cd6:	4553      	cmp	r3, sl
 8007cd8:	db35      	blt.n	8007d46 <__lshift+0xba>
 8007cda:	6922      	ldr	r2, [r4, #16]
 8007cdc:	ea2a 7aea 	bic.w	sl, sl, sl, asr #31
 8007ce0:	eb0c 0c8a 	add.w	ip, ip, sl, lsl #2
 8007ce4:	f104 0314 	add.w	r3, r4, #20
 8007ce8:	f015 0e1f 	ands.w	lr, r5, #31
 8007cec:	4661      	mov	r1, ip
 8007cee:	eb03 0282 	add.w	r2, r3, r2, lsl #2
 8007cf2:	d02c      	beq.n	8007d4e <__lshift+0xc2>
 8007cf4:	f1ce 0a20 	rsb	sl, lr, #32
 8007cf8:	2500      	movs	r5, #0
 8007cfa:	6818      	ldr	r0, [r3, #0]
 8007cfc:	468b      	mov	fp, r1
 8007cfe:	fa00 f00e 	lsl.w	r0, r0, lr
 8007d02:	4328      	orrs	r0, r5
 8007d04:	f8cb 0000 	str.w	r0, [fp]
 8007d08:	f853 5b04 	ldr.w	r5, [r3], #4
 8007d0c:	429a      	cmp	r2, r3
 8007d0e:	f101 0104 	add.w	r1, r1, #4
 8007d12:	fa25 f50a 	lsr.w	r5, r5, sl
 8007d16:	d8f0      	bhi.n	8007cfa <__lshift+0x6e>
 8007d18:	1b13      	subs	r3, r2, r4
 8007d1a:	3b15      	subs	r3, #21
 8007d1c:	f023 0303 	bic.w	r3, r3, #3
 8007d20:	f104 0115 	add.w	r1, r4, #21
 8007d24:	428a      	cmp	r2, r1
 8007d26:	bf38      	it	cc
 8007d28:	2300      	movcc	r3, #0
 8007d2a:	449c      	add	ip, r3
 8007d2c:	f8cc 5004 	str.w	r5, [ip, #4]
 8007d30:	b905      	cbnz	r5, 8007d34 <__lshift+0xa8>
 8007d32:	46c1      	mov	r9, r8
 8007d34:	4638      	mov	r0, r7
 8007d36:	f8c6 9010 	str.w	r9, [r6, #16]
 8007d3a:	4621      	mov	r1, r4
 8007d3c:	f7ff fdd6 	bl	80078ec <_Bfree>
 8007d40:	4630      	mov	r0, r6
 8007d42:	e8bd 8ff8 	ldmia.w	sp!, {r3, r4, r5, r6, r7, r8, r9, sl, fp, pc}
 8007d46:	f842 1f04 	str.w	r1, [r2, #4]!
 8007d4a:	3301      	adds	r3, #1
 8007d4c:	e7c3      	b.n	8007cd6 <__lshift+0x4a>
 8007d4e:	f853 5b04 	ldr.w	r5, [r3], #4
 8007d52:	600d      	str	r5, [r1, #0]
 8007d54:	429a      	cmp	r2, r3
 8007d56:	f101 0104 	add.w	r1, r1, #4
 8007d5a:	d8f8      	bhi.n	8007d4e <__lshift+0xc2>
 8007d5c:	e7e9      	b.n	8007d32 <__lshift+0xa6>
 8007d5e:	bf00      	nop
 8007d60:	08008ba8 	.word	0x08008ba8
 8007d64:	08008bb9 	.word	0x08008bb9

08007d68 <__mcmp>:
 8007d68:	690a      	ldr	r2, [r1, #16]
 8007d6a:	4603      	mov	r3, r0
 8007d6c:	6900      	ldr	r0, [r0, #16]
 8007d6e:	1a80      	subs	r0, r0, r2
 8007d70:	b530      	push	{r4, r5, lr}
 8007d72:	d10e      	bne.n	8007d92 <__mcmp+0x2a>
 8007d74:	3314      	adds	r3, #20
 8007d76:	3114      	adds	r1, #20
 8007d78:	eb03 0482 	add.w	r4, r3, r2, lsl #2
 8007d7c:	eb01 0182 	add.w	r1, r1, r2, lsl #2
 8007d80:	f854 5d04 	ldr.w	r5, [r4, #-4]!
 8007d84:	f851 2d04 	ldr.w	r2, [r1, #-4]!
 8007d88:	4295      	cmp	r5, r2
 8007d8a:	d003      	beq.n	8007d94 <__mcmp+0x2c>
 8007d8c:	d205      	bcs.n	8007d9a <__mcmp+0x32>
 8007d8e:	f04f 30ff 	mov.w	r0, #4294967295
 8007d92:	bd30      	pop	{r4, r5, pc}
 8007d94:	42a3      	cmp	r3, r4
 8007d96:	d3f3      	bcc.n	8007d80 <__mcmp+0x18>
 8007d98:	e7fb      	b.n	8007d92 <__mcmp+0x2a>
 8007d9a:	2001      	movs	r0, #1
 8007d9c:	e7f9      	b.n	8007d92 <__mcmp+0x2a>
	...

08007da0 <__mdiff>:
 8007da0:	e92d 4ff7 	stmdb	sp!, {r0, r1, r2, r4, r5, r6, r7, r8, r9, sl, fp, lr}
 8007da4:	468a      	mov	sl, r1
 8007da6:	4606      	mov	r6, r0
 8007da8:	4611      	mov	r1, r2
 8007daa:	4650      	mov	r0, sl
 8007dac:	4614      	mov	r4, r2
 8007dae:	f7ff ffdb 	bl	8007d68 <__mcmp>
 8007db2:	1e05      	subs	r5, r0, #0
 8007db4:	d112      	bne.n	8007ddc <__mdiff+0x3c>
 8007db6:	4629      	mov	r1, r5
 8007db8:	4630      	mov	r0, r6
 8007dba:	f7ff fd59 	bl	8007870 <_Balloc>
 8007dbe:	4602      	mov	r2, r0
 8007dc0:	b928      	cbnz	r0, 8007dce <__mdiff+0x2e>
 8007dc2:	4b41      	ldr	r3, [pc, #260]	@ (8007ec8 <__mdiff+0x128>)
 8007dc4:	f240 2137 	movw	r1, #567	@ 0x237
 8007dc8:	4840      	ldr	r0, [pc, #256]	@ (8007ecc <__mdiff+0x12c>)
 8007dca:	f000 fb13 	bl	80083f4 <__assert_func>
 8007dce:	2301      	movs	r3, #1
 8007dd0:	e9c0 3504 	strd	r3, r5, [r0, #16]
 8007dd4:	4610      	mov	r0, r2
 8007dd6:	b003      	add	sp, #12
 8007dd8:	e8bd 8ff0 	ldmia.w	sp!, {r4, r5, r6, r7, r8, r9, sl, fp, pc}
 8007ddc:	bfbc      	itt	lt
 8007dde:	4653      	movlt	r3, sl
 8007de0:	46a2      	movlt	sl, r4
 8007de2:	4630      	mov	r0, r6
 8007de4:	f8da 1004 	ldr.w	r1, [sl, #4]
 8007de8:	bfba      	itte	lt
 8007dea:	461c      	movlt	r4, r3
 8007dec:	2501      	movlt	r5, #1
 8007dee:	2500      	movge	r5, #0
 8007df0:	f7ff fd3e 	bl	8007870 <_Balloc>
 8007df4:	4602      	mov	r2, r0
 8007df6:	b918      	cbnz	r0, 8007e00 <__mdiff+0x60>
 8007df8:	4b33      	ldr	r3, [pc, #204]	@ (8007ec8 <__mdiff+0x128>)
 8007dfa:	f240 2145 	movw	r1, #581	@ 0x245
 8007dfe:	e7e3      	b.n	8007dc8 <__mdiff+0x28>
 8007e00:	f8da 7010 	ldr.w	r7, [sl, #16]
 8007e04:	6926      	ldr	r6, [r4, #16]
 8007e06:	60c5      	str	r5, [r0, #12]
 8007e08:	f10a 0914 	add.w	r9, sl, #20
 8007e0c:	f104 0e14 	add.w	lr, r4, #20
 8007e10:	f100 0514 	add.w	r5, r0, #20
 8007e14:	f10a 0310 	add.w	r3, sl, #16
 8007e18:	eb09 0887 	add.w	r8, r9, r7, lsl #2
 8007e1c:	eb0e 0686 	add.w	r6, lr, r6, lsl #2
 8007e20:	9301      	str	r3, [sp, #4]
 8007e22:	46ab      	mov	fp, r5
 8007e24:	f04f 0c00 	mov.w	ip, #0
 8007e28:	9b01      	ldr	r3, [sp, #4]
 8007e2a:	f85e 0b04 	ldr.w	r0, [lr], #4
 8007e2e:	f853 af04 	ldr.w	sl, [r3, #4]!
 8007e32:	9301      	str	r3, [sp, #4]
 8007e34:	fa1f f38a 	uxth.w	r3, sl
 8007e38:	4619      	mov	r1, r3
 8007e3a:	b283      	uxth	r3, r0
 8007e3c:	1acb      	subs	r3, r1, r3
 8007e3e:	0c00      	lsrs	r0, r0, #16
 8007e40:	4463      	add	r3, ip
 8007e42:	ebc0 401a 	rsb	r0, r0, sl, lsr #16
 8007e46:	eb00 4023 	add.w	r0, r0, r3, asr #16
 8007e4a:	b29b      	uxth	r3, r3
 8007e4c:	ea43 4300 	orr.w	r3, r3, r0, lsl #16
 8007e50:	4576      	cmp	r6, lr
 8007e52:	f84b 3b04 	str.w	r3, [fp], #4
 8007e56:	ea4f 4c20 	mov.w	ip, r0, asr #16
 8007e5a:	d8e5      	bhi.n	8007e28 <__mdiff+0x88>
 8007e5c:	1b33      	subs	r3, r6, r4
 8007e5e:	3b15      	subs	r3, #21
 8007e60:	3415      	adds	r4, #21
 8007e62:	f023 0303 	bic.w	r3, r3, #3
 8007e66:	42a6      	cmp	r6, r4
 8007e68:	bf38      	it	cc
 8007e6a:	2300      	movcc	r3, #0
 8007e6c:	18e8      	adds	r0, r5, r3
 8007e6e:	444b      	add	r3, r9
 8007e70:	1d1c      	adds	r4, r3, #4
 8007e72:	3004      	adds	r0, #4
 8007e74:	4626      	mov	r6, r4
 8007e76:	eba5 0509 	sub.w	r5, r5, r9
 8007e7a:	4546      	cmp	r6, r8
 8007e7c:	eb06 0e05 	add.w	lr, r6, r5
 8007e80:	d30e      	bcc.n	8007ea0 <__mdiff+0x100>
 8007e82:	f108 0103 	add.w	r1, r8, #3
 8007e86:	1b09      	subs	r1, r1, r4
 8007e88:	f021 0103 	bic.w	r1, r1, #3
 8007e8c:	3301      	adds	r3, #1
 8007e8e:	4598      	cmp	r8, r3
 8007e90:	bf38      	it	cc
 8007e92:	2100      	movcc	r1, #0
 8007e94:	4401      	add	r1, r0
 8007e96:	f851 3d04 	ldr.w	r3, [r1, #-4]!
 8007e9a:	b19b      	cbz	r3, 8007ec4 <__mdiff+0x124>
 8007e9c:	6117      	str	r7, [r2, #16]
 8007e9e:	e799      	b.n	8007dd4 <__mdiff+0x34>
 8007ea0:	f856 1b04 	ldr.w	r1, [r6], #4
 8007ea4:	46e2      	mov	sl, ip
 8007ea6:	ea4f 4911 	mov.w	r9, r1, lsr #16
 8007eaa:	fa1c fc81 	uxtah	ip, ip, r1
 8007eae:	4451      	add	r1, sl
 8007eb0:	eb09 492c 	add.w	r9, r9, ip, asr #16
 8007eb4:	b289      	uxth	r1, r1
 8007eb6:	ea41 4109 	orr.w	r1, r1, r9, lsl #16
 8007eba:	ea4f 4c29 	mov.w	ip, r9, asr #16
 8007ebe:	f8ce 1000 	str.w	r1, [lr]
 8007ec2:	e7da      	b.n	8007e7a <__mdiff+0xda>
 8007ec4:	3f01      	subs	r7, #1
 8007ec6:	e7e6      	b.n	8007e96 <__mdiff+0xf6>
 8007ec8:	08008ba8 	.word	0x08008ba8
 8007ecc:	08008bb9 	.word	0x08008bb9

08007ed0 <__d2b>:
 8007ed0:	e92d 43f7 	stmdb	sp!, {r0, r1, r2, r4, r5, r6, r7, r8, r9, lr}
 8007ed4:	460f      	mov	r7, r1
 8007ed6:	2101      	movs	r1, #1
 8007ed8:	ec59 8b10 	vmov	r8, r9, d0
 8007edc:	4616      	mov	r6, r2
 8007ede:	f7ff fcc7 	bl	8007870 <_Balloc>
 8007ee2:	4604      	mov	r4, r0
 8007ee4:	b930      	cbnz	r0, 8007ef4 <__d2b+0x24>
 8007ee6:	4602      	mov	r2, r0
 8007ee8:	4b23      	ldr	r3, [pc, #140]	@ (8007f78 <__d2b+0xa8>)
 8007eea:	4824      	ldr	r0, [pc, #144]	@ (8007f7c <__d2b+0xac>)
 8007eec:	f240 310f 	movw	r1, #783	@ 0x30f
 8007ef0:	f000 fa80 	bl	80083f4 <__assert_func>
 8007ef4:	f3c9 550a 	ubfx	r5, r9, #20, #11
 8007ef8:	f3c9 0313 	ubfx	r3, r9, #0, #20
 8007efc:	b10d      	cbz	r5, 8007f02 <__d2b+0x32>
 8007efe:	f443 1380 	orr.w	r3, r3, #1048576	@ 0x100000
 8007f02:	9301      	str	r3, [sp, #4]
 8007f04:	f1b8 0300 	subs.w	r3, r8, #0
 8007f08:	d023      	beq.n	8007f52 <__d2b+0x82>
 8007f0a:	4668      	mov	r0, sp
 8007f0c:	9300      	str	r3, [sp, #0]
 8007f0e:	f7ff fd74 	bl	80079fa <__lo0bits>
 8007f12:	9900      	ldr	r1, [sp, #0]
 8007f14:	b1d8      	cbz	r0, 8007f4e <__d2b+0x7e>
 8007f16:	9a01      	ldr	r2, [sp, #4]
 8007f18:	f1c0 0320 	rsb	r3, r0, #32
 8007f1c:	fa02 f303 	lsl.w	r3, r2, r3
 8007f20:	430b      	orrs	r3, r1
 8007f22:	40c2      	lsrs	r2, r0
 8007f24:	6163      	str	r3, [r4, #20]
 8007f26:	9201      	str	r2, [sp, #4]
 8007f28:	9b01      	ldr	r3, [sp, #4]
 8007f2a:	61a3      	str	r3, [r4, #24]
 8007f2c:	2b00      	cmp	r3, #0
 8007f2e:	bf0c      	ite	eq
 8007f30:	2201      	moveq	r2, #1
 8007f32:	2202      	movne	r2, #2
 8007f34:	6122      	str	r2, [r4, #16]
 8007f36:	b1a5      	cbz	r5, 8007f62 <__d2b+0x92>
 8007f38:	f2a5 4533 	subw	r5, r5, #1075	@ 0x433
 8007f3c:	4405      	add	r5, r0
 8007f3e:	603d      	str	r5, [r7, #0]
 8007f40:	f1c0 0035 	rsb	r0, r0, #53	@ 0x35
 8007f44:	6030      	str	r0, [r6, #0]
 8007f46:	4620      	mov	r0, r4
 8007f48:	b003      	add	sp, #12
 8007f4a:	e8bd 83f0 	ldmia.w	sp!, {r4, r5, r6, r7, r8, r9, pc}
 8007f4e:	6161      	str	r1, [r4, #20]
 8007f50:	e7ea      	b.n	8007f28 <__d2b+0x58>
 8007f52:	a801      	add	r0, sp, #4
 8007f54:	f7ff fd51 	bl	80079fa <__lo0bits>
 8007f58:	9b01      	ldr	r3, [sp, #4]
 8007f5a:	6163      	str	r3, [r4, #20]
 8007f5c:	3020      	adds	r0, #32
 8007f5e:	2201      	movs	r2, #1
 8007f60:	e7e8      	b.n	8007f34 <__d2b+0x64>
 8007f62:	eb04 0382 	add.w	r3, r4, r2, lsl #2
 8007f66:	f2a0 4032 	subw	r0, r0, #1074	@ 0x432
 8007f6a:	6038      	str	r0, [r7, #0]
 8007f6c:	6918      	ldr	r0, [r3, #16]
 8007f6e:	f7ff fd25 	bl	80079bc <__hi0bits>
 8007f72:	ebc0 1042 	rsb	r0, r0, r2, lsl #5
 8007f76:	e7e5      	b.n	8007f44 <__d2b+0x74>
 8007f78:	08008ba8 	.word	0x08008ba8
 8007f7c:	08008bb9 	.word	0x08008bb9

08007f80 <__ssputs_r>:
 8007f80:	e92d 47f0 	stmdb	sp!, {r4, r5, r6, r7, r8, r9, sl, lr}
 8007f84:	688e      	ldr	r6, [r1, #8]
 8007f86:	461f      	mov	r7, r3
 8007f88:	42be      	cmp	r6, r7
 8007f8a:	4682      	mov	sl, r0
 8007f8c:	460c      	mov	r4, r1
 8007f8e:	4690      	mov	r8, r2
 8007f90:	4633      	mov	r3, r6
 8007f92:	d853      	bhi.n	800803c <__ssputs_r+0xbc>
 8007f94:	f9b1 000c 	ldrsh.w	r0, [r1, #12]
 8007f98:	f410 6f90 	tst.w	r0, #1152	@ 0x480
 8007f9c:	d02b      	beq.n	8007ff6 <__ssputs_r+0x76>
 8007f9e:	6965      	ldr	r5, [r4, #20]
 8007fa0:	6823      	ldr	r3, [r4, #0]
 8007fa2:	6909      	ldr	r1, [r1, #16]
 8007fa4:	eb05 0545 	add.w	r5, r5, r5, lsl #1
 8007fa8:	eba3 0901 	sub.w	r9, r3, r1
 8007fac:	eb05 75d5 	add.w	r5, r5, r5, lsr #31
 8007fb0:	1c7b      	adds	r3, r7, #1
 8007fb2:	106d      	asrs	r5, r5, #1
 8007fb4:	444b      	add	r3, r9
 8007fb6:	42ab      	cmp	r3, r5
 8007fb8:	462a      	mov	r2, r5
 8007fba:	bf84      	itt	hi
 8007fbc:	461d      	movhi	r5, r3
 8007fbe:	462a      	movhi	r2, r5
 8007fc0:	0543      	lsls	r3, r0, #21
 8007fc2:	d527      	bpl.n	8008014 <__ssputs_r+0x94>
 8007fc4:	4611      	mov	r1, r2
 8007fc6:	4650      	mov	r0, sl
 8007fc8:	f7ff fbc6 	bl	8007758 <_malloc_r>
 8007fcc:	4606      	mov	r6, r0
 8007fce:	b358      	cbz	r0, 8008028 <__ssputs_r+0xa8>
 8007fd0:	6921      	ldr	r1, [r4, #16]
 8007fd2:	464a      	mov	r2, r9
 8007fd4:	f000 fa00 	bl	80083d8 <memcpy>
 8007fd8:	89a3      	ldrh	r3, [r4, #12]
 8007fda:	f423 6390 	bic.w	r3, r3, #1152	@ 0x480
 8007fde:	f043 0380 	orr.w	r3, r3, #128	@ 0x80
 8007fe2:	81a3      	strh	r3, [r4, #12]
 8007fe4:	6126      	str	r6, [r4, #16]
 8007fe6:	6165      	str	r5, [r4, #20]
 8007fe8:	444e      	add	r6, r9
 8007fea:	eba5 0509 	sub.w	r5, r5, r9
 8007fee:	6026      	str	r6, [r4, #0]
 8007ff0:	60a5      	str	r5, [r4, #8]
 8007ff2:	463e      	mov	r6, r7
 8007ff4:	463b      	mov	r3, r7
 8007ff6:	461f      	mov	r7, r3
 8007ff8:	6820      	ldr	r0, [r4, #0]
 8007ffa:	463a      	mov	r2, r7
 8007ffc:	4641      	mov	r1, r8
 8007ffe:	f000 f9c1 	bl	8008384 <memmove>
 8008002:	68a3      	ldr	r3, [r4, #8]
 8008004:	1b9b      	subs	r3, r3, r6
 8008006:	60a3      	str	r3, [r4, #8]
 8008008:	6823      	ldr	r3, [r4, #0]
 800800a:	443b      	add	r3, r7
 800800c:	6023      	str	r3, [r4, #0]
 800800e:	2000      	movs	r0, #0
 8008010:	e8bd 87f0 	ldmia.w	sp!, {r4, r5, r6, r7, r8, r9, sl, pc}
 8008014:	4650      	mov	r0, sl
 8008016:	f000 fa31 	bl	800847c <_realloc_r>
 800801a:	4606      	mov	r6, r0
 800801c:	2800      	cmp	r0, #0
 800801e:	d1e1      	bne.n	8007fe4 <__ssputs_r+0x64>
 8008020:	6921      	ldr	r1, [r4, #16]
 8008022:	4650      	mov	r0, sl
 8008024:	f7ff fb24 	bl	8007670 <_free_r>
 8008028:	230c      	movs	r3, #12
 800802a:	f8ca 3000 	str.w	r3, [sl]
 800802e:	89a3      	ldrh	r3, [r4, #12]
 8008030:	f043 0340 	orr.w	r3, r3, #64	@ 0x40
 8008034:	81a3      	strh	r3, [r4, #12]
 8008036:	f04f 30ff 	mov.w	r0, #4294967295
 800803a:	e7e9      	b.n	8008010 <__ssputs_r+0x90>
 800803c:	463e      	mov	r6, r7
 800803e:	e7db      	b.n	8007ff8 <__ssputs_r+0x78>

08008040 <_svfiprintf_r>:
 8008040:	e92d 47f0 	stmdb	sp!, {r4, r5, r6, r7, r8, r9, sl, lr}
 8008044:	461f      	mov	r7, r3
 8008046:	898b      	ldrh	r3, [r1, #12]
 8008048:	061b      	lsls	r3, r3, #24
 800804a:	b09c      	sub	sp, #112	@ 0x70
 800804c:	4606      	mov	r6, r0
 800804e:	460d      	mov	r5, r1
 8008050:	4614      	mov	r4, r2
 8008052:	d510      	bpl.n	8008076 <_svfiprintf_r+0x36>
 8008054:	690b      	ldr	r3, [r1, #16]
 8008056:	b973      	cbnz	r3, 8008076 <_svfiprintf_r+0x36>
 8008058:	2140      	movs	r1, #64	@ 0x40
 800805a:	f7ff fb7d 	bl	8007758 <_malloc_r>
 800805e:	6028      	str	r0, [r5, #0]
 8008060:	6128      	str	r0, [r5, #16]
 8008062:	b930      	cbnz	r0, 8008072 <_svfiprintf_r+0x32>
 8008064:	230c      	movs	r3, #12
 8008066:	6033      	str	r3, [r6, #0]
 8008068:	f04f 30ff 	mov.w	r0, #4294967295
 800806c:	b01c      	add	sp, #112	@ 0x70
 800806e:	e8bd 87f0 	ldmia.w	sp!, {r4, r5, r6, r7, r8, r9, sl, pc}
 8008072:	2340      	movs	r3, #64	@ 0x40
 8008074:	616b      	str	r3, [r5, #20]
 8008076:	2300      	movs	r3, #0
 8008078:	9309      	str	r3, [sp, #36]	@ 0x24
 800807a:	2320      	movs	r3, #32
 800807c:	f88d 3029 	strb.w	r3, [sp, #41]	@ 0x29
 8008080:	9703      	str	r7, [sp, #12]
 8008082:	2330      	movs	r3, #48	@ 0x30
 8008084:	4f65      	ldr	r7, [pc, #404]	@ (800821c <_svfiprintf_r+0x1dc>)
 8008086:	f88d 302a 	strb.w	r3, [sp, #42]	@ 0x2a
 800808a:	f04f 0801 	mov.w	r8, #1
 800808e:	4623      	mov	r3, r4
 8008090:	4699      	mov	r9, r3
 8008092:	f813 2b01 	ldrb.w	r2, [r3], #1
 8008096:	b10a      	cbz	r2, 800809c <_svfiprintf_r+0x5c>
 8008098:	2a25      	cmp	r2, #37	@ 0x25
 800809a:	d1f9      	bne.n	8008090 <_svfiprintf_r+0x50>
 800809c:	ebb9 0a04 	subs.w	sl, r9, r4
 80080a0:	d00b      	beq.n	80080ba <_svfiprintf_r+0x7a>
 80080a2:	4653      	mov	r3, sl
 80080a4:	4622      	mov	r2, r4
 80080a6:	4629      	mov	r1, r5
 80080a8:	4630      	mov	r0, r6
 80080aa:	f7ff ff69 	bl	8007f80 <__ssputs_r>
 80080ae:	3001      	adds	r0, #1
 80080b0:	f000 80a4 	beq.w	80081fc <_svfiprintf_r+0x1bc>
 80080b4:	9a09      	ldr	r2, [sp, #36]	@ 0x24
 80080b6:	4452      	add	r2, sl
 80080b8:	9209      	str	r2, [sp, #36]	@ 0x24
 80080ba:	f899 3000 	ldrb.w	r3, [r9]
 80080be:	2b00      	cmp	r3, #0
 80080c0:	f000 809c 	beq.w	80081fc <_svfiprintf_r+0x1bc>
 80080c4:	2300      	movs	r3, #0
 80080c6:	f04f 32ff 	mov.w	r2, #4294967295
 80080ca:	e9cd 2305 	strd	r2, r3, [sp, #20]
 80080ce:	f109 0901 	add.w	r9, r9, #1
 80080d2:	9304      	str	r3, [sp, #16]
 80080d4:	9307      	str	r3, [sp, #28]
 80080d6:	f88d 3053 	strb.w	r3, [sp, #83]	@ 0x53
 80080da:	931a      	str	r3, [sp, #104]	@ 0x68
 80080dc:	464c      	mov	r4, r9
 80080de:	484f      	ldr	r0, [pc, #316]	@ (800821c <_svfiprintf_r+0x1dc>)
 80080e0:	f814 1b01 	ldrb.w	r1, [r4], #1
 80080e4:	2205      	movs	r2, #5
 80080e6:	f7f8 f873 	bl	80001d0 <memchr>
 80080ea:	9b04      	ldr	r3, [sp, #16]
 80080ec:	b9d0      	cbnz	r0, 8008124 <_svfiprintf_r+0xe4>
 80080ee:	06d8      	lsls	r0, r3, #27
 80080f0:	bf44      	itt	mi
 80080f2:	2220      	movmi	r2, #32
 80080f4:	f88d 2053 	strbmi.w	r2, [sp, #83]	@ 0x53
 80080f8:	0719      	lsls	r1, r3, #28
 80080fa:	bf44      	itt	mi
 80080fc:	222b      	movmi	r2, #43	@ 0x2b
 80080fe:	f88d 2053 	strbmi.w	r2, [sp, #83]	@ 0x53
 8008102:	f899 2000 	ldrb.w	r2, [r9]
 8008106:	2a2a      	cmp	r2, #42	@ 0x2a
 8008108:	d013      	beq.n	8008132 <_svfiprintf_r+0xf2>
 800810a:	9a07      	ldr	r2, [sp, #28]
 800810c:	464c      	mov	r4, r9
 800810e:	2000      	movs	r0, #0
 8008110:	f04f 0c0a 	mov.w	ip, #10
 8008114:	4621      	mov	r1, r4
 8008116:	f811 3b01 	ldrb.w	r3, [r1], #1
 800811a:	3b30      	subs	r3, #48	@ 0x30
 800811c:	2b09      	cmp	r3, #9
 800811e:	d949      	bls.n	80081b4 <_svfiprintf_r+0x174>
 8008120:	b968      	cbnz	r0, 800813e <_svfiprintf_r+0xfe>
 8008122:	e013      	b.n	800814c <_svfiprintf_r+0x10c>
 8008124:	1bc0      	subs	r0, r0, r7
 8008126:	fa08 f000 	lsl.w	r0, r8, r0
 800812a:	4318      	orrs	r0, r3
 800812c:	9004      	str	r0, [sp, #16]
 800812e:	46a1      	mov	r9, r4
 8008130:	e7d4      	b.n	80080dc <_svfiprintf_r+0x9c>
 8008132:	9a03      	ldr	r2, [sp, #12]
 8008134:	1d11      	adds	r1, r2, #4
 8008136:	6812      	ldr	r2, [r2, #0]
 8008138:	9103      	str	r1, [sp, #12]
 800813a:	2a00      	cmp	r2, #0
 800813c:	db01      	blt.n	8008142 <_svfiprintf_r+0x102>
 800813e:	9207      	str	r2, [sp, #28]
 8008140:	e004      	b.n	800814c <_svfiprintf_r+0x10c>
 8008142:	4252      	negs	r2, r2
 8008144:	f043 0302 	orr.w	r3, r3, #2
 8008148:	9207      	str	r2, [sp, #28]
 800814a:	9304      	str	r3, [sp, #16]
 800814c:	7823      	ldrb	r3, [r4, #0]
 800814e:	2b2e      	cmp	r3, #46	@ 0x2e
 8008150:	d10a      	bne.n	8008168 <_svfiprintf_r+0x128>
 8008152:	7863      	ldrb	r3, [r4, #1]
 8008154:	2b2a      	cmp	r3, #42	@ 0x2a
 8008156:	d132      	bne.n	80081be <_svfiprintf_r+0x17e>
 8008158:	9b03      	ldr	r3, [sp, #12]
 800815a:	1d1a      	adds	r2, r3, #4
 800815c:	681b      	ldr	r3, [r3, #0]
 800815e:	9203      	str	r2, [sp, #12]
 8008160:	ea43 73e3 	orr.w	r3, r3, r3, asr #31
 8008164:	3402      	adds	r4, #2
 8008166:	9305      	str	r3, [sp, #20]
 8008168:	f8df 90c0 	ldr.w	r9, [pc, #192]	@ 800822c <_svfiprintf_r+0x1ec>
 800816c:	7821      	ldrb	r1, [r4, #0]
 800816e:	2203      	movs	r2, #3
 8008170:	4648      	mov	r0, r9
 8008172:	f7f8 f82d 	bl	80001d0 <memchr>
 8008176:	b138      	cbz	r0, 8008188 <_svfiprintf_r+0x148>
 8008178:	9b04      	ldr	r3, [sp, #16]
 800817a:	eba0 0009 	sub.w	r0, r0, r9
 800817e:	2240      	movs	r2, #64	@ 0x40
 8008180:	4082      	lsls	r2, r0
 8008182:	4313      	orrs	r3, r2
 8008184:	3401      	adds	r4, #1
 8008186:	9304      	str	r3, [sp, #16]
 8008188:	f814 1b01 	ldrb.w	r1, [r4], #1
 800818c:	4824      	ldr	r0, [pc, #144]	@ (8008220 <_svfiprintf_r+0x1e0>)
 800818e:	f88d 1028 	strb.w	r1, [sp, #40]	@ 0x28
 8008192:	2206      	movs	r2, #6
 8008194:	f7f8 f81c 	bl	80001d0 <memchr>
 8008198:	2800      	cmp	r0, #0
 800819a:	d035      	beq.n	8008208 <_svfiprintf_r+0x1c8>
 800819c:	4821      	ldr	r0, [pc, #132]	@ (8008224 <_svfiprintf_r+0x1e4>)
 800819e:	bb18      	cbnz	r0, 80081e8 <_svfiprintf_r+0x1a8>
 80081a0:	9b03      	ldr	r3, [sp, #12]
 80081a2:	3307      	adds	r3, #7
 80081a4:	f023 0307 	bic.w	r3, r3, #7
 80081a8:	3308      	adds	r3, #8
 80081aa:	9303      	str	r3, [sp, #12]
 80081ac:	9b09      	ldr	r3, [sp, #36]	@ 0x24
 80081ae:	4403      	add	r3, r0
 80081b0:	9309      	str	r3, [sp, #36]	@ 0x24
 80081b2:	e76c      	b.n	800808e <_svfiprintf_r+0x4e>
 80081b4:	fb0c 3202 	mla	r2, ip, r2, r3
 80081b8:	460c      	mov	r4, r1
 80081ba:	2001      	movs	r0, #1
 80081bc:	e7aa      	b.n	8008114 <_svfiprintf_r+0xd4>
 80081be:	2300      	movs	r3, #0
 80081c0:	3401      	adds	r4, #1
 80081c2:	9305      	str	r3, [sp, #20]
 80081c4:	4619      	mov	r1, r3
 80081c6:	f04f 0c0a 	mov.w	ip, #10
 80081ca:	4620      	mov	r0, r4
 80081cc:	f810 2b01 	ldrb.w	r2, [r0], #1
 80081d0:	3a30      	subs	r2, #48	@ 0x30
 80081d2:	2a09      	cmp	r2, #9
 80081d4:	d903      	bls.n	80081de <_svfiprintf_r+0x19e>
 80081d6:	2b00      	cmp	r3, #0
 80081d8:	d0c6      	beq.n	8008168 <_svfiprintf_r+0x128>
 80081da:	9105      	str	r1, [sp, #20]
 80081dc:	e7c4      	b.n	8008168 <_svfiprintf_r+0x128>
 80081de:	fb0c 2101 	mla	r1, ip, r1, r2
 80081e2:	4604      	mov	r4, r0
 80081e4:	2301      	movs	r3, #1
 80081e6:	e7f0      	b.n	80081ca <_svfiprintf_r+0x18a>
 80081e8:	ab03      	add	r3, sp, #12
 80081ea:	9300      	str	r3, [sp, #0]
 80081ec:	462a      	mov	r2, r5
 80081ee:	4b0e      	ldr	r3, [pc, #56]	@ (8008228 <_svfiprintf_r+0x1e8>)
 80081f0:	a904      	add	r1, sp, #16
 80081f2:	4630      	mov	r0, r6
 80081f4:	f7fd fe5e 	bl	8005eb4 <_printf_float>
 80081f8:	1c42      	adds	r2, r0, #1
 80081fa:	d1d7      	bne.n	80081ac <_svfiprintf_r+0x16c>
 80081fc:	89ab      	ldrh	r3, [r5, #12]
 80081fe:	065b      	lsls	r3, r3, #25
 8008200:	f53f af32 	bmi.w	8008068 <_svfiprintf_r+0x28>
 8008204:	9809      	ldr	r0, [sp, #36]	@ 0x24
 8008206:	e731      	b.n	800806c <_svfiprintf_r+0x2c>
 8008208:	ab03      	add	r3, sp, #12
 800820a:	9300      	str	r3, [sp, #0]
 800820c:	462a      	mov	r2, r5
 800820e:	4b06      	ldr	r3, [pc, #24]	@ (8008228 <_svfiprintf_r+0x1e8>)
 8008210:	a904      	add	r1, sp, #16
 8008212:	4630      	mov	r0, r6
 8008214:	f7fe f8e4 	bl	80063e0 <_printf_i>
 8008218:	e7ee      	b.n	80081f8 <_svfiprintf_r+0x1b8>
 800821a:	bf00      	nop
 800821c:	08008c12 	.word	0x08008c12
 8008220:	08008c1c 	.word	0x08008c1c
 8008224:	08005eb5 	.word	0x08005eb5
 8008228:	08007f81 	.word	0x08007f81
 800822c:	08008c18 	.word	0x08008c18

08008230 <__sflush_r>:
 8008230:	f9b1 200c 	ldrsh.w	r2, [r1, #12]
 8008234:	e92d 41f0 	stmdb	sp!, {r4, r5, r6, r7, r8, lr}
 8008238:	0716      	lsls	r6, r2, #28
 800823a:	4605      	mov	r5, r0
 800823c:	460c      	mov	r4, r1
 800823e:	d451      	bmi.n	80082e4 <__sflush_r+0xb4>
 8008240:	684b      	ldr	r3, [r1, #4]
 8008242:	2b00      	cmp	r3, #0
 8008244:	dc02      	bgt.n	800824c <__sflush_r+0x1c>
 8008246:	6c0b      	ldr	r3, [r1, #64]	@ 0x40
 8008248:	2b00      	cmp	r3, #0
 800824a:	dd49      	ble.n	80082e0 <__sflush_r+0xb0>
 800824c:	6ae6      	ldr	r6, [r4, #44]	@ 0x2c
 800824e:	2e00      	cmp	r6, #0
 8008250:	d046      	beq.n	80082e0 <__sflush_r+0xb0>
 8008252:	2300      	movs	r3, #0
 8008254:	f412 5280 	ands.w	r2, r2, #4096	@ 0x1000
 8008258:	682f      	ldr	r7, [r5, #0]
 800825a:	602b      	str	r3, [r5, #0]
 800825c:	d031      	beq.n	80082c2 <__sflush_r+0x92>
 800825e:	6d62      	ldr	r2, [r4, #84]	@ 0x54
 8008260:	89a3      	ldrh	r3, [r4, #12]
 8008262:	0759      	lsls	r1, r3, #29
 8008264:	d505      	bpl.n	8008272 <__sflush_r+0x42>
 8008266:	6863      	ldr	r3, [r4, #4]
 8008268:	1ad2      	subs	r2, r2, r3
 800826a:	6b63      	ldr	r3, [r4, #52]	@ 0x34
 800826c:	b10b      	cbz	r3, 8008272 <__sflush_r+0x42>
 800826e:	6c23      	ldr	r3, [r4, #64]	@ 0x40
 8008270:	1ad2      	subs	r2, r2, r3
 8008272:	2300      	movs	r3, #0
 8008274:	6ae6      	ldr	r6, [r4, #44]	@ 0x2c
 8008276:	6a21      	ldr	r1, [r4, #32]
 8008278:	4628      	mov	r0, r5
 800827a:	47b0      	blx	r6
 800827c:	1c42      	adds	r2, r0, #1
 800827e:	f9b4 300c 	ldrsh.w	r3, [r4, #12]
 8008282:	d106      	bne.n	8008292 <__sflush_r+0x62>
 8008284:	6829      	ldr	r1, [r5, #0]
 8008286:	291d      	cmp	r1, #29
 8008288:	d846      	bhi.n	8008318 <__sflush_r+0xe8>
 800828a:	4a29      	ldr	r2, [pc, #164]	@ (8008330 <__sflush_r+0x100>)
 800828c:	40ca      	lsrs	r2, r1
 800828e:	07d6      	lsls	r6, r2, #31
 8008290:	d542      	bpl.n	8008318 <__sflush_r+0xe8>
 8008292:	2200      	movs	r2, #0
 8008294:	6062      	str	r2, [r4, #4]
 8008296:	04d9      	lsls	r1, r3, #19
 8008298:	6922      	ldr	r2, [r4, #16]
 800829a:	6022      	str	r2, [r4, #0]
 800829c:	d504      	bpl.n	80082a8 <__sflush_r+0x78>
 800829e:	1c42      	adds	r2, r0, #1
 80082a0:	d101      	bne.n	80082a6 <__sflush_r+0x76>
 80082a2:	682b      	ldr	r3, [r5, #0]
 80082a4:	b903      	cbnz	r3, 80082a8 <__sflush_r+0x78>
 80082a6:	6560      	str	r0, [r4, #84]	@ 0x54
 80082a8:	6b61      	ldr	r1, [r4, #52]	@ 0x34
 80082aa:	602f      	str	r7, [r5, #0]
 80082ac:	b1c1      	cbz	r1, 80082e0 <__sflush_r+0xb0>
 80082ae:	f104 0344 	add.w	r3, r4, #68	@ 0x44
 80082b2:	4299      	cmp	r1, r3
 80082b4:	d002      	beq.n	80082bc <__sflush_r+0x8c>
 80082b6:	4628      	mov	r0, r5
 80082b8:	f7ff f9da 	bl	8007670 <_free_r>
 80082bc:	2300      	movs	r3, #0
 80082be:	6363      	str	r3, [r4, #52]	@ 0x34
 80082c0:	e00e      	b.n	80082e0 <__sflush_r+0xb0>
 80082c2:	6a21      	ldr	r1, [r4, #32]
 80082c4:	2301      	movs	r3, #1
 80082c6:	4628      	mov	r0, r5
 80082c8:	47b0      	blx	r6
 80082ca:	4602      	mov	r2, r0
 80082cc:	1c50      	adds	r0, r2, #1
 80082ce:	d1c7      	bne.n	8008260 <__sflush_r+0x30>
 80082d0:	682b      	ldr	r3, [r5, #0]
 80082d2:	2b00      	cmp	r3, #0
 80082d4:	d0c4      	beq.n	8008260 <__sflush_r+0x30>
 80082d6:	2b1d      	cmp	r3, #29
 80082d8:	d001      	beq.n	80082de <__sflush_r+0xae>
 80082da:	2b16      	cmp	r3, #22
 80082dc:	d11a      	bne.n	8008314 <__sflush_r+0xe4>
 80082de:	602f      	str	r7, [r5, #0]
 80082e0:	2000      	movs	r0, #0
 80082e2:	e01e      	b.n	8008322 <__sflush_r+0xf2>
 80082e4:	690f      	ldr	r7, [r1, #16]
 80082e6:	2f00      	cmp	r7, #0
 80082e8:	d0fa      	beq.n	80082e0 <__sflush_r+0xb0>
 80082ea:	0793      	lsls	r3, r2, #30
 80082ec:	680e      	ldr	r6, [r1, #0]
 80082ee:	bf08      	it	eq
 80082f0:	694b      	ldreq	r3, [r1, #20]
 80082f2:	600f      	str	r7, [r1, #0]
 80082f4:	bf18      	it	ne
 80082f6:	2300      	movne	r3, #0
 80082f8:	eba6 0807 	sub.w	r8, r6, r7
 80082fc:	608b      	str	r3, [r1, #8]
 80082fe:	f1b8 0f00 	cmp.w	r8, #0
 8008302:	dded      	ble.n	80082e0 <__sflush_r+0xb0>
 8008304:	6a21      	ldr	r1, [r4, #32]
 8008306:	6aa6      	ldr	r6, [r4, #40]	@ 0x28
 8008308:	4643      	mov	r3, r8
 800830a:	463a      	mov	r2, r7
 800830c:	4628      	mov	r0, r5
 800830e:	47b0      	blx	r6
 8008310:	2800      	cmp	r0, #0
 8008312:	dc08      	bgt.n	8008326 <__sflush_r+0xf6>
 8008314:	f9b4 300c 	ldrsh.w	r3, [r4, #12]
 8008318:	f043 0340 	orr.w	r3, r3, #64	@ 0x40
 800831c:	81a3      	strh	r3, [r4, #12]
 800831e:	f04f 30ff 	mov.w	r0, #4294967295
 8008322:	e8bd 81f0 	ldmia.w	sp!, {r4, r5, r6, r7, r8, pc}
 8008326:	4407      	add	r7, r0
 8008328:	eba8 0800 	sub.w	r8, r8, r0
 800832c:	e7e7      	b.n	80082fe <__sflush_r+0xce>
 800832e:	bf00      	nop
 8008330:	20400001 	.word	0x20400001

08008334 <_fflush_r>:
 8008334:	b538      	push	{r3, r4, r5, lr}
 8008336:	690b      	ldr	r3, [r1, #16]
 8008338:	4605      	mov	r5, r0
 800833a:	460c      	mov	r4, r1
 800833c:	b913      	cbnz	r3, 8008344 <_fflush_r+0x10>
 800833e:	2500      	movs	r5, #0
 8008340:	4628      	mov	r0, r5
 8008342:	bd38      	pop	{r3, r4, r5, pc}
 8008344:	b118      	cbz	r0, 800834e <_fflush_r+0x1a>
 8008346:	6a03      	ldr	r3, [r0, #32]
 8008348:	b90b      	cbnz	r3, 800834e <_fflush_r+0x1a>
 800834a:	f7fe f9fd 	bl	8006748 <__sinit>
 800834e:	f9b4 300c 	ldrsh.w	r3, [r4, #12]
 8008352:	2b00      	cmp	r3, #0
 8008354:	d0f3      	beq.n	800833e <_fflush_r+0xa>
 8008356:	6e62      	ldr	r2, [r4, #100]	@ 0x64
 8008358:	07d0      	lsls	r0, r2, #31
 800835a:	d404      	bmi.n	8008366 <_fflush_r+0x32>
 800835c:	0599      	lsls	r1, r3, #22
 800835e:	d402      	bmi.n	8008366 <_fflush_r+0x32>
 8008360:	6da0      	ldr	r0, [r4, #88]	@ 0x58
 8008362:	f7fe fb1e 	bl	80069a2 <__retarget_lock_acquire_recursive>
 8008366:	4628      	mov	r0, r5
 8008368:	4621      	mov	r1, r4
 800836a:	f7ff ff61 	bl	8008230 <__sflush_r>
 800836e:	6e63      	ldr	r3, [r4, #100]	@ 0x64
 8008370:	07da      	lsls	r2, r3, #31
 8008372:	4605      	mov	r5, r0
 8008374:	d4e4      	bmi.n	8008340 <_fflush_r+0xc>
 8008376:	89a3      	ldrh	r3, [r4, #12]
 8008378:	059b      	lsls	r3, r3, #22
 800837a:	d4e1      	bmi.n	8008340 <_fflush_r+0xc>
 800837c:	6da0      	ldr	r0, [r4, #88]	@ 0x58
 800837e:	f7fe fb11 	bl	80069a4 <__retarget_lock_release_recursive>
 8008382:	e7dd      	b.n	8008340 <_fflush_r+0xc>

08008384 <memmove>:
 8008384:	4288      	cmp	r0, r1
 8008386:	b510      	push	{r4, lr}
 8008388:	eb01 0402 	add.w	r4, r1, r2
 800838c:	d902      	bls.n	8008394 <memmove+0x10>
 800838e:	4284      	cmp	r4, r0
 8008390:	4623      	mov	r3, r4
 8008392:	d807      	bhi.n	80083a4 <memmove+0x20>
 8008394:	1e43      	subs	r3, r0, #1
 8008396:	42a1      	cmp	r1, r4
 8008398:	d007      	beq.n	80083aa <memmove+0x26>
 800839a:	f811 2b01 	ldrb.w	r2, [r1], #1
 800839e:	f803 2f01 	strb.w	r2, [r3, #1]!
 80083a2:	e7f8      	b.n	8008396 <memmove+0x12>
 80083a4:	4402      	add	r2, r0
 80083a6:	4282      	cmp	r2, r0
 80083a8:	d100      	bne.n	80083ac <memmove+0x28>
 80083aa:	bd10      	pop	{r4, pc}
 80083ac:	f813 1d01 	ldrb.w	r1, [r3, #-1]!
 80083b0:	f802 1d01 	strb.w	r1, [r2, #-1]!
 80083b4:	e7f7      	b.n	80083a6 <memmove+0x22>
	...

080083b8 <_sbrk_r>:
 80083b8:	b538      	push	{r3, r4, r5, lr}
 80083ba:	4d06      	ldr	r5, [pc, #24]	@ (80083d4 <_sbrk_r+0x1c>)
 80083bc:	2300      	movs	r3, #0
 80083be:	4604      	mov	r4, r0
 80083c0:	4608      	mov	r0, r1
 80083c2:	602b      	str	r3, [r5, #0]
 80083c4:	f7f9 f842 	bl	800144c <_sbrk>
 80083c8:	1c43      	adds	r3, r0, #1
 80083ca:	d102      	bne.n	80083d2 <_sbrk_r+0x1a>
 80083cc:	682b      	ldr	r3, [r5, #0]
 80083ce:	b103      	cbz	r3, 80083d2 <_sbrk_r+0x1a>
 80083d0:	6023      	str	r3, [r4, #0]
 80083d2:	bd38      	pop	{r3, r4, r5, pc}
 80083d4:	200004a4 	.word	0x200004a4

080083d8 <memcpy>:
 80083d8:	440a      	add	r2, r1
 80083da:	4291      	cmp	r1, r2
 80083dc:	f100 33ff 	add.w	r3, r0, #4294967295
 80083e0:	d100      	bne.n	80083e4 <memcpy+0xc>
 80083e2:	4770      	bx	lr
 80083e4:	b510      	push	{r4, lr}
 80083e6:	f811 4b01 	ldrb.w	r4, [r1], #1
 80083ea:	f803 4f01 	strb.w	r4, [r3, #1]!
 80083ee:	4291      	cmp	r1, r2
 80083f0:	d1f9      	bne.n	80083e6 <memcpy+0xe>
 80083f2:	bd10      	pop	{r4, pc}

080083f4 <__assert_func>:
 80083f4:	b51f      	push	{r0, r1, r2, r3, r4, lr}
 80083f6:	4614      	mov	r4, r2
 80083f8:	461a      	mov	r2, r3
 80083fa:	4b09      	ldr	r3, [pc, #36]	@ (8008420 <__assert_func+0x2c>)
 80083fc:	681b      	ldr	r3, [r3, #0]
 80083fe:	4605      	mov	r5, r0
 8008400:	68d8      	ldr	r0, [r3, #12]
 8008402:	b14c      	cbz	r4, 8008418 <__assert_func+0x24>
 8008404:	4b07      	ldr	r3, [pc, #28]	@ (8008424 <__assert_func+0x30>)
 8008406:	9100      	str	r1, [sp, #0]
 8008408:	e9cd 3401 	strd	r3, r4, [sp, #4]
 800840c:	4906      	ldr	r1, [pc, #24]	@ (8008428 <__assert_func+0x34>)
 800840e:	462b      	mov	r3, r5
 8008410:	f000 f870 	bl	80084f4 <fiprintf>
 8008414:	f000 f880 	bl	8008518 <abort>
 8008418:	4b04      	ldr	r3, [pc, #16]	@ (800842c <__assert_func+0x38>)
 800841a:	461c      	mov	r4, r3
 800841c:	e7f3      	b.n	8008406 <__assert_func+0x12>
 800841e:	bf00      	nop
 8008420:	20000018 	.word	0x20000018
 8008424:	08008c2d 	.word	0x08008c2d
 8008428:	08008c3a 	.word	0x08008c3a
 800842c:	08008c68 	.word	0x08008c68

08008430 <_calloc_r>:
 8008430:	b570      	push	{r4, r5, r6, lr}
 8008432:	fba1 5402 	umull	r5, r4, r1, r2
 8008436:	b934      	cbnz	r4, 8008446 <_calloc_r+0x16>
 8008438:	4629      	mov	r1, r5
 800843a:	f7ff f98d 	bl	8007758 <_malloc_r>
 800843e:	4606      	mov	r6, r0
 8008440:	b928      	cbnz	r0, 800844e <_calloc_r+0x1e>
 8008442:	4630      	mov	r0, r6
 8008444:	bd70      	pop	{r4, r5, r6, pc}
 8008446:	220c      	movs	r2, #12
 8008448:	6002      	str	r2, [r0, #0]
 800844a:	2600      	movs	r6, #0
 800844c:	e7f9      	b.n	8008442 <_calloc_r+0x12>
 800844e:	462a      	mov	r2, r5
 8008450:	4621      	mov	r1, r4
 8008452:	f7fe fa29 	bl	80068a8 <memset>
 8008456:	e7f4      	b.n	8008442 <_calloc_r+0x12>

08008458 <__ascii_mbtowc>:
 8008458:	b082      	sub	sp, #8
 800845a:	b901      	cbnz	r1, 800845e <__ascii_mbtowc+0x6>
 800845c:	a901      	add	r1, sp, #4
 800845e:	b142      	cbz	r2, 8008472 <__ascii_mbtowc+0x1a>
 8008460:	b14b      	cbz	r3, 8008476 <__ascii_mbtowc+0x1e>
 8008462:	7813      	ldrb	r3, [r2, #0]
 8008464:	600b      	str	r3, [r1, #0]
 8008466:	7812      	ldrb	r2, [r2, #0]
 8008468:	1e10      	subs	r0, r2, #0
 800846a:	bf18      	it	ne
 800846c:	2001      	movne	r0, #1
 800846e:	b002      	add	sp, #8
 8008470:	4770      	bx	lr
 8008472:	4610      	mov	r0, r2
 8008474:	e7fb      	b.n	800846e <__ascii_mbtowc+0x16>
 8008476:	f06f 0001 	mvn.w	r0, #1
 800847a:	e7f8      	b.n	800846e <__ascii_mbtowc+0x16>

0800847c <_realloc_r>:
 800847c:	e92d 41f0 	stmdb	sp!, {r4, r5, r6, r7, r8, lr}
 8008480:	4607      	mov	r7, r0
 8008482:	4614      	mov	r4, r2
 8008484:	460d      	mov	r5, r1
 8008486:	b921      	cbnz	r1, 8008492 <_realloc_r+0x16>
 8008488:	e8bd 41f0 	ldmia.w	sp!, {r4, r5, r6, r7, r8, lr}
 800848c:	4611      	mov	r1, r2
 800848e:	f7ff b963 	b.w	8007758 <_malloc_r>
 8008492:	b92a      	cbnz	r2, 80084a0 <_realloc_r+0x24>
 8008494:	f7ff f8ec 	bl	8007670 <_free_r>
 8008498:	4625      	mov	r5, r4
 800849a:	4628      	mov	r0, r5
 800849c:	e8bd 81f0 	ldmia.w	sp!, {r4, r5, r6, r7, r8, pc}
 80084a0:	f000 f841 	bl	8008526 <_malloc_usable_size_r>
 80084a4:	4284      	cmp	r4, r0
 80084a6:	4606      	mov	r6, r0
 80084a8:	d802      	bhi.n	80084b0 <_realloc_r+0x34>
 80084aa:	ebb4 0f50 	cmp.w	r4, r0, lsr #1
 80084ae:	d8f4      	bhi.n	800849a <_realloc_r+0x1e>
 80084b0:	4621      	mov	r1, r4
 80084b2:	4638      	mov	r0, r7
 80084b4:	f7ff f950 	bl	8007758 <_malloc_r>
 80084b8:	4680      	mov	r8, r0
 80084ba:	b908      	cbnz	r0, 80084c0 <_realloc_r+0x44>
 80084bc:	4645      	mov	r5, r8
 80084be:	e7ec      	b.n	800849a <_realloc_r+0x1e>
 80084c0:	42b4      	cmp	r4, r6
 80084c2:	4622      	mov	r2, r4
 80084c4:	4629      	mov	r1, r5
 80084c6:	bf28      	it	cs
 80084c8:	4632      	movcs	r2, r6
 80084ca:	f7ff ff85 	bl	80083d8 <memcpy>
 80084ce:	4629      	mov	r1, r5
 80084d0:	4638      	mov	r0, r7
 80084d2:	f7ff f8cd 	bl	8007670 <_free_r>
 80084d6:	e7f1      	b.n	80084bc <_realloc_r+0x40>

080084d8 <__ascii_wctomb>:
 80084d8:	4603      	mov	r3, r0
 80084da:	4608      	mov	r0, r1
 80084dc:	b141      	cbz	r1, 80084f0 <__ascii_wctomb+0x18>
 80084de:	2aff      	cmp	r2, #255	@ 0xff
 80084e0:	d904      	bls.n	80084ec <__ascii_wctomb+0x14>
 80084e2:	228a      	movs	r2, #138	@ 0x8a
 80084e4:	601a      	str	r2, [r3, #0]
 80084e6:	f04f 30ff 	mov.w	r0, #4294967295
 80084ea:	4770      	bx	lr
 80084ec:	700a      	strb	r2, [r1, #0]
 80084ee:	2001      	movs	r0, #1
 80084f0:	4770      	bx	lr
	...

080084f4 <fiprintf>:
 80084f4:	b40e      	push	{r1, r2, r3}
 80084f6:	b503      	push	{r0, r1, lr}
 80084f8:	4601      	mov	r1, r0
 80084fa:	ab03      	add	r3, sp, #12
 80084fc:	4805      	ldr	r0, [pc, #20]	@ (8008514 <fiprintf+0x20>)
 80084fe:	f853 2b04 	ldr.w	r2, [r3], #4
 8008502:	6800      	ldr	r0, [r0, #0]
 8008504:	9301      	str	r3, [sp, #4]
 8008506:	f000 f83f 	bl	8008588 <_vfiprintf_r>
 800850a:	b002      	add	sp, #8
 800850c:	f85d eb04 	ldr.w	lr, [sp], #4
 8008510:	b003      	add	sp, #12
 8008512:	4770      	bx	lr
 8008514:	20000018 	.word	0x20000018

08008518 <abort>:
 8008518:	b508      	push	{r3, lr}
 800851a:	2006      	movs	r0, #6
 800851c:	f000 fa02 	bl	8008924 <raise>
 8008520:	2001      	movs	r0, #1
 8008522:	f7f8 ff1b 	bl	800135c <_exit>

08008526 <_malloc_usable_size_r>:
 8008526:	f851 3c04 	ldr.w	r3, [r1, #-4]
 800852a:	1f18      	subs	r0, r3, #4
 800852c:	2b00      	cmp	r3, #0
 800852e:	bfbc      	itt	lt
 8008530:	580b      	ldrlt	r3, [r1, r0]
 8008532:	18c0      	addlt	r0, r0, r3
 8008534:	4770      	bx	lr

08008536 <__sfputc_r>:
 8008536:	6893      	ldr	r3, [r2, #8]
 8008538:	3b01      	subs	r3, #1
 800853a:	2b00      	cmp	r3, #0
 800853c:	b410      	push	{r4}
 800853e:	6093      	str	r3, [r2, #8]
 8008540:	da08      	bge.n	8008554 <__sfputc_r+0x1e>
 8008542:	6994      	ldr	r4, [r2, #24]
 8008544:	42a3      	cmp	r3, r4
 8008546:	db01      	blt.n	800854c <__sfputc_r+0x16>
 8008548:	290a      	cmp	r1, #10
 800854a:	d103      	bne.n	8008554 <__sfputc_r+0x1e>
 800854c:	f85d 4b04 	ldr.w	r4, [sp], #4
 8008550:	f000 b92e 	b.w	80087b0 <__swbuf_r>
 8008554:	6813      	ldr	r3, [r2, #0]
 8008556:	1c58      	adds	r0, r3, #1
 8008558:	6010      	str	r0, [r2, #0]
 800855a:	7019      	strb	r1, [r3, #0]
 800855c:	4608      	mov	r0, r1
 800855e:	f85d 4b04 	ldr.w	r4, [sp], #4
 8008562:	4770      	bx	lr

08008564 <__sfputs_r>:
 8008564:	b5f8      	push	{r3, r4, r5, r6, r7, lr}
 8008566:	4606      	mov	r6, r0
 8008568:	460f      	mov	r7, r1
 800856a:	4614      	mov	r4, r2
 800856c:	18d5      	adds	r5, r2, r3
 800856e:	42ac      	cmp	r4, r5
 8008570:	d101      	bne.n	8008576 <__sfputs_r+0x12>
 8008572:	2000      	movs	r0, #0
 8008574:	e007      	b.n	8008586 <__sfputs_r+0x22>
 8008576:	f814 1b01 	ldrb.w	r1, [r4], #1
 800857a:	463a      	mov	r2, r7
 800857c:	4630      	mov	r0, r6
 800857e:	f7ff ffda 	bl	8008536 <__sfputc_r>
 8008582:	1c43      	adds	r3, r0, #1
 8008584:	d1f3      	bne.n	800856e <__sfputs_r+0xa>
 8008586:	bdf8      	pop	{r3, r4, r5, r6, r7, pc}

08008588 <_vfiprintf_r>:
 8008588:	e92d 47f0 	stmdb	sp!, {r4, r5, r6, r7, r8, r9, sl, lr}
 800858c:	460d      	mov	r5, r1
 800858e:	b09c      	sub	sp, #112	@ 0x70
 8008590:	4614      	mov	r4, r2
 8008592:	461f      	mov	r7, r3
 8008594:	4606      	mov	r6, r0
 8008596:	b118      	cbz	r0, 80085a0 <_vfiprintf_r+0x18>
 8008598:	6a03      	ldr	r3, [r0, #32]
 800859a:	b90b      	cbnz	r3, 80085a0 <_vfiprintf_r+0x18>
 800859c:	f7fe f8d4 	bl	8006748 <__sinit>
 80085a0:	6e6b      	ldr	r3, [r5, #100]	@ 0x64
 80085a2:	07d9      	lsls	r1, r3, #31
 80085a4:	d405      	bmi.n	80085b2 <_vfiprintf_r+0x2a>
 80085a6:	89ab      	ldrh	r3, [r5, #12]
 80085a8:	059a      	lsls	r2, r3, #22
 80085aa:	d402      	bmi.n	80085b2 <_vfiprintf_r+0x2a>
 80085ac:	6da8      	ldr	r0, [r5, #88]	@ 0x58
 80085ae:	f7fe f9f8 	bl	80069a2 <__retarget_lock_acquire_recursive>
 80085b2:	89ab      	ldrh	r3, [r5, #12]
 80085b4:	071b      	lsls	r3, r3, #28
 80085b6:	d501      	bpl.n	80085bc <_vfiprintf_r+0x34>
 80085b8:	692b      	ldr	r3, [r5, #16]
 80085ba:	b99b      	cbnz	r3, 80085e4 <_vfiprintf_r+0x5c>
 80085bc:	4629      	mov	r1, r5
 80085be:	4630      	mov	r0, r6
 80085c0:	f000 f934 	bl	800882c <__swsetup_r>
 80085c4:	b170      	cbz	r0, 80085e4 <_vfiprintf_r+0x5c>
 80085c6:	6e6b      	ldr	r3, [r5, #100]	@ 0x64
 80085c8:	07dc      	lsls	r4, r3, #31
 80085ca:	d504      	bpl.n	80085d6 <_vfiprintf_r+0x4e>
 80085cc:	f04f 30ff 	mov.w	r0, #4294967295
 80085d0:	b01c      	add	sp, #112	@ 0x70
 80085d2:	e8bd 87f0 	ldmia.w	sp!, {r4, r5, r6, r7, r8, r9, sl, pc}
 80085d6:	89ab      	ldrh	r3, [r5, #12]
 80085d8:	0598      	lsls	r0, r3, #22
 80085da:	d4f7      	bmi.n	80085cc <_vfiprintf_r+0x44>
 80085dc:	6da8      	ldr	r0, [r5, #88]	@ 0x58
 80085de:	f7fe f9e1 	bl	80069a4 <__retarget_lock_release_recursive>
 80085e2:	e7f3      	b.n	80085cc <_vfiprintf_r+0x44>
 80085e4:	2300      	movs	r3, #0
 80085e6:	9309      	str	r3, [sp, #36]	@ 0x24
 80085e8:	2320      	movs	r3, #32
 80085ea:	f88d 3029 	strb.w	r3, [sp, #41]	@ 0x29
 80085ee:	9703      	str	r7, [sp, #12]
 80085f0:	2330      	movs	r3, #48	@ 0x30
 80085f2:	4f6a      	ldr	r7, [pc, #424]	@ (800879c <_vfiprintf_r+0x214>)
 80085f4:	f88d 302a 	strb.w	r3, [sp, #42]	@ 0x2a
 80085f8:	f04f 0801 	mov.w	r8, #1
 80085fc:	4623      	mov	r3, r4
 80085fe:	4699      	mov	r9, r3
 8008600:	f813 2b01 	ldrb.w	r2, [r3], #1
 8008604:	b10a      	cbz	r2, 800860a <_vfiprintf_r+0x82>
 8008606:	2a25      	cmp	r2, #37	@ 0x25
 8008608:	d1f9      	bne.n	80085fe <_vfiprintf_r+0x76>
 800860a:	ebb9 0a04 	subs.w	sl, r9, r4
 800860e:	d00b      	beq.n	8008628 <_vfiprintf_r+0xa0>
 8008610:	4653      	mov	r3, sl
 8008612:	4622      	mov	r2, r4
 8008614:	4629      	mov	r1, r5
 8008616:	4630      	mov	r0, r6
 8008618:	f7ff ffa4 	bl	8008564 <__sfputs_r>
 800861c:	3001      	adds	r0, #1
 800861e:	f000 80a4 	beq.w	800876a <_vfiprintf_r+0x1e2>
 8008622:	9a09      	ldr	r2, [sp, #36]	@ 0x24
 8008624:	4452      	add	r2, sl
 8008626:	9209      	str	r2, [sp, #36]	@ 0x24
 8008628:	f899 3000 	ldrb.w	r3, [r9]
 800862c:	2b00      	cmp	r3, #0
 800862e:	f000 809c 	beq.w	800876a <_vfiprintf_r+0x1e2>
 8008632:	2300      	movs	r3, #0
 8008634:	f04f 32ff 	mov.w	r2, #4294967295
 8008638:	e9cd 2305 	strd	r2, r3, [sp, #20]
 800863c:	f109 0901 	add.w	r9, r9, #1
 8008640:	9304      	str	r3, [sp, #16]
 8008642:	9307      	str	r3, [sp, #28]
 8008644:	f88d 3053 	strb.w	r3, [sp, #83]	@ 0x53
 8008648:	931a      	str	r3, [sp, #104]	@ 0x68
 800864a:	464c      	mov	r4, r9
 800864c:	4853      	ldr	r0, [pc, #332]	@ (800879c <_vfiprintf_r+0x214>)
 800864e:	f814 1b01 	ldrb.w	r1, [r4], #1
 8008652:	2205      	movs	r2, #5
 8008654:	f7f7 fdbc 	bl	80001d0 <memchr>
 8008658:	9b04      	ldr	r3, [sp, #16]
 800865a:	b9d0      	cbnz	r0, 8008692 <_vfiprintf_r+0x10a>
 800865c:	06d9      	lsls	r1, r3, #27
 800865e:	bf44      	itt	mi
 8008660:	2220      	movmi	r2, #32
 8008662:	f88d 2053 	strbmi.w	r2, [sp, #83]	@ 0x53
 8008666:	071a      	lsls	r2, r3, #28
 8008668:	bf44      	itt	mi
 800866a:	222b      	movmi	r2, #43	@ 0x2b
 800866c:	f88d 2053 	strbmi.w	r2, [sp, #83]	@ 0x53
 8008670:	f899 2000 	ldrb.w	r2, [r9]
 8008674:	2a2a      	cmp	r2, #42	@ 0x2a
 8008676:	d013      	beq.n	80086a0 <_vfiprintf_r+0x118>
 8008678:	9a07      	ldr	r2, [sp, #28]
 800867a:	464c      	mov	r4, r9
 800867c:	2000      	movs	r0, #0
 800867e:	f04f 0c0a 	mov.w	ip, #10
 8008682:	4621      	mov	r1, r4
 8008684:	f811 3b01 	ldrb.w	r3, [r1], #1
 8008688:	3b30      	subs	r3, #48	@ 0x30
 800868a:	2b09      	cmp	r3, #9
 800868c:	d949      	bls.n	8008722 <_vfiprintf_r+0x19a>
 800868e:	b968      	cbnz	r0, 80086ac <_vfiprintf_r+0x124>
 8008690:	e013      	b.n	80086ba <_vfiprintf_r+0x132>
 8008692:	1bc0      	subs	r0, r0, r7
 8008694:	fa08 f000 	lsl.w	r0, r8, r0
 8008698:	4318      	orrs	r0, r3
 800869a:	9004      	str	r0, [sp, #16]
 800869c:	46a1      	mov	r9, r4
 800869e:	e7d4      	b.n	800864a <_vfiprintf_r+0xc2>
 80086a0:	9a03      	ldr	r2, [sp, #12]
 80086a2:	1d11      	adds	r1, r2, #4
 80086a4:	6812      	ldr	r2, [r2, #0]
 80086a6:	9103      	str	r1, [sp, #12]
 80086a8:	2a00      	cmp	r2, #0
 80086aa:	db01      	blt.n	80086b0 <_vfiprintf_r+0x128>
 80086ac:	9207      	str	r2, [sp, #28]
 80086ae:	e004      	b.n	80086ba <_vfiprintf_r+0x132>
 80086b0:	4252      	negs	r2, r2
 80086b2:	f043 0302 	orr.w	r3, r3, #2
 80086b6:	9207      	str	r2, [sp, #28]
 80086b8:	9304      	str	r3, [sp, #16]
 80086ba:	7823      	ldrb	r3, [r4, #0]
 80086bc:	2b2e      	cmp	r3, #46	@ 0x2e
 80086be:	d10a      	bne.n	80086d6 <_vfiprintf_r+0x14e>
 80086c0:	7863      	ldrb	r3, [r4, #1]
 80086c2:	2b2a      	cmp	r3, #42	@ 0x2a
 80086c4:	d132      	bne.n	800872c <_vfiprintf_r+0x1a4>
 80086c6:	9b03      	ldr	r3, [sp, #12]
 80086c8:	1d1a      	adds	r2, r3, #4
 80086ca:	681b      	ldr	r3, [r3, #0]
 80086cc:	9203      	str	r2, [sp, #12]
 80086ce:	ea43 73e3 	orr.w	r3, r3, r3, asr #31
 80086d2:	3402      	adds	r4, #2
 80086d4:	9305      	str	r3, [sp, #20]
 80086d6:	f8df 90d4 	ldr.w	r9, [pc, #212]	@ 80087ac <_vfiprintf_r+0x224>
 80086da:	7821      	ldrb	r1, [r4, #0]
 80086dc:	2203      	movs	r2, #3
 80086de:	4648      	mov	r0, r9
 80086e0:	f7f7 fd76 	bl	80001d0 <memchr>
 80086e4:	b138      	cbz	r0, 80086f6 <_vfiprintf_r+0x16e>
 80086e6:	9b04      	ldr	r3, [sp, #16]
 80086e8:	eba0 0009 	sub.w	r0, r0, r9
 80086ec:	2240      	movs	r2, #64	@ 0x40
 80086ee:	4082      	lsls	r2, r0
 80086f0:	4313      	orrs	r3, r2
 80086f2:	3401      	adds	r4, #1
 80086f4:	9304      	str	r3, [sp, #16]
 80086f6:	f814 1b01 	ldrb.w	r1, [r4], #1
 80086fa:	4829      	ldr	r0, [pc, #164]	@ (80087a0 <_vfiprintf_r+0x218>)
 80086fc:	f88d 1028 	strb.w	r1, [sp, #40]	@ 0x28
 8008700:	2206      	movs	r2, #6
 8008702:	f7f7 fd65 	bl	80001d0 <memchr>
 8008706:	2800      	cmp	r0, #0
 8008708:	d03e      	beq.n	8008788 <_vfiprintf_r+0x200>
 800870a:	4826      	ldr	r0, [pc, #152]	@ (80087a4 <_vfiprintf_r+0x21c>)
 800870c:	bb18      	cbnz	r0, 8008756 <_vfiprintf_r+0x1ce>
 800870e:	9b03      	ldr	r3, [sp, #12]
 8008710:	3307      	adds	r3, #7
 8008712:	f023 0307 	bic.w	r3, r3, #7
 8008716:	3308      	adds	r3, #8
 8008718:	9303      	str	r3, [sp, #12]
 800871a:	9b09      	ldr	r3, [sp, #36]	@ 0x24
 800871c:	4403      	add	r3, r0
 800871e:	9309      	str	r3, [sp, #36]	@ 0x24
 8008720:	e76c      	b.n	80085fc <_vfiprintf_r+0x74>
 8008722:	fb0c 3202 	mla	r2, ip, r2, r3
 8008726:	460c      	mov	r4, r1
 8008728:	2001      	movs	r0, #1
 800872a:	e7aa      	b.n	8008682 <_vfiprintf_r+0xfa>
 800872c:	2300      	movs	r3, #0
 800872e:	3401      	adds	r4, #1
 8008730:	9305      	str	r3, [sp, #20]
 8008732:	4619      	mov	r1, r3
 8008734:	f04f 0c0a 	mov.w	ip, #10
 8008738:	4620      	mov	r0, r4
 800873a:	f810 2b01 	ldrb.w	r2, [r0], #1
 800873e:	3a30      	subs	r2, #48	@ 0x30
 8008740:	2a09      	cmp	r2, #9
 8008742:	d903      	bls.n	800874c <_vfiprintf_r+0x1c4>
 8008744:	2b00      	cmp	r3, #0
 8008746:	d0c6      	beq.n	80086d6 <_vfiprintf_r+0x14e>
 8008748:	9105      	str	r1, [sp, #20]
 800874a:	e7c4      	b.n	80086d6 <_vfiprintf_r+0x14e>
 800874c:	fb0c 2101 	mla	r1, ip, r1, r2
 8008750:	4604      	mov	r4, r0
 8008752:	2301      	movs	r3, #1
 8008754:	e7f0      	b.n	8008738 <_vfiprintf_r+0x1b0>
 8008756:	ab03      	add	r3, sp, #12
 8008758:	9300      	str	r3, [sp, #0]
 800875a:	462a      	mov	r2, r5
 800875c:	4b12      	ldr	r3, [pc, #72]	@ (80087a8 <_vfiprintf_r+0x220>)
 800875e:	a904      	add	r1, sp, #16
 8008760:	4630      	mov	r0, r6
 8008762:	f7fd fba7 	bl	8005eb4 <_printf_float>
 8008766:	1c43      	adds	r3, r0, #1
 8008768:	d1d7      	bne.n	800871a <_vfiprintf_r+0x192>
 800876a:	6e6b      	ldr	r3, [r5, #100]	@ 0x64
 800876c:	07d9      	lsls	r1, r3, #31
 800876e:	d405      	bmi.n	800877c <_vfiprintf_r+0x1f4>
 8008770:	89ab      	ldrh	r3, [r5, #12]
 8008772:	059a      	lsls	r2, r3, #22
 8008774:	d402      	bmi.n	800877c <_vfiprintf_r+0x1f4>
 8008776:	6da8      	ldr	r0, [r5, #88]	@ 0x58
 8008778:	f7fe f914 	bl	80069a4 <__retarget_lock_release_recursive>
 800877c:	89ab      	ldrh	r3, [r5, #12]
 800877e:	065b      	lsls	r3, r3, #25
 8008780:	f53f af24 	bmi.w	80085cc <_vfiprintf_r+0x44>
 8008784:	9809      	ldr	r0, [sp, #36]	@ 0x24
 8008786:	e723      	b.n	80085d0 <_vfiprintf_r+0x48>
 8008788:	ab03      	add	r3, sp, #12
 800878a:	9300      	str	r3, [sp, #0]
 800878c:	462a      	mov	r2, r5
 800878e:	4b06      	ldr	r3, [pc, #24]	@ (80087a8 <_vfiprintf_r+0x220>)
 8008790:	a904      	add	r1, sp, #16
 8008792:	4630      	mov	r0, r6
 8008794:	f7fd fe24 	bl	80063e0 <_printf_i>
 8008798:	e7e5      	b.n	8008766 <_vfiprintf_r+0x1de>
 800879a:	bf00      	nop
 800879c:	08008c12 	.word	0x08008c12
 80087a0:	08008c1c 	.word	0x08008c1c
 80087a4:	08005eb5 	.word	0x08005eb5
 80087a8:	08008565 	.word	0x08008565
 80087ac:	08008c18 	.word	0x08008c18

080087b0 <__swbuf_r>:
 80087b0:	b5f8      	push	{r3, r4, r5, r6, r7, lr}
 80087b2:	460e      	mov	r6, r1
 80087b4:	4614      	mov	r4, r2
 80087b6:	4605      	mov	r5, r0
 80087b8:	b118      	cbz	r0, 80087c2 <__swbuf_r+0x12>
 80087ba:	6a03      	ldr	r3, [r0, #32]
 80087bc:	b90b      	cbnz	r3, 80087c2 <__swbuf_r+0x12>
 80087be:	f7fd ffc3 	bl	8006748 <__sinit>
 80087c2:	69a3      	ldr	r3, [r4, #24]
 80087c4:	60a3      	str	r3, [r4, #8]
 80087c6:	89a3      	ldrh	r3, [r4, #12]
 80087c8:	071a      	lsls	r2, r3, #28
 80087ca:	d501      	bpl.n	80087d0 <__swbuf_r+0x20>
 80087cc:	6923      	ldr	r3, [r4, #16]
 80087ce:	b943      	cbnz	r3, 80087e2 <__swbuf_r+0x32>
 80087d0:	4621      	mov	r1, r4
 80087d2:	4628      	mov	r0, r5
 80087d4:	f000 f82a 	bl	800882c <__swsetup_r>
 80087d8:	b118      	cbz	r0, 80087e2 <__swbuf_r+0x32>
 80087da:	f04f 37ff 	mov.w	r7, #4294967295
 80087de:	4638      	mov	r0, r7
 80087e0:	bdf8      	pop	{r3, r4, r5, r6, r7, pc}
 80087e2:	6823      	ldr	r3, [r4, #0]
 80087e4:	6922      	ldr	r2, [r4, #16]
 80087e6:	1a98      	subs	r0, r3, r2
 80087e8:	6963      	ldr	r3, [r4, #20]
 80087ea:	b2f6      	uxtb	r6, r6
 80087ec:	4283      	cmp	r3, r0
 80087ee:	4637      	mov	r7, r6
 80087f0:	dc05      	bgt.n	80087fe <__swbuf_r+0x4e>
 80087f2:	4621      	mov	r1, r4
 80087f4:	4628      	mov	r0, r5
 80087f6:	f7ff fd9d 	bl	8008334 <_fflush_r>
 80087fa:	2800      	cmp	r0, #0
 80087fc:	d1ed      	bne.n	80087da <__swbuf_r+0x2a>
 80087fe:	68a3      	ldr	r3, [r4, #8]
 8008800:	3b01      	subs	r3, #1
 8008802:	60a3      	str	r3, [r4, #8]
 8008804:	6823      	ldr	r3, [r4, #0]
 8008806:	1c5a      	adds	r2, r3, #1
 8008808:	6022      	str	r2, [r4, #0]
 800880a:	701e      	strb	r6, [r3, #0]
 800880c:	6962      	ldr	r2, [r4, #20]
 800880e:	1c43      	adds	r3, r0, #1
 8008810:	429a      	cmp	r2, r3
 8008812:	d004      	beq.n	800881e <__swbuf_r+0x6e>
 8008814:	89a3      	ldrh	r3, [r4, #12]
 8008816:	07db      	lsls	r3, r3, #31
 8008818:	d5e1      	bpl.n	80087de <__swbuf_r+0x2e>
 800881a:	2e0a      	cmp	r6, #10
 800881c:	d1df      	bne.n	80087de <__swbuf_r+0x2e>
 800881e:	4621      	mov	r1, r4
 8008820:	4628      	mov	r0, r5
 8008822:	f7ff fd87 	bl	8008334 <_fflush_r>
 8008826:	2800      	cmp	r0, #0
 8008828:	d0d9      	beq.n	80087de <__swbuf_r+0x2e>
 800882a:	e7d6      	b.n	80087da <__swbuf_r+0x2a>

0800882c <__swsetup_r>:
 800882c:	b538      	push	{r3, r4, r5, lr}
 800882e:	4b28      	ldr	r3, [pc, #160]	@ (80088d0 <__swsetup_r+0xa4>)
 8008830:	4605      	mov	r5, r0
 8008832:	6818      	ldr	r0, [r3, #0]
 8008834:	460c      	mov	r4, r1
 8008836:	b118      	cbz	r0, 8008840 <__swsetup_r+0x14>
 8008838:	6a03      	ldr	r3, [r0, #32]
 800883a:	b90b      	cbnz	r3, 8008840 <__swsetup_r+0x14>
 800883c:	f7fd ff84 	bl	8006748 <__sinit>
 8008840:	f9b4 300c 	ldrsh.w	r3, [r4, #12]
 8008844:	071a      	lsls	r2, r3, #28
 8008846:	d421      	bmi.n	800888c <__swsetup_r+0x60>
 8008848:	06d8      	lsls	r0, r3, #27
 800884a:	d407      	bmi.n	800885c <__swsetup_r+0x30>
 800884c:	2209      	movs	r2, #9
 800884e:	602a      	str	r2, [r5, #0]
 8008850:	f043 0340 	orr.w	r3, r3, #64	@ 0x40
 8008854:	81a3      	strh	r3, [r4, #12]
 8008856:	f04f 30ff 	mov.w	r0, #4294967295
 800885a:	e030      	b.n	80088be <__swsetup_r+0x92>
 800885c:	0759      	lsls	r1, r3, #29
 800885e:	d512      	bpl.n	8008886 <__swsetup_r+0x5a>
 8008860:	6b61      	ldr	r1, [r4, #52]	@ 0x34
 8008862:	b141      	cbz	r1, 8008876 <__swsetup_r+0x4a>
 8008864:	f104 0344 	add.w	r3, r4, #68	@ 0x44
 8008868:	4299      	cmp	r1, r3
 800886a:	d002      	beq.n	8008872 <__swsetup_r+0x46>
 800886c:	4628      	mov	r0, r5
 800886e:	f7fe feff 	bl	8007670 <_free_r>
 8008872:	2300      	movs	r3, #0
 8008874:	6363      	str	r3, [r4, #52]	@ 0x34
 8008876:	2200      	movs	r2, #0
 8008878:	f9b4 300c 	ldrsh.w	r3, [r4, #12]
 800887c:	6062      	str	r2, [r4, #4]
 800887e:	6922      	ldr	r2, [r4, #16]
 8008880:	6022      	str	r2, [r4, #0]
 8008882:	f023 0324 	bic.w	r3, r3, #36	@ 0x24
 8008886:	f043 0308 	orr.w	r3, r3, #8
 800888a:	81a3      	strh	r3, [r4, #12]
 800888c:	6922      	ldr	r2, [r4, #16]
 800888e:	b93a      	cbnz	r2, 80088a0 <__swsetup_r+0x74>
 8008890:	059a      	lsls	r2, r3, #22
 8008892:	d501      	bpl.n	8008898 <__swsetup_r+0x6c>
 8008894:	0618      	lsls	r0, r3, #24
 8008896:	d503      	bpl.n	80088a0 <__swsetup_r+0x74>
 8008898:	4621      	mov	r1, r4
 800889a:	4628      	mov	r0, r5
 800889c:	f000 f882 	bl	80089a4 <__smakebuf_r>
 80088a0:	f9b4 300c 	ldrsh.w	r3, [r4, #12]
 80088a4:	f013 0201 	ands.w	r2, r3, #1
 80088a8:	d00a      	beq.n	80088c0 <__swsetup_r+0x94>
 80088aa:	2200      	movs	r2, #0
 80088ac:	60a2      	str	r2, [r4, #8]
 80088ae:	6962      	ldr	r2, [r4, #20]
 80088b0:	4252      	negs	r2, r2
 80088b2:	61a2      	str	r2, [r4, #24]
 80088b4:	6922      	ldr	r2, [r4, #16]
 80088b6:	b942      	cbnz	r2, 80088ca <__swsetup_r+0x9e>
 80088b8:	f013 0080 	ands.w	r0, r3, #128	@ 0x80
 80088bc:	d1c8      	bne.n	8008850 <__swsetup_r+0x24>
 80088be:	bd38      	pop	{r3, r4, r5, pc}
 80088c0:	0799      	lsls	r1, r3, #30
 80088c2:	bf58      	it	pl
 80088c4:	6962      	ldrpl	r2, [r4, #20]
 80088c6:	60a2      	str	r2, [r4, #8]
 80088c8:	e7f4      	b.n	80088b4 <__swsetup_r+0x88>
 80088ca:	2000      	movs	r0, #0
 80088cc:	e7f7      	b.n	80088be <__swsetup_r+0x92>
 80088ce:	bf00      	nop
 80088d0:	20000018 	.word	0x20000018

080088d4 <_raise_r>:
 80088d4:	291f      	cmp	r1, #31
 80088d6:	b538      	push	{r3, r4, r5, lr}
 80088d8:	4605      	mov	r5, r0
 80088da:	460c      	mov	r4, r1
 80088dc:	d904      	bls.n	80088e8 <_raise_r+0x14>
 80088de:	2316      	movs	r3, #22
 80088e0:	6003      	str	r3, [r0, #0]
 80088e2:	f04f 30ff 	mov.w	r0, #4294967295
 80088e6:	bd38      	pop	{r3, r4, r5, pc}
 80088e8:	6bc2      	ldr	r2, [r0, #60]	@ 0x3c
 80088ea:	b112      	cbz	r2, 80088f2 <_raise_r+0x1e>
 80088ec:	f852 3021 	ldr.w	r3, [r2, r1, lsl #2]
 80088f0:	b94b      	cbnz	r3, 8008906 <_raise_r+0x32>
 80088f2:	4628      	mov	r0, r5
 80088f4:	f000 f830 	bl	8008958 <_getpid_r>
 80088f8:	4622      	mov	r2, r4
 80088fa:	4601      	mov	r1, r0
 80088fc:	4628      	mov	r0, r5
 80088fe:	e8bd 4038 	ldmia.w	sp!, {r3, r4, r5, lr}
 8008902:	f000 b817 	b.w	8008934 <_kill_r>
 8008906:	2b01      	cmp	r3, #1
 8008908:	d00a      	beq.n	8008920 <_raise_r+0x4c>
 800890a:	1c59      	adds	r1, r3, #1
 800890c:	d103      	bne.n	8008916 <_raise_r+0x42>
 800890e:	2316      	movs	r3, #22
 8008910:	6003      	str	r3, [r0, #0]
 8008912:	2001      	movs	r0, #1
 8008914:	e7e7      	b.n	80088e6 <_raise_r+0x12>
 8008916:	2100      	movs	r1, #0
 8008918:	f842 1024 	str.w	r1, [r2, r4, lsl #2]
 800891c:	4620      	mov	r0, r4
 800891e:	4798      	blx	r3
 8008920:	2000      	movs	r0, #0
 8008922:	e7e0      	b.n	80088e6 <_raise_r+0x12>

08008924 <raise>:
 8008924:	4b02      	ldr	r3, [pc, #8]	@ (8008930 <raise+0xc>)
 8008926:	4601      	mov	r1, r0
 8008928:	6818      	ldr	r0, [r3, #0]
 800892a:	f7ff bfd3 	b.w	80088d4 <_raise_r>
 800892e:	bf00      	nop
 8008930:	20000018 	.word	0x20000018

08008934 <_kill_r>:
 8008934:	b538      	push	{r3, r4, r5, lr}
 8008936:	4d07      	ldr	r5, [pc, #28]	@ (8008954 <_kill_r+0x20>)
 8008938:	2300      	movs	r3, #0
 800893a:	4604      	mov	r4, r0
 800893c:	4608      	mov	r0, r1
 800893e:	4611      	mov	r1, r2
 8008940:	602b      	str	r3, [r5, #0]
 8008942:	f7f8 fcfb 	bl	800133c <_kill>
 8008946:	1c43      	adds	r3, r0, #1
 8008948:	d102      	bne.n	8008950 <_kill_r+0x1c>
 800894a:	682b      	ldr	r3, [r5, #0]
 800894c:	b103      	cbz	r3, 8008950 <_kill_r+0x1c>
 800894e:	6023      	str	r3, [r4, #0]
 8008950:	bd38      	pop	{r3, r4, r5, pc}
 8008952:	bf00      	nop
 8008954:	200004a4 	.word	0x200004a4

08008958 <_getpid_r>:
 8008958:	f7f8 bce8 	b.w	800132c <_getpid>

0800895c <__swhatbuf_r>:
 800895c:	b570      	push	{r4, r5, r6, lr}
 800895e:	460c      	mov	r4, r1
 8008960:	f9b1 100e 	ldrsh.w	r1, [r1, #14]
 8008964:	2900      	cmp	r1, #0
 8008966:	b096      	sub	sp, #88	@ 0x58
 8008968:	4615      	mov	r5, r2
 800896a:	461e      	mov	r6, r3
 800896c:	da0a      	bge.n	8008984 <__swhatbuf_r+0x28>
 800896e:	89a1      	ldrh	r1, [r4, #12]
 8008970:	f011 0180 	ands.w	r1, r1, #128	@ 0x80
 8008974:	d113      	bne.n	800899e <__swhatbuf_r+0x42>
 8008976:	f44f 6280 	mov.w	r2, #1024	@ 0x400
 800897a:	2000      	movs	r0, #0
 800897c:	6031      	str	r1, [r6, #0]
 800897e:	602a      	str	r2, [r5, #0]
 8008980:	b016      	add	sp, #88	@ 0x58
 8008982:	bd70      	pop	{r4, r5, r6, pc}
 8008984:	466a      	mov	r2, sp
 8008986:	f000 f847 	bl	8008a18 <_fstat_r>
 800898a:	2800      	cmp	r0, #0
 800898c:	dbef      	blt.n	800896e <__swhatbuf_r+0x12>
 800898e:	9901      	ldr	r1, [sp, #4]
 8008990:	f401 4170 	and.w	r1, r1, #61440	@ 0xf000
 8008994:	f5a1 5300 	sub.w	r3, r1, #8192	@ 0x2000
 8008998:	4259      	negs	r1, r3
 800899a:	4159      	adcs	r1, r3
 800899c:	e7eb      	b.n	8008976 <__swhatbuf_r+0x1a>
 800899e:	2100      	movs	r1, #0
 80089a0:	2240      	movs	r2, #64	@ 0x40
 80089a2:	e7ea      	b.n	800897a <__swhatbuf_r+0x1e>

080089a4 <__smakebuf_r>:
 80089a4:	898b      	ldrh	r3, [r1, #12]
 80089a6:	b573      	push	{r0, r1, r4, r5, r6, lr}
 80089a8:	079e      	lsls	r6, r3, #30
 80089aa:	4605      	mov	r5, r0
 80089ac:	460c      	mov	r4, r1
 80089ae:	d507      	bpl.n	80089c0 <__smakebuf_r+0x1c>
 80089b0:	f104 0347 	add.w	r3, r4, #71	@ 0x47
 80089b4:	6023      	str	r3, [r4, #0]
 80089b6:	6123      	str	r3, [r4, #16]
 80089b8:	2301      	movs	r3, #1
 80089ba:	6163      	str	r3, [r4, #20]
 80089bc:	b002      	add	sp, #8
 80089be:	bd70      	pop	{r4, r5, r6, pc}
 80089c0:	ab01      	add	r3, sp, #4
 80089c2:	466a      	mov	r2, sp
 80089c4:	f7ff ffca 	bl	800895c <__swhatbuf_r>
 80089c8:	9e00      	ldr	r6, [sp, #0]
 80089ca:	4628      	mov	r0, r5
 80089cc:	4631      	mov	r1, r6
 80089ce:	f7fe fec3 	bl	8007758 <_malloc_r>
 80089d2:	f9b4 300c 	ldrsh.w	r3, [r4, #12]
 80089d6:	b938      	cbnz	r0, 80089e8 <__smakebuf_r+0x44>
 80089d8:	059a      	lsls	r2, r3, #22
 80089da:	d4ef      	bmi.n	80089bc <__smakebuf_r+0x18>
 80089dc:	f023 0303 	bic.w	r3, r3, #3
 80089e0:	f043 0302 	orr.w	r3, r3, #2
 80089e4:	81a3      	strh	r3, [r4, #12]
 80089e6:	e7e3      	b.n	80089b0 <__smakebuf_r+0xc>
 80089e8:	f043 0380 	orr.w	r3, r3, #128	@ 0x80
 80089ec:	81a3      	strh	r3, [r4, #12]
 80089ee:	9b01      	ldr	r3, [sp, #4]
 80089f0:	6020      	str	r0, [r4, #0]
 80089f2:	e9c4 0604 	strd	r0, r6, [r4, #16]
 80089f6:	2b00      	cmp	r3, #0
 80089f8:	d0e0      	beq.n	80089bc <__smakebuf_r+0x18>
 80089fa:	f9b4 100e 	ldrsh.w	r1, [r4, #14]
 80089fe:	4628      	mov	r0, r5
 8008a00:	f000 f81c 	bl	8008a3c <_isatty_r>
 8008a04:	2800      	cmp	r0, #0
 8008a06:	d0d9      	beq.n	80089bc <__smakebuf_r+0x18>
 8008a08:	89a3      	ldrh	r3, [r4, #12]
 8008a0a:	f023 0303 	bic.w	r3, r3, #3
 8008a0e:	f043 0301 	orr.w	r3, r3, #1
 8008a12:	81a3      	strh	r3, [r4, #12]
 8008a14:	e7d2      	b.n	80089bc <__smakebuf_r+0x18>
	...

08008a18 <_fstat_r>:
 8008a18:	b538      	push	{r3, r4, r5, lr}
 8008a1a:	4d07      	ldr	r5, [pc, #28]	@ (8008a38 <_fstat_r+0x20>)
 8008a1c:	2300      	movs	r3, #0
 8008a1e:	4604      	mov	r4, r0
 8008a20:	4608      	mov	r0, r1
 8008a22:	4611      	mov	r1, r2
 8008a24:	602b      	str	r3, [r5, #0]
 8008a26:	f7f8 fce9 	bl	80013fc <_fstat>
 8008a2a:	1c43      	adds	r3, r0, #1
 8008a2c:	d102      	bne.n	8008a34 <_fstat_r+0x1c>
 8008a2e:	682b      	ldr	r3, [r5, #0]
 8008a30:	b103      	cbz	r3, 8008a34 <_fstat_r+0x1c>
 8008a32:	6023      	str	r3, [r4, #0]
 8008a34:	bd38      	pop	{r3, r4, r5, pc}
 8008a36:	bf00      	nop
 8008a38:	200004a4 	.word	0x200004a4

08008a3c <_isatty_r>:
 8008a3c:	b538      	push	{r3, r4, r5, lr}
 8008a3e:	4d06      	ldr	r5, [pc, #24]	@ (8008a58 <_isatty_r+0x1c>)
 8008a40:	2300      	movs	r3, #0
 8008a42:	4604      	mov	r4, r0
 8008a44:	4608      	mov	r0, r1
 8008a46:	602b      	str	r3, [r5, #0]
 8008a48:	f7f8 fce8 	bl	800141c <_isatty>
 8008a4c:	1c43      	adds	r3, r0, #1
 8008a4e:	d102      	bne.n	8008a56 <_isatty_r+0x1a>
 8008a50:	682b      	ldr	r3, [r5, #0]
 8008a52:	b103      	cbz	r3, 8008a56 <_isatty_r+0x1a>
 8008a54:	6023      	str	r3, [r4, #0]
 8008a56:	bd38      	pop	{r3, r4, r5, pc}
 8008a58:	200004a4 	.word	0x200004a4

08008a5c <_init>:
 8008a5c:	b5f8      	push	{r3, r4, r5, r6, r7, lr}
 8008a5e:	bf00      	nop
 8008a60:	bcf8      	pop	{r3, r4, r5, r6, r7}
 8008a62:	bc08      	pop	{r3}
 8008a64:	469e      	mov	lr, r3
 8008a66:	4770      	bx	lr

08008a68 <_fini>:
 8008a68:	b5f8      	push	{r3, r4, r5, r6, r7, lr}
 8008a6a:	bf00      	nop
 8008a6c:	bcf8      	pop	{r3, r4, r5, r6, r7}
 8008a6e:	bc08      	pop	{r3}
 8008a70:	469e      	mov	lr, r3
 8008a72:	4770      	bx	lr
